
build/lrsc.elf:     file format elf32-littleriscv


Disassembly of section .crt_section:

80000000 <trap_entry-0x20>:
80000000:	04c0006f          	j	8000004c <_start>
80000004:	00000013          	nop
80000008:	00000013          	nop
8000000c:	00000013          	nop
80000010:	00000013          	nop
80000014:	00000013          	nop
80000018:	00000013          	nop
8000001c:	00000013          	nop

80000020 <trap_entry>:
80000020:	30002ef3          	csrr	t4,mstatus
80000024:	080efe93          	andi	t4,t4,128
80000028:	000e8a63          	beqz	t4,8000003c <notExternalInterrupt>
8000002c:	00002eb7          	lui	t4,0x2
80000030:	800e8e93          	addi	t4,t4,-2048 # 1800 <trap_entry-0x7fffe820>
80000034:	300e9073          	csrw	mstatus,t4
80000038:	30200073          	mret

8000003c <notExternalInterrupt>:
8000003c:	34102ef3          	csrr	t4,mepc
80000040:	004e8e93          	addi	t4,t4,4
80000044:	341e9073          	csrw	mepc,t4
80000048:	30200073          	mret

8000004c <_start>:
8000004c:	00100e13          	li	t3,1
80000050:	10000537          	lui	a0,0x10000
80000054:	06400593          	li	a1,100
80000058:	06500613          	li	a2,101
8000005c:	06600693          	li	a3,102
80000060:	00d52023          	sw	a3,0(a0) # 10000000 <trap_entry-0x70000020>
80000064:	18b5262f          	sc.w	a2,a1,(a0)
80000068:	00100713          	li	a4,1
8000006c:	26e61e63          	bne	a2,a4,800002e8 <fail>
80000070:	00052703          	lw	a4,0(a0)
80000074:	26e69a63          	bne	a3,a4,800002e8 <fail>
80000078:	00200e13          	li	t3,2
8000007c:	10000537          	lui	a0,0x10000
80000080:	00450513          	addi	a0,a0,4 # 10000004 <trap_entry-0x7000001c>
80000084:	06700593          	li	a1,103
80000088:	06800613          	li	a2,104
8000008c:	06900693          	li	a3,105
80000090:	00d52023          	sw	a3,0(a0)
80000094:	18b5262f          	sc.w	a2,a1,(a0)
80000098:	00100713          	li	a4,1
8000009c:	24e61663          	bne	a2,a4,800002e8 <fail>
800000a0:	00052703          	lw	a4,0(a0)
800000a4:	24e69263          	bne	a3,a4,800002e8 <fail>
800000a8:	00300e13          	li	t3,3
800000ac:	10000537          	lui	a0,0x10000
800000b0:	00450513          	addi	a0,a0,4 # 10000004 <trap_entry-0x7000001c>
800000b4:	06700593          	li	a1,103
800000b8:	06800613          	li	a2,104
800000bc:	06900693          	li	a3,105
800000c0:	18b5262f          	sc.w	a2,a1,(a0)
800000c4:	00100713          	li	a4,1
800000c8:	22e61063          	bne	a2,a4,800002e8 <fail>
800000cc:	00052703          	lw	a4,0(a0)
800000d0:	20e69c63          	bne	a3,a4,800002e8 <fail>
800000d4:	00400e13          	li	t3,4
800000d8:	10000537          	lui	a0,0x10000
800000dc:	00850513          	addi	a0,a0,8 # 10000008 <trap_entry-0x70000018>
800000e0:	06a00593          	li	a1,106
800000e4:	06b00613          	li	a2,107
800000e8:	06c00693          	li	a3,108
800000ec:	00d52023          	sw	a3,0(a0)
800000f0:	100527af          	lr.w	a5,(a0)
800000f4:	18b5262f          	sc.w	a2,a1,(a0)
800000f8:	1ed79863          	bne	a5,a3,800002e8 <fail>
800000fc:	1e061663          	bnez	a2,800002e8 <fail>
80000100:	00052703          	lw	a4,0(a0)
80000104:	1ee59263          	bne	a1,a4,800002e8 <fail>
80000108:	00500e13          	li	t3,5
8000010c:	10000537          	lui	a0,0x10000
80000110:	00850513          	addi	a0,a0,8 # 10000008 <trap_entry-0x70000018>
80000114:	06d00593          	li	a1,109
80000118:	06e00613          	li	a2,110
8000011c:	06f00693          	li	a3,111
80000120:	00d52023          	sw	a3,0(a0)
80000124:	18b5262f          	sc.w	a2,a1,(a0)
80000128:	1c061063          	bnez	a2,800002e8 <fail>
8000012c:	00052703          	lw	a4,0(a0)
80000130:	1ae59c63          	bne	a1,a4,800002e8 <fail>
80000134:	00600e13          	li	t3,6
80000138:	10000537          	lui	a0,0x10000
8000013c:	00c50513          	addi	a0,a0,12 # 1000000c <trap_entry-0x70000014>
80000140:	07000593          	li	a1,112
80000144:	07100613          	li	a2,113
80000148:	07200693          	li	a3,114
8000014c:	10000437          	lui	s0,0x10000
80000150:	01040413          	addi	s0,s0,16 # 10000010 <trap_entry-0x70000010>
80000154:	07300493          	li	s1,115
80000158:	07400913          	li	s2,116
8000015c:	07500993          	li	s3,117
80000160:	00d52023          	sw	a3,0(a0)
80000164:	01342023          	sw	s3,0(s0)
80000168:	100527af          	lr.w	a5,(a0)
8000016c:	10042aaf          	lr.w	s5,(s0)
80000170:	18b5262f          	sc.w	a2,a1,(a0)
80000174:	1894292f          	sc.w	s2,s1,(s0)
80000178:	16d79863          	bne	a5,a3,800002e8 <fail>
8000017c:	16061663          	bnez	a2,800002e8 <fail>
80000180:	00052703          	lw	a4,0(a0)
80000184:	16e59263          	bne	a1,a4,800002e8 <fail>
80000188:	173a9063          	bne	s5,s3,800002e8 <fail>
8000018c:	14091e63          	bnez	s2,800002e8 <fail>
80000190:	00042a03          	lw	s4,0(s0)
80000194:	15449a63          	bne	s1,s4,800002e8 <fail>
80000198:	00700e13          	li	t3,7
8000019c:	10000537          	lui	a0,0x10000
800001a0:	01450513          	addi	a0,a0,20 # 10000014 <trap_entry-0x7000000c>
800001a4:	07800593          	li	a1,120
800001a8:	07900613          	li	a2,121
800001ac:	07a00693          	li	a3,122
800001b0:	01000e93          	li	t4,16

800001b4 <test7>:
800001b4:	00d52023          	sw	a3,0(a0)
800001b8:	100527af          	lr.w	a5,(a0)
800001bc:	18b5262f          	sc.w	a2,a1,(a0)
800001c0:	12d79463          	bne	a5,a3,800002e8 <fail>
800001c4:	12061263          	bnez	a2,800002e8 <fail>
800001c8:	00052703          	lw	a4,0(a0)
800001cc:	10e59e63          	bne	a1,a4,800002e8 <fail>
800001d0:	fffe8e93          	addi	t4,t4,-1
800001d4:	00450513          	addi	a0,a0,4
800001d8:	00358593          	addi	a1,a1,3
800001dc:	00360613          	addi	a2,a2,3
800001e0:	00368693          	addi	a3,a3,3
800001e4:	fc0e98e3          	bnez	t4,800001b4 <test7>
800001e8:	00900e13          	li	t3,9
800001ec:	10000537          	lui	a0,0x10000
800001f0:	10050513          	addi	a0,a0,256 # 10000100 <trap_entry-0x6fffff20>
800001f4:	07b00593          	li	a1,123
800001f8:	07c00613          	li	a2,124
800001fc:	07d00693          	li	a3,125
80000200:	00d52023          	sw	a3,0(a0)
80000204:	100527af          	lr.w	a5,(a0)
80000208:	00000073          	ecall
8000020c:	18b5262f          	sc.w	a2,a1,(a0)
80000210:	00100713          	li	a4,1
80000214:	0ce61a63          	bne	a2,a4,800002e8 <fail>
80000218:	00052703          	lw	a4,0(a0)
8000021c:	0ce69663          	bne	a3,a4,800002e8 <fail>
80000220:	00b00e13          	li	t3,11
80000224:	10000537          	lui	a0,0x10000
80000228:	30050513          	addi	a0,a0,768 # 10000300 <trap_entry-0x6ffffd20>
8000022c:	08200593          	li	a1,130
80000230:	08300613          	li	a2,131
80000234:	08400693          	li	a3,132
80000238:	00d52023          	sw	a3,0(a0)
8000023c:	00001eb7          	lui	t4,0x1
80000240:	800e8e93          	addi	t4,t4,-2048 # 800 <trap_entry-0x7ffff820>
80000244:	304e9073          	csrw	mie,t4
80000248:	00800e93          	li	t4,8
8000024c:	100527af          	lr.w	a5,(a0)
80000250:	300e9073          	csrw	mstatus,t4
80000254:	00000013          	nop
80000258:	00000013          	nop
8000025c:	00000013          	nop
80000260:	00000013          	nop
80000264:	00000013          	nop
80000268:	00000013          	nop
8000026c:	18b5262f          	sc.w	a2,a1,(a0)
80000270:	00100713          	li	a4,1
80000274:	06e61a63          	bne	a2,a4,800002e8 <fail>
80000278:	00052703          	lw	a4,0(a0)
8000027c:	06e69663          	bne	a3,a4,800002e8 <fail>
80000280:	00c00e13          	li	t3,12
80000284:	10000537          	lui	a0,0x10000
80000288:	40050513          	addi	a0,a0,1024 # 10000400 <trap_entry-0x6ffffc20>
8000028c:	08c00593          	li	a1,140
80000290:	08d00613          	li	a2,141
80000294:	08e00693          	li	a3,142
80000298:	00d52023          	sw	a3,0(a0)
8000029c:	00001eb7          	lui	t4,0x1
800002a0:	800e8e93          	addi	t4,t4,-2048 # 800 <trap_entry-0x7ffff820>
800002a4:	304e9073          	csrw	mie,t4
800002a8:	00002eb7          	lui	t4,0x2
800002ac:	808e8e93          	addi	t4,t4,-2040 # 1808 <trap_entry-0x7fffe818>
800002b0:	100527af          	lr.w	a5,(a0)
800002b4:	300e9073          	csrw	mstatus,t4
800002b8:	00000013          	nop
800002bc:	00000013          	nop
800002c0:	00000013          	nop
800002c4:	00000013          	nop
800002c8:	00000013          	nop
800002cc:	00000013          	nop
800002d0:	18b5262f          	sc.w	a2,a1,(a0)
800002d4:	00100713          	li	a4,1
800002d8:	00e61863          	bne	a2,a4,800002e8 <fail>
800002dc:	00052703          	lw	a4,0(a0)
800002e0:	00e69463          	bne	a3,a4,800002e8 <fail>
800002e4:	0100006f          	j	800002f4 <pass>

800002e8 <fail>:
800002e8:	f0100137          	lui	sp,0xf0100
800002ec:	f2410113          	addi	sp,sp,-220 # f00fff24 <pass+0x700ffc30>
800002f0:	01c12023          	sw	t3,0(sp)

800002f4 <pass>:
800002f4:	f0100137          	lui	sp,0xf0100
800002f8:	f2010113          	addi	sp,sp,-224 # f00fff20 <pass+0x700ffc2c>
800002fc:	00012023          	sw	zero,0(sp)
80000300:	00000013          	nop
80000304:	00000013          	nop
80000308:	00000013          	nop
8000030c:	00000013          	nop
80000310:	00000013          	nop
80000314:	00000013          	nop
