
build/dhrystone.elf:     file format elf32-littleriscv


Disassembly of section .yolo:

00000000 <trap_entry-0x20>:
  j _start
   0:	1380006f          	j	138 <_start>
  nop
   4:	00000013          	nop
  nop
   8:	00000013          	nop
  nop
   c:	00000013          	nop
  nop
  10:	00000013          	nop
  nop
  14:	00000013          	nop
  nop
  18:	00000013          	nop
  nop
  1c:	00000013          	nop

00000020 <trap_entry>:

.global  trap_entry
trap_entry:
  nop
  20:	00000013          	nop
  addi sp,sp,-128
  24:	f8010113          	addi	sp,sp,-128

  sw gp,   0*4(sp)
  28:	00312023          	sw	gp,0(sp)
  sw x1,   1*4(sp)
  2c:	00112223          	sw	ra,4(sp)
  sw x2,   2*4(sp)
  30:	00212423          	sw	sp,8(sp)
  sw x3,   3*4(sp)
  34:	00312623          	sw	gp,12(sp)
  sw x4,   4*4(sp)
  38:	00412823          	sw	tp,16(sp)
  sw x5,   5*4(sp)
  3c:	00512a23          	sw	t0,20(sp)
  sw x6,   6*4(sp)
  40:	00612c23          	sw	t1,24(sp)
  sw x7,   7*4(sp)
  44:	00712e23          	sw	t2,28(sp)
  sw x8,   8*4(sp)
  48:	02812023          	sw	s0,32(sp)
  sw x9,   9*4(sp)
  4c:	02912223          	sw	s1,36(sp)
  sw x10, 10*4(sp)
  50:	02a12423          	sw	a0,40(sp)
  sw x11, 11*4(sp)
  54:	02b12623          	sw	a1,44(sp)
  sw x12, 12*4(sp)
  58:	02c12823          	sw	a2,48(sp)
  sw x13, 13*4(sp)
  5c:	02d12a23          	sw	a3,52(sp)
  sw x14, 14*4(sp)
  60:	02e12c23          	sw	a4,56(sp)
  sw x15, 15*4(sp)
  64:	02f12e23          	sw	a5,60(sp)
  sw x16, 16*4(sp)
  68:	05012023          	sw	a6,64(sp)
  sw x17, 17*4(sp)
  6c:	05112223          	sw	a7,68(sp)
  sw x18, 18*4(sp)
  70:	05212423          	sw	s2,72(sp)
  sw x19, 19*4(sp)
  74:	05312623          	sw	s3,76(sp)
  sw x20, 20*4(sp)
  78:	05412823          	sw	s4,80(sp)
  sw x21, 21*4(sp)
  7c:	05512a23          	sw	s5,84(sp)
  sw x22, 22*4(sp)
  80:	05612c23          	sw	s6,88(sp)
  sw x23, 23*4(sp)
  84:	05712e23          	sw	s7,92(sp)
  sw x24, 24*4(sp)
  88:	07812023          	sw	s8,96(sp)
  sw x25, 25*4(sp)
  8c:	07912223          	sw	s9,100(sp)
  sw x26, 26*4(sp)
  90:	07a12423          	sw	s10,104(sp)
  sw x27, 27*4(sp)
  94:	07b12623          	sw	s11,108(sp)
  sw x28, 28*4(sp)
  98:	07c12823          	sw	t3,112(sp)
  sw x29, 29*4(sp)
  9c:	07d12a23          	sw	t4,116(sp)
  sw x30, 30*4(sp)
  a0:	07e12c23          	sw	t5,120(sp)
  sw x31, 31*4(sp)
  a4:	07f12e23          	sw	t6,124(sp)
  nop
  a8:	00000013          	nop
  nop
  ac:	00000013          	nop
  nop
  b0:	00000013          	nop
  nop
  b4:	00000013          	nop

  lw x1,   1*4(sp)
  b8:	00412083          	lw	ra,4(sp)
  lw x3,   3*4(sp)
  bc:	00c12183          	lw	gp,12(sp)
  lw x4,   4*4(sp)
  c0:	01012203          	lw	tp,16(sp)
  lw x5,   5*4(sp)
  c4:	01412283          	lw	t0,20(sp)
  lw x6,   6*4(sp)
  c8:	01812303          	lw	t1,24(sp)
  lw x7,   7*4(sp)
  cc:	01c12383          	lw	t2,28(sp)
  lw x8,   8*4(sp)
  d0:	02012403          	lw	s0,32(sp)
  lw x9,   9*4(sp)
  d4:	02412483          	lw	s1,36(sp)
  lw x10, 10*4(sp)
  d8:	02812503          	lw	a0,40(sp)
  lw x11, 11*4(sp)
  dc:	02c12583          	lw	a1,44(sp)
  lw x12, 12*4(sp)
  e0:	03012603          	lw	a2,48(sp)
  lw x13, 13*4(sp)
  e4:	03412683          	lw	a3,52(sp)
  lw x14, 14*4(sp)
  e8:	03812703          	lw	a4,56(sp)
  lw x15, 15*4(sp)
  ec:	03c12783          	lw	a5,60(sp)
  lw x16, 16*4(sp)
  f0:	04012803          	lw	a6,64(sp)
  lw x17, 17*4(sp)
  f4:	04412883          	lw	a7,68(sp)
  lw x18, 18*4(sp)
  f8:	04812903          	lw	s2,72(sp)
  lw x19, 19*4(sp)
  fc:	04c12983          	lw	s3,76(sp)
  lw x20, 20*4(sp)
 100:	05012a03          	lw	s4,80(sp)
  lw x21, 21*4(sp)
 104:	05412a83          	lw	s5,84(sp)
  lw x22, 22*4(sp)
 108:	05812b03          	lw	s6,88(sp)
  lw x23, 23*4(sp)
 10c:	05c12b83          	lw	s7,92(sp)
  lw x24, 24*4(sp)
 110:	06012c03          	lw	s8,96(sp)
  lw x25, 25*4(sp)
 114:	06412c83          	lw	s9,100(sp)
  lw x26, 26*4(sp)
 118:	06812d03          	lw	s10,104(sp)
  lw x27, 27*4(sp)
 11c:	06c12d83          	lw	s11,108(sp)
  lw x28, 28*4(sp)
 120:	07012e03          	lw	t3,112(sp)
  lw x29, 29*4(sp)
 124:	07412e83          	lw	t4,116(sp)
  lw x30, 30*4(sp)
 128:	07812f03          	lw	t5,120(sp)
  lw x31, 31*4(sp)
 12c:	07c12f83          	lw	t6,124(sp)
  addi sp,sp,128
 130:	08010113          	addi	sp,sp,128
  nop
 134:	00000013          	nop

00000138 <_start>:


  .globl _start
_start:

  la sp, _stack_start
 138:	00001117          	auipc	sp,0x1
 13c:	88010113          	addi	sp,sp,-1920 # 9b8 <_stack_start>

00000140 <test_init>:

test_init:
  li a0, 20
 140:	01400513          	li	a0,20

00000144 <test_loop>:
test_loop:
  nop
 144:	00000013          	nop
  nop
 148:	00000013          	nop
  nop
 14c:	00000013          	nop
  addi a0, a0, -1
 150:	fff50513          	addi	a0,a0,-1
  bne a0,x0,test_loop
 154:	fe0518e3          	bnez	a0,144 <test_loop>

00000158 <bss_init>:
test_done:


bss_init:
  la a0, _bss_start
 158:	4000e517          	auipc	a0,0x4000e
 15c:	43850513          	addi	a0,a0,1080 # 4000e590 <_edata>
  la a1, _bss_end
 160:	40011597          	auipc	a1,0x40011
 164:	c7c58593          	addi	a1,a1,-900 # 40010ddc <_bss_end>

00000168 <bss_loop>:
bss_loop:
  beq a0,a1,bss_done
 168:	00b50863          	beq	a0,a1,178 <bss_done>
  sw zero,0(a0)
 16c:	00052023          	sw	zero,0(a0)
  add a0,a0,4
 170:	00450513          	addi	a0,a0,4
  j bss_loop
 174:	ff5ff06f          	j	168 <bss_loop>

00000178 <bss_done>:
  add a0,a0,4
  j data_loop
data_done:*/

ctors_init:
  la a0, _ctors_start
 178:	4000e517          	auipc	a0,0x4000e
 17c:	b5850513          	addi	a0,a0,-1192 # 4000dcd0 <_etext>
  addi sp,sp,-4
 180:	ffc10113          	addi	sp,sp,-4

00000184 <ctors_loop>:
ctors_loop:
  la a1, _ctors_end
 184:	4000e597          	auipc	a1,0x4000e
 188:	b4c58593          	addi	a1,a1,-1204 # 4000dcd0 <_etext>
  beq a0,a1,ctors_done
 18c:	00b50e63          	beq	a0,a1,1a8 <ctors_done>
  lw a3,0(a0)
 190:	00052683          	lw	a3,0(a0)
  add a0,a0,4
 194:	00450513          	addi	a0,a0,4
  sw a0,0(sp)
 198:	00a12023          	sw	a0,0(sp)
  jalr  a3
 19c:	000680e7          	jalr	a3
  lw a0,0(sp)
 1a0:	00012503          	lw	a0,0(sp)
  j ctors_loop
 1a4:	fe1ff06f          	j	184 <ctors_loop>

000001a8 <ctors_done>:
ctors_done:
  addi sp,sp,4
 1a8:	00410113          	addi	sp,sp,4

  call main
 1ac:	40001317          	auipc	t1,0x40001
 1b0:	b20300e7          	jalr	-1248(t1) # 40000ccc <main>

000001b4 <infinitLoop>:
infinitLoop:
  j infinitLoop
 1b4:	0000006f          	j	1b4 <infinitLoop>

Disassembly of section .text:

40000000 <Proc_2>:
  One_Fifty  Int_Loc;  
  Enumeration   Enum_Loc;

  Int_Loc = *Int_Par_Ref + 10;
  do /* executed once */
    if (Ch_1_Glob == 'A')
40000000:	4000e7b7          	lui	a5,0x4000e
40000004:	5a97c703          	lbu	a4,1449(a5) # 4000e5a9 <Ch_1_Glob>
40000008:	04100793          	li	a5,65
4000000c:	00f70463          	beq	a4,a5,40000014 <Proc_2+0x14>
      Int_Loc -= 1;
      *Int_Par_Ref = Int_Loc - Int_Glob;
      Enum_Loc = Ident_1;
    } /* if */
  while (Enum_Loc != Ident_1); /* true */
} /* Proc_2 */
40000010:	00008067          	ret
      Int_Loc -= 1;
40000014:	00052783          	lw	a5,0(a0)
      *Int_Par_Ref = Int_Loc - Int_Glob;
40000018:	4000e737          	lui	a4,0x4000e
4000001c:	5b072703          	lw	a4,1456(a4) # 4000e5b0 <Int_Glob>
      Int_Loc -= 1;
40000020:	00978793          	addi	a5,a5,9
      *Int_Par_Ref = Int_Loc - Int_Glob;
40000024:	40e787b3          	sub	a5,a5,a4
40000028:	00f52023          	sw	a5,0(a0)
} /* Proc_2 */
4000002c:	00008067          	ret

40000030 <Proc_3>:
    /* Ptr_Ref_Par becomes Ptr_Glob */

Rec_Pointer *Ptr_Ref_Par;

{
  if (Ptr_Glob != Null)
40000030:	4000e7b7          	lui	a5,0x4000e
40000034:	5b87a603          	lw	a2,1464(a5) # 4000e5b8 <Ptr_Glob>
40000038:	00060863          	beqz	a2,40000048 <Proc_3+0x18>
    /* then, executed */
    *Ptr_Ref_Par = Ptr_Glob->Ptr_Comp;
4000003c:	00062703          	lw	a4,0(a2)
40000040:	00e52023          	sw	a4,0(a0)
40000044:	5b87a603          	lw	a2,1464(a5)
  Proc_7 (10, Int_Glob, &Ptr_Glob->variant.var_1.Int_Comp);
40000048:	4000e7b7          	lui	a5,0x4000e
4000004c:	5b07a583          	lw	a1,1456(a5) # 4000e5b0 <Int_Glob>
40000050:	00c60613          	addi	a2,a2,12
40000054:	00a00513          	li	a0,10
40000058:	1850006f          	j	400009dc <Proc_7>

4000005c <Proc_1>:
4000005c:	ff010113          	addi	sp,sp,-16
{
40000060:	01212023          	sw	s2,0(sp)
40000064:	4000e937          	lui	s2,0x4000e
  structassign (*Ptr_Val_Par->Ptr_Comp, *Ptr_Glob); 
40000068:	5b892783          	lw	a5,1464(s2) # 4000e5b8 <Ptr_Glob>
4000006c:	00812423          	sw	s0,8(sp)
{
40000070:	00052403          	lw	s0,0(a0)
  REG Rec_Pointer Next_Record = Ptr_Val_Par->Ptr_Comp;  
40000074:	0007a683          	lw	a3,0(a5)
  structassign (*Ptr_Val_Par->Ptr_Comp, *Ptr_Glob); 
40000078:	00112623          	sw	ra,12(sp)
{
4000007c:	00912223          	sw	s1,4(sp)
40000080:	00d42023          	sw	a3,0(s0)
  structassign (*Ptr_Val_Par->Ptr_Comp, *Ptr_Glob); 
40000084:	0047a683          	lw	a3,4(a5)
40000088:	00050493          	mv	s1,a0
{
4000008c:	00500713          	li	a4,5
  Ptr_Val_Par->variant.var_1.Int_Comp = 5;
40000090:	00d42223          	sw	a3,4(s0)
  structassign (*Ptr_Val_Par->Ptr_Comp, *Ptr_Glob); 
40000094:	0087a683          	lw	a3,8(a5)
40000098:	00040513          	mv	a0,s0
  Proc_3 (&Next_Record->Ptr_Comp);
4000009c:	00d42423          	sw	a3,8(s0)
  structassign (*Ptr_Val_Par->Ptr_Comp, *Ptr_Glob); 
400000a0:	00c7a683          	lw	a3,12(a5)
400000a4:	00d42623          	sw	a3,12(s0)
400000a8:	0107a683          	lw	a3,16(a5)
400000ac:	00d42823          	sw	a3,16(s0)
400000b0:	0147a683          	lw	a3,20(a5)
400000b4:	00d42a23          	sw	a3,20(s0)
400000b8:	0187a683          	lw	a3,24(a5)
400000bc:	00d42c23          	sw	a3,24(s0)
400000c0:	01c7a683          	lw	a3,28(a5)
400000c4:	00d42e23          	sw	a3,28(s0)
400000c8:	0207a683          	lw	a3,32(a5)
400000cc:	02d42023          	sw	a3,32(s0)
400000d0:	0247a683          	lw	a3,36(a5)
400000d4:	02d42223          	sw	a3,36(s0)
400000d8:	0287a683          	lw	a3,40(a5)
400000dc:	02d42423          	sw	a3,40(s0)
400000e0:	02c7a783          	lw	a5,44(a5)
400000e4:	02f42623          	sw	a5,44(s0)
400000e8:	00e4a623          	sw	a4,12(s1)
  Ptr_Val_Par->variant.var_1.Int_Comp = 5;
400000ec:	00e42623          	sw	a4,12(s0)
        = Ptr_Val_Par->variant.var_1.Int_Comp;
400000f0:	0004a783          	lw	a5,0(s1)
  Next_Record->Ptr_Comp = Ptr_Val_Par->Ptr_Comp;
400000f4:	00f42023          	sw	a5,0(s0)
400000f8:	f39ff0ef          	jal	ra,40000030 <Proc_3>
  Proc_3 (&Next_Record->Ptr_Comp);
400000fc:	00442783          	lw	a5,4(s0)
40000100:	08078063          	beqz	a5,40000180 <Proc_1+0x124>
  if (Next_Record->Discr == Ident_1)
40000104:	0004a783          	lw	a5,0(s1)
40000108:	00c12083          	lw	ra,12(sp)
    structassign (*Ptr_Val_Par, *Ptr_Val_Par->Ptr_Comp);
4000010c:	00812403          	lw	s0,8(sp)
} /* Proc_1 */
40000110:	0007a703          	lw	a4,0(a5)
40000114:	00012903          	lw	s2,0(sp)
    structassign (*Ptr_Val_Par, *Ptr_Val_Par->Ptr_Comp);
40000118:	00e4a023          	sw	a4,0(s1)
} /* Proc_1 */
4000011c:	0047a703          	lw	a4,4(a5)
    structassign (*Ptr_Val_Par, *Ptr_Val_Par->Ptr_Comp);
40000120:	00e4a223          	sw	a4,4(s1)
40000124:	0087a703          	lw	a4,8(a5)
40000128:	00e4a423          	sw	a4,8(s1)
4000012c:	00c7a703          	lw	a4,12(a5)
40000130:	00e4a623          	sw	a4,12(s1)
40000134:	0107a703          	lw	a4,16(a5)
40000138:	00e4a823          	sw	a4,16(s1)
4000013c:	0147a703          	lw	a4,20(a5)
40000140:	00e4aa23          	sw	a4,20(s1)
40000144:	0187a703          	lw	a4,24(a5)
40000148:	00e4ac23          	sw	a4,24(s1)
4000014c:	01c7a703          	lw	a4,28(a5)
40000150:	00e4ae23          	sw	a4,28(s1)
40000154:	0207a703          	lw	a4,32(a5)
40000158:	02e4a023          	sw	a4,32(s1)
4000015c:	0247a703          	lw	a4,36(a5)
40000160:	02e4a223          	sw	a4,36(s1)
40000164:	0287a703          	lw	a4,40(a5)
40000168:	02e4a423          	sw	a4,40(s1)
4000016c:	02c7a783          	lw	a5,44(a5)
40000170:	02f4a623          	sw	a5,44(s1)
40000174:	00412483          	lw	s1,4(sp)
40000178:	01010113          	addi	sp,sp,16
} /* Proc_1 */
4000017c:	00008067          	ret
40000180:	00600793          	li	a5,6
40000184:	00f42623          	sw	a5,12(s0)
    Next_Record->variant.var_1.Int_Comp = 6;
40000188:	0084a503          	lw	a0,8(s1)
4000018c:	00840593          	addi	a1,s0,8
    Proc_6 (Ptr_Val_Par->variant.var_1.Enum_Comp, 
40000190:	1a5000ef          	jal	ra,40000b34 <Proc_6>
40000194:	5b892783          	lw	a5,1464(s2)
40000198:	00c42503          	lw	a0,12(s0)
4000019c:	00c40613          	addi	a2,s0,12
    Next_Record->Ptr_Comp = Ptr_Glob->Ptr_Comp;
400001a0:	0007a783          	lw	a5,0(a5)
    Proc_7 (Next_Record->variant.var_1.Int_Comp, 10, 
400001a4:	00c12083          	lw	ra,12(sp)
400001a8:	00412483          	lw	s1,4(sp)
    Next_Record->Ptr_Comp = Ptr_Glob->Ptr_Comp;
400001ac:	00f42023          	sw	a5,0(s0)
} /* Proc_1 */
400001b0:	00012903          	lw	s2,0(sp)
400001b4:	00812403          	lw	s0,8(sp)
    Next_Record->Ptr_Comp = Ptr_Glob->Ptr_Comp;
400001b8:	00a00593          	li	a1,10
} /* Proc_1 */
400001bc:	01010113          	addi	sp,sp,16
400001c0:	01d0006f          	j	400009dc <Proc_7>

400001c4 <Proc_4>:
    Proc_7 (Next_Record->variant.var_1.Int_Comp, 10, 
400001c4:	4000e7b7          	lui	a5,0x4000e
} /* Proc_1 */
400001c8:	5a97c783          	lbu	a5,1449(a5) # 4000e5a9 <Ch_1_Glob>
    Proc_7 (Next_Record->variant.var_1.Int_Comp, 10, 
400001cc:	4000e737          	lui	a4,0x4000e
400001d0:	5ac72683          	lw	a3,1452(a4) # 4000e5ac <Bool_Glob>
/*******/
    /* executed once */
{
  Boolean Bool_Loc;

  Bool_Loc = Ch_1_Glob == 'A';
400001d4:	fbf78793          	addi	a5,a5,-65
400001d8:	0017b793          	seqz	a5,a5
  Bool_Glob = Bool_Loc | Bool_Glob;
400001dc:	00d7e7b3          	or	a5,a5,a3
400001e0:	5af72623          	sw	a5,1452(a4)
  Bool_Loc = Ch_1_Glob == 'A';
400001e4:	04200713          	li	a4,66
400001e8:	4000e7b7          	lui	a5,0x4000e
  Bool_Glob = Bool_Loc | Bool_Glob;
400001ec:	5ae78423          	sb	a4,1448(a5) # 4000e5a8 <Ch_2_Glob>
400001f0:	00008067          	ret

400001f4 <Proc_5>:
  Ch_2_Glob = 'B';
400001f4:	04100713          	li	a4,65
400001f8:	4000e7b7          	lui	a5,0x4000e
400001fc:	5ae784a3          	sb	a4,1449(a5) # 4000e5a9 <Ch_1_Glob>
} /* Proc_4 */
40000200:	4000e7b7          	lui	a5,0x4000e

Proc_5 () /* without parameters */
/*******/
    /* executed once */
{
  Ch_1_Glob = 'A';
40000204:	5a07a623          	sw	zero,1452(a5) # 4000e5ac <Bool_Glob>
40000208:	00008067          	ret

4000020c <main2>:
4000020c:	f6010113          	addi	sp,sp,-160
  Bool_Glob = false;
40000210:	03000513          	li	a0,48
40000214:	08112e23          	sw	ra,156(sp)
} /* Proc_5 */
40000218:	08812c23          	sw	s0,152(sp)
{
4000021c:	08912a23          	sw	s1,148(sp)
  Next_Ptr_Glob = (Rec_Pointer) malloc (sizeof (Rec_Type));
40000220:	09212823          	sw	s2,144(sp)
{
40000224:	09312623          	sw	s3,140(sp)
40000228:	09412423          	sw	s4,136(sp)
4000022c:	09512223          	sw	s5,132(sp)
40000230:	09612023          	sw	s6,128(sp)
40000234:	07712e23          	sw	s7,124(sp)
40000238:	07812c23          	sw	s8,120(sp)
4000023c:	07912a23          	sw	s9,116(sp)
40000240:	07a12823          	sw	s10,112(sp)
40000244:	07b12623          	sw	s11,108(sp)
40000248:	2a9000ef          	jal	ra,40000cf0 <malloc>
4000024c:	4000e7b7          	lui	a5,0x4000e
40000250:	5aa7aa23          	sw	a0,1460(a5) # 4000e5b4 <Next_Ptr_Glob>
40000254:	03000513          	li	a0,48
  Next_Ptr_Glob = (Rec_Pointer) malloc (sizeof (Rec_Type));
40000258:	299000ef          	jal	ra,40000cf0 <malloc>
4000025c:	4000e7b7          	lui	a5,0x4000e
40000260:	5b47a783          	lw	a5,1460(a5) # 4000e5b4 <Next_Ptr_Glob>
40000264:	4000e737          	lui	a4,0x4000e
  Ptr_Glob = (Rec_Pointer) malloc (sizeof (Rec_Type));
40000268:	5aa72c23          	sw	a0,1464(a4) # 4000e5b8 <Ptr_Glob>
4000026c:	00f52023          	sw	a5,0(a0)
40000270:	00200793          	li	a5,2
  Ptr_Glob->Ptr_Comp                    = Next_Ptr_Glob;
40000274:	00f52423          	sw	a5,8(a0)
40000278:	4000d5b7          	lui	a1,0x4000d
  Ptr_Glob = (Rec_Pointer) malloc (sizeof (Rec_Type));
4000027c:	02800793          	li	a5,40
40000280:	01f00613          	li	a2,31
  Ptr_Glob->Ptr_Comp                    = Next_Ptr_Glob;
40000284:	ff858593          	addi	a1,a1,-8 # 4000cff8 <__clzsi2+0x70>
  Ptr_Glob->variant.var_1.Enum_Comp     = Ident_3;
40000288:	00f52623          	sw	a5,12(a0)
4000028c:	00052223          	sw	zero,4(a0)
  strcpy (Ptr_Glob->variant.var_1.Str_Comp, 
40000290:	01050513          	addi	a0,a0,16
  Ptr_Glob->variant.var_1.Int_Comp      = 40;
40000294:	1c8010ef          	jal	ra,4000145c <memcpy>
  strcpy (Ptr_Glob->variant.var_1.Str_Comp, 
40000298:	4000d7b7          	lui	a5,0x4000d
4000029c:	25c78513          	addi	a0,a5,604 # 4000d25c <__clzsi2+0x2d4>
  Ptr_Glob->variant.var_1.Int_Comp      = 40;
400002a0:	595257b7          	lui	a5,0x59525
  Ptr_Glob->Discr                       = Ident_1;
400002a4:	84478793          	addi	a5,a5,-1980 # 59524844 <end+0x19513a64>
  strcpy (Ptr_Glob->variant.var_1.Str_Comp, 
400002a8:	02f12023          	sw	a5,32(sp)
400002ac:	4e4f57b7          	lui	a5,0x4e4f5
400002b0:	45378793          	addi	a5,a5,1107 # 4e4f5453 <end+0xe4e4673>
  printf ("\n");
400002b4:	02f12223          	sw	a5,36(sp)
400002b8:	525027b7          	lui	a5,0x52502
  strcpy (Str_1_Loc, "DHRYSTONE PROGRAM, 1'ST STRING");
400002bc:	04578793          	addi	a5,a5,69 # 52502045 <end+0x124f1265>
400002c0:	02f12423          	sw	a5,40(sp)
400002c4:	415247b7          	lui	a5,0x41524
400002c8:	74f78793          	addi	a5,a5,1871 # 4152474f <end+0x151396f>
400002cc:	02f12623          	sw	a5,44(sp)
400002d0:	312037b7          	lui	a5,0x31203
400002d4:	c4d78793          	addi	a5,a5,-947 # 31202c4d <_heap_size+0x31200c4d>
400002d8:	02f12823          	sw	a5,48(sp)
400002dc:	205457b7          	lui	a5,0x20545
400002e0:	32778793          	addi	a5,a5,807 # 20545327 <_heap_size+0x20543327>
400002e4:	02f12a23          	sw	a5,52(sp)
400002e8:	495257b7          	lui	a5,0x49525
400002ec:	45378793          	addi	a5,a5,1107 # 49525453 <end+0x9514673>
400002f0:	02f12c23          	sw	a5,56(sp)
400002f4:	000047b7          	lui	a5,0x4
400002f8:	74e78793          	addi	a5,a5,1870 # 474e <_heap_size+0x274e>
400002fc:	4000e737          	lui	a4,0x4000e
40000300:	5d870713          	addi	a4,a4,1496 # 4000e5d8 <Arr_2_Glob>
40000304:	02f11e23          	sh	a5,60(sp)
40000308:	00a00793          	li	a5,10
4000030c:	64f72e23          	sw	a5,1628(a4)
40000310:	02010f23          	sb	zero,62(sp)
40000314:	2b0010ef          	jal	ra,400015c4 <printf>
  Arr_2_Glob [8][7] = 10;
40000318:	4000d537          	lui	a0,0x4000d
4000031c:	01850513          	addi	a0,a0,24 # 4000d018 <__clzsi2+0x90>
  strcpy (Str_1_Loc, "DHRYSTONE PROGRAM, 1'ST STRING");
40000320:	2a4010ef          	jal	ra,400015c4 <printf>
  Arr_2_Glob [8][7] = 10;
40000324:	4000d7b7          	lui	a5,0x4000d
40000328:	25c78513          	addi	a0,a5,604 # 4000d25c <__clzsi2+0x2d4>
  strcpy (Str_1_Loc, "DHRYSTONE PROGRAM, 1'ST STRING");
4000032c:	298010ef          	jal	ra,400015c4 <printf>
  printf ("\n");
40000330:	4000e7b7          	lui	a5,0x4000e
40000334:	5a47a783          	lw	a5,1444(a5) # 4000e5a4 <Reg>
  printf ("Dhrystone Benchmark, Version 2.1 (Language: C)\n");
40000338:	66078063          	beqz	a5,40000998 <main2+0x78c>
4000033c:	4000d537          	lui	a0,0x4000d
40000340:	04850513          	addi	a0,a0,72 # 4000d048 <__clzsi2+0xc0>
40000344:	280010ef          	jal	ra,400015c4 <printf>
  printf ("\n");
40000348:	4000d7b7          	lui	a5,0x4000d
4000034c:	25c78513          	addi	a0,a5,604 # 4000d25c <__clzsi2+0x2d4>
40000350:	274010ef          	jal	ra,400015c4 <printf>
40000354:	4000d537          	lui	a0,0x4000d
  if (Reg)
40000358:	0a450513          	addi	a0,a0,164 # 4000d0a4 <__clzsi2+0x11c>
4000035c:	268010ef          	jal	ra,400015c4 <printf>
40000360:	4000d7b7          	lui	a5,0x4000d
    printf ("Program compiled with 'register' attribute\n");
40000364:	25c78513          	addi	a0,a5,604 # 4000d25c <__clzsi2+0x2d4>
40000368:	25c010ef          	jal	ra,400015c4 <printf>
4000036c:	4000d537          	lui	a0,0x4000d
40000370:	0c800593          	li	a1,200
    printf ("\n");
40000374:	0dc50513          	addi	a0,a0,220 # 4000d0dc <__clzsi2+0x154>
40000378:	24c010ef          	jal	ra,400015c4 <printf>
4000037c:	14d000ef          	jal	ra,40000cc8 <clock>
40000380:	4000e7b7          	lui	a5,0x4000e
  printf ("Please give the number of runs through the benchmark: ");
40000384:	5aa7a023          	sw	a0,1440(a5) # 4000e5a0 <Begin_Time>
40000388:	400117b7          	lui	a5,0x40011
4000038c:	ce878793          	addi	a5,a5,-792 # 40010ce8 <Arr_1_Glob>
40000390:	00f12623          	sw	a5,12(sp)
  printf ("\n");
40000394:	322037b7          	lui	a5,0x32203
40000398:	59525cb7          	lui	s9,0x59525
4000039c:	4e4f5c37          	lui	s8,0x4e4f5
400003a0:	52502bb7          	lui	s7,0x52502
  printf ("Execution starts, %d runs through Dhrystone\n", Number_Of_Runs);
400003a4:	41524b37          	lui	s6,0x41524
400003a8:	c4d78793          	addi	a5,a5,-947 # 32202c4d <_heap_size+0x32200c4d>
400003ac:	49525ab7          	lui	s5,0x49525
400003b0:	00004a37          	lui	s4,0x4
400003b4:	20445db7          	lui	s11,0x20445
  Begin_Time = clock();
400003b8:	00100993          	li	s3,1
400003bc:	4000e4b7          	lui	s1,0x4000e
400003c0:	4000ed37          	lui	s10,0x4000e
400003c4:	844c8c93          	addi	s9,s9,-1980 # 59524844 <end+0x19513a64>
400003c8:	453c0c13          	addi	s8,s8,1107 # 4e4f5453 <end+0xe4e4673>
400003cc:	045b8b93          	addi	s7,s7,69 # 52502045 <end+0x124f1265>
400003d0:	74fb0b13          	addi	s6,s6,1871 # 4152474f <end+0x151396f>
    strcpy (Str_2_Loc, "DHRYSTONE PROGRAM, 2'ND STRING");
400003d4:	00f12223          	sw	a5,4(sp)
400003d8:	453a8a93          	addi	s5,s5,1107 # 49525453 <end+0x9514673>
400003dc:	74ea0a13          	addi	s4,s4,1870 # 474e <_heap_size+0x274e>
400003e0:	e15ff0ef          	jal	ra,400001f4 <Proc_5>
400003e4:	de1ff0ef          	jal	ra,400001c4 <Proc_4>
400003e8:	00412783          	lw	a5,4(sp)
400003ec:	00200413          	li	s0,2
400003f0:	04010593          	addi	a1,sp,64
400003f4:	04f12823          	sw	a5,80(sp)
  for (Run_Index = 1; Run_Index <= Number_Of_Runs; ++Run_Index)
400003f8:	204457b7          	lui	a5,0x20445
400003fc:	e2778793          	addi	a5,a5,-473 # 20444e27 <_heap_size+0x20442e27>
40000400:	04f12a23          	sw	a5,84(sp)
    strcpy (Str_2_Loc, "DHRYSTONE PROGRAM, 2'ND STRING");
40000404:	02010513          	addi	a0,sp,32
40000408:	00100793          	li	a5,1
4000040c:	00f12e23          	sw	a5,28(sp)
40000410:	00812a23          	sw	s0,20(sp)
40000414:	05912023          	sw	s9,64(sp)
40000418:	05812223          	sw	s8,68(sp)
4000041c:	05712423          	sw	s7,72(sp)
    Proc_5();
40000420:	05612623          	sw	s6,76(sp)
40000424:	05512c23          	sw	s5,88(sp)
    Proc_4();
40000428:	05411e23          	sh	s4,92(sp)
4000042c:	04010f23          	sb	zero,94(sp)
    strcpy (Str_2_Loc, "DHRYSTONE PROGRAM, 2'ND STRING");
40000430:	684000ef          	jal	ra,40000ab4 <Func_2>
    Int_1_Loc = 2;
40000434:	01412603          	lw	a2,20(sp)
    Bool_Glob = ! Func_2 (Str_1_Loc, Str_2_Loc);
40000438:	00153513          	seqz	a0,a0
    strcpy (Str_2_Loc, "DHRYSTONE PROGRAM, 2'ND STRING");
4000043c:	4000e7b7          	lui	a5,0x4000e
40000440:	5aa7a623          	sw	a0,1452(a5) # 4000e5ac <Bool_Glob>
40000444:	02c44c63          	blt	s0,a2,4000047c <main2+0x270>
40000448:	00300913          	li	s2,3
    Bool_Glob = ! Func_2 (Str_1_Loc, Str_2_Loc);
4000044c:	00261793          	slli	a5,a2,0x2
    Enum_Loc = Ident_2;
40000450:	00c787b3          	add	a5,a5,a2
40000454:	ffd78793          	addi	a5,a5,-3
    Int_1_Loc = 2;
40000458:	00060513          	mv	a0,a2
    strcpy (Str_2_Loc, "DHRYSTONE PROGRAM, 2'ND STRING");
4000045c:	00090593          	mv	a1,s2
40000460:	01810613          	addi	a2,sp,24
40000464:	00f12c23          	sw	a5,24(sp)
40000468:	574000ef          	jal	ra,400009dc <Proc_7>
4000046c:	01412603          	lw	a2,20(sp)
40000470:	00160613          	addi	a2,a2,1
40000474:	00c12a23          	sw	a2,20(sp)
    Bool_Glob = ! Func_2 (Str_1_Loc, Str_2_Loc);
40000478:	fcc45ae3          	ble	a2,s0,4000044c <main2+0x240>
4000047c:	01812683          	lw	a3,24(sp)
    while (Int_1_Loc < Int_2_Loc)  /* loop body executed once */
40000480:	00c12503          	lw	a0,12(sp)
    Bool_Glob = ! Func_2 (Str_1_Loc, Str_2_Loc);
40000484:	4000e7b7          	lui	a5,0x4000e
40000488:	5d878593          	addi	a1,a5,1496 # 4000e5d8 <Arr_2_Glob>
4000048c:	560000ef          	jal	ra,400009ec <Proc_8>
    while (Int_1_Loc < Int_2_Loc)  /* loop body executed once */
40000490:	4000e7b7          	lui	a5,0x4000e
      Proc_7 (Int_1_Loc, Int_2_Loc, &Int_3_Loc);
40000494:	5b87a503          	lw	a0,1464(a5) # 4000e5b8 <Ptr_Glob>
      Int_3_Loc = 5 * Int_1_Loc - Int_2_Loc;
40000498:	00300413          	li	s0,3
4000049c:	bc1ff0ef          	jal	ra,4000005c <Proc_1>
400004a0:	5a84c703          	lbu	a4,1448(s1) # 4000e5a8 <Ch_2_Glob>
      Proc_7 (Int_1_Loc, Int_2_Loc, &Int_3_Loc);
400004a4:	04000793          	li	a5,64
400004a8:	08e7f263          	bleu	a4,a5,4000052c <main2+0x320>
400004ac:	04100913          	li	s2,65
      Int_3_Loc = 5 * Int_1_Loc - Int_2_Loc;
400004b0:	0140006f          	j	400004c4 <main2+0x2b8>
      Proc_7 (Int_1_Loc, Int_2_Loc, &Int_3_Loc);
400004b4:	5a84c783          	lbu	a5,1448(s1)
400004b8:	00190913          	addi	s2,s2,1
      Int_1_Loc += 1;
400004bc:	0ff97913          	andi	s2,s2,255
400004c0:	0727e663          	bltu	a5,s2,4000052c <main2+0x320>
400004c4:	04300593          	li	a1,67
    while (Int_1_Loc < Int_2_Loc)  /* loop body executed once */
400004c8:	00090513          	mv	a0,s2
    Proc_8 (Arr_1_Glob, Arr_2_Glob, Int_1_Loc, Int_3_Loc);
400004cc:	5c4000ef          	jal	ra,40000a90 <Func_1>
400004d0:	01c12783          	lw	a5,28(sp)
400004d4:	fef510e3          	bne	a0,a5,400004b4 <main2+0x2a8>
400004d8:	01c10593          	addi	a1,sp,28
400004dc:	00000513          	li	a0,0
400004e0:	654000ef          	jal	ra,40000b34 <Proc_6>
    Proc_1 (Ptr_Glob);
400004e4:	332037b7          	lui	a5,0x33203
400004e8:	c4d78793          	addi	a5,a5,-947 # 33202c4d <_heap_size+0x33200c4d>
    Int_2_Loc = 3;
400004ec:	04f12823          	sw	a5,80(sp)
    Proc_1 (Ptr_Glob);
400004f0:	5a84c783          	lbu	a5,1448(s1)
400004f4:	227d8713          	addi	a4,s11,551 # 20445227 <_heap_size+0x20443227>
    for (Ch_Index = 'A'; Ch_Index <= Ch_2_Glob; ++Ch_Index)
400004f8:	00190913          	addi	s2,s2,1
400004fc:	05912023          	sw	s9,64(sp)
40000500:	05812223          	sw	s8,68(sp)
40000504:	05712423          	sw	s7,72(sp)
40000508:	05612623          	sw	s6,76(sp)
4000050c:	04e12a23          	sw	a4,84(sp)
40000510:	05512c23          	sw	s5,88(sp)
40000514:	05411e23          	sh	s4,92(sp)
40000518:	04010f23          	sb	zero,94(sp)
      if (Enum_Loc == Func_1 (Ch_Index, 'C'))
4000051c:	5b3d2823          	sw	s3,1456(s10) # 4000e5b0 <Int_Glob>
40000520:	0ff97913          	andi	s2,s2,255
40000524:	00098413          	mv	s0,s3
40000528:	f927fee3          	bleu	s2,a5,400004c4 <main2+0x2b8>
4000052c:	01412583          	lw	a1,20(sp)
40000530:	00040513          	mv	a0,s0
        Proc_6 (Ident_1, &Enum_Loc);
40000534:	00198993          	addi	s3,s3,1
40000538:	1790c0ef          	jal	ra,4000ceb0 <__mulsi3>
4000053c:	01812903          	lw	s2,24(sp)
40000540:	00a12423          	sw	a0,8(sp)
        strcpy (Str_2_Loc, "DHRYSTONE PROGRAM, 3'RD STRING");
40000544:	00090593          	mv	a1,s2
40000548:	18d0c0ef          	jal	ra,4000ced4 <__divsi3>
4000054c:	00050413          	mv	s0,a0
    for (Ch_Index = 'A'; Ch_Index <= Ch_2_Glob; ++Ch_Index)
40000550:	01410513          	addi	a0,sp,20
        strcpy (Str_2_Loc, "DHRYSTONE PROGRAM, 3'RD STRING");
40000554:	00812a23          	sw	s0,20(sp)
    for (Ch_Index = 'A'; Ch_Index <= Ch_2_Glob; ++Ch_Index)
40000558:	aa9ff0ef          	jal	ra,40000000 <Proc_2>
        strcpy (Str_2_Loc, "DHRYSTONE PROGRAM, 3'RD STRING");
4000055c:	0c900793          	li	a5,201
40000560:	e8f990e3          	bne	s3,a5,400003e0 <main2+0x1d4>
40000564:	764000ef          	jal	ra,40000cc8 <clock>
40000568:	4000ecb7          	lui	s9,0x4000e
4000056c:	58acae23          	sw	a0,1436(s9) # 4000e59c <End_Time>
40000570:	4000d537          	lui	a0,0x4000d
40000574:	10c50513          	addi	a0,a0,268 # 4000d10c <__clzsi2+0x184>
40000578:	04c010ef          	jal	ra,400015c4 <printf>
        Int_Glob = Run_Index;
4000057c:	4000d7b7          	lui	a5,0x4000d
    for (Ch_Index = 'A'; Ch_Index <= Ch_2_Glob; ++Ch_Index)
40000580:	25c78513          	addi	a0,a5,604 # 4000d25c <__clzsi2+0x2d4>
        Int_Glob = Run_Index;
40000584:	040010ef          	jal	ra,400015c4 <printf>
    for (Ch_Index = 'A'; Ch_Index <= Ch_2_Glob; ++Ch_Index)
40000588:	4000d537          	lui	a0,0x4000d
    Int_2_Loc = Int_2_Loc * Int_1_Loc;
4000058c:	11c50513          	addi	a0,a0,284 # 4000d11c <__clzsi2+0x194>
40000590:	034010ef          	jal	ra,400015c4 <printf>
  for (Run_Index = 1; Run_Index <= Number_Of_Runs; ++Run_Index)
40000594:	4000d7b7          	lui	a5,0x4000d
    Int_2_Loc = Int_2_Loc * Int_1_Loc;
40000598:	25c78513          	addi	a0,a5,604 # 4000d25c <__clzsi2+0x2d4>
4000059c:	028010ef          	jal	ra,400015c4 <printf>
    Int_1_Loc = Int_2_Loc / Int_3_Loc;
400005a0:	5b0d2583          	lw	a1,1456(s10)
    Int_2_Loc = Int_2_Loc * Int_1_Loc;
400005a4:	4000d537          	lui	a0,0x4000d
    Int_1_Loc = Int_2_Loc / Int_3_Loc;
400005a8:	15450513          	addi	a0,a0,340 # 4000d154 <__clzsi2+0x1cc>
400005ac:	4000d9b7          	lui	s3,0x4000d
400005b0:	014010ef          	jal	ra,400015c4 <printf>
400005b4:	00500593          	li	a1,5
    Proc_2 (&Int_1_Loc);
400005b8:	17098513          	addi	a0,s3,368 # 4000d170 <__clzsi2+0x1e8>
    Int_1_Loc = Int_2_Loc / Int_3_Loc;
400005bc:	008010ef          	jal	ra,400015c4 <printf>
    Proc_2 (&Int_1_Loc);
400005c0:	4000e7b7          	lui	a5,0x4000e
400005c4:	5ac7a583          	lw	a1,1452(a5) # 4000e5ac <Bool_Glob>
  for (Run_Index = 1; Run_Index <= Number_Of_Runs; ++Run_Index)
400005c8:	4000d537          	lui	a0,0x4000d
400005cc:	18c50513          	addi	a0,a0,396 # 4000d18c <__clzsi2+0x204>
  End_Time = clock();
400005d0:	7f5000ef          	jal	ra,400015c4 <printf>
400005d4:	00100593          	li	a1,1
400005d8:	17098513          	addi	a0,s3,368
400005dc:	7e9000ef          	jal	ra,400015c4 <printf>
  printf ("Execution ends\n");
400005e0:	4000e7b7          	lui	a5,0x4000e
400005e4:	5a97c583          	lbu	a1,1449(a5) # 4000e5a9 <Ch_1_Glob>
400005e8:	4000d537          	lui	a0,0x4000d
400005ec:	1a850513          	addi	a0,a0,424 # 4000d1a8 <__clzsi2+0x220>
  printf ("\n");
400005f0:	7d5000ef          	jal	ra,400015c4 <printf>
400005f4:	4000da37          	lui	s4,0x4000d
400005f8:	04100593          	li	a1,65
400005fc:	1c4a0513          	addi	a0,s4,452 # 4000d1c4 <__clzsi2+0x23c>
  printf ("Final values of the variables used in the benchmark:\n");
40000600:	7c5000ef          	jal	ra,400015c4 <printf>
40000604:	5a84c583          	lbu	a1,1448(s1)
40000608:	4000d537          	lui	a0,0x4000d
4000060c:	1e050513          	addi	a0,a0,480 # 4000d1e0 <__clzsi2+0x258>
  printf ("\n");
40000610:	7b5000ef          	jal	ra,400015c4 <printf>
40000614:	04200593          	li	a1,66
40000618:	1c4a0513          	addi	a0,s4,452
4000061c:	7a9000ef          	jal	ra,400015c4 <printf>
  printf ("Int_Glob:            %d\n", Int_Glob);
40000620:	400107b7          	lui	a5,0x40010
40000624:	5d878793          	addi	a5,a5,1496 # 400105d8 <Arr_2_Glob+0x2000>
40000628:	7307a583          	lw	a1,1840(a5)
  printf ("        should be:   %d\n", 5);
4000062c:	4000d537          	lui	a0,0x4000d
  printf ("Int_Glob:            %d\n", Int_Glob);
40000630:	1fc50513          	addi	a0,a0,508 # 4000d1fc <__clzsi2+0x274>
40000634:	791000ef          	jal	ra,400015c4 <printf>
  printf ("        should be:   %d\n", 5);
40000638:	00700593          	li	a1,7
4000063c:	17098513          	addi	a0,s3,368
40000640:	785000ef          	jal	ra,400015c4 <printf>
40000644:	4000e7b7          	lui	a5,0x4000e
  printf ("Bool_Glob:           %d\n", Bool_Glob);
40000648:	5d878793          	addi	a5,a5,1496 # 4000e5d8 <Arr_2_Glob>
4000064c:	65c7a583          	lw	a1,1628(a5)
40000650:	4000d537          	lui	a0,0x4000d
40000654:	21850513          	addi	a0,a0,536 # 4000d218 <__clzsi2+0x290>
40000658:	76d000ef          	jal	ra,400015c4 <printf>
4000065c:	4000d537          	lui	a0,0x4000d
  printf ("        should be:   %d\n", 1);
40000660:	23450513          	addi	a0,a0,564 # 4000d234 <__clzsi2+0x2ac>
40000664:	761000ef          	jal	ra,400015c4 <printf>
40000668:	4000d537          	lui	a0,0x4000d
4000066c:	26050513          	addi	a0,a0,608 # 4000d260 <__clzsi2+0x2d8>
  printf ("Ch_1_Glob:           %c\n", Ch_1_Glob);
40000670:	755000ef          	jal	ra,400015c4 <printf>
40000674:	4000e7b7          	lui	a5,0x4000e
40000678:	5b87a783          	lw	a5,1464(a5) # 4000e5b8 <Ptr_Glob>
4000067c:	4000dd37          	lui	s10,0x4000d
40000680:	26cd0513          	addi	a0,s10,620 # 4000d26c <__clzsi2+0x2e4>
40000684:	0007a583          	lw	a1,0(a5)
  printf ("        should be:   %c\n", 'A');
40000688:	4000dbb7          	lui	s7,0x4000d
4000068c:	4000db37          	lui	s6,0x4000d
40000690:	735000ef          	jal	ra,400015c4 <printf>
40000694:	4000d537          	lui	a0,0x4000d
40000698:	28850513          	addi	a0,a0,648 # 4000d288 <__clzsi2+0x300>
  printf ("Ch_2_Glob:           %c\n", Ch_2_Glob);
4000069c:	729000ef          	jal	ra,400015c4 <printf>
400006a0:	4000e7b7          	lui	a5,0x4000e
400006a4:	5b87a783          	lw	a5,1464(a5) # 4000e5b8 <Ptr_Glob>
400006a8:	2bcb8513          	addi	a0,s7,700 # 4000d2bc <__clzsi2+0x334>
400006ac:	4000dab7          	lui	s5,0x4000d
  printf ("        should be:   %c\n", 'B');
400006b0:	0047a583          	lw	a1,4(a5)
400006b4:	4000da37          	lui	s4,0x4000d
400006b8:	4000d4b7          	lui	s1,0x4000d
400006bc:	709000ef          	jal	ra,400015c4 <printf>
  printf ("Arr_1_Glob[8]:       %d\n", Arr_1_Glob[8]);
400006c0:	00000593          	li	a1,0
400006c4:	17098513          	addi	a0,s3,368
400006c8:	6fd000ef          	jal	ra,400015c4 <printf>
400006cc:	4000e7b7          	lui	a5,0x4000e
400006d0:	5b87a783          	lw	a5,1464(a5) # 4000e5b8 <Ptr_Glob>
400006d4:	2d8b0513          	addi	a0,s6,728 # 4000d2d8 <__clzsi2+0x350>
400006d8:	4000ec37          	lui	s8,0x4000e
  printf ("        should be:   %d\n", 7);
400006dc:	0087a583          	lw	a1,8(a5)
400006e0:	6e5000ef          	jal	ra,400015c4 <printf>
400006e4:	00200593          	li	a1,2
400006e8:	17098513          	addi	a0,s3,368
  printf ("Arr_2_Glob[8][7]:    %d\n", Arr_2_Glob[8][7]);
400006ec:	6d9000ef          	jal	ra,400015c4 <printf>
400006f0:	4000e7b7          	lui	a5,0x4000e
400006f4:	5b87a783          	lw	a5,1464(a5) # 4000e5b8 <Ptr_Glob>
400006f8:	2f4a8513          	addi	a0,s5,756 # 4000d2f4 <__clzsi2+0x36c>
400006fc:	00c7a583          	lw	a1,12(a5)
40000700:	6c5000ef          	jal	ra,400015c4 <printf>
40000704:	01100593          	li	a1,17
  printf ("        should be:   Number_Of_Runs + 10\n");
40000708:	17098513          	addi	a0,s3,368
4000070c:	6b9000ef          	jal	ra,400015c4 <printf>
40000710:	4000e7b7          	lui	a5,0x4000e
40000714:	5b87a583          	lw	a1,1464(a5) # 4000e5b8 <Ptr_Glob>
  printf ("Ptr_Glob->\n");
40000718:	310a0513          	addi	a0,s4,784 # 4000d310 <__clzsi2+0x388>
4000071c:	01058593          	addi	a1,a1,16
40000720:	6a5000ef          	jal	ra,400015c4 <printf>
40000724:	32c48513          	addi	a0,s1,812 # 4000d32c <__clzsi2+0x3a4>
  printf ("  Ptr_Comp:          %d\n", (int) Ptr_Glob->Ptr_Comp);
40000728:	69d000ef          	jal	ra,400015c4 <printf>
4000072c:	4000d537          	lui	a0,0x4000d
40000730:	36450513          	addi	a0,a0,868 # 4000d364 <__clzsi2+0x3dc>
40000734:	691000ef          	jal	ra,400015c4 <printf>
40000738:	4000e7b7          	lui	a5,0x4000e
  printf ("  Discr:             %d\n", Ptr_Glob->Discr);
4000073c:	5b47a783          	lw	a5,1460(a5) # 4000e5b4 <Next_Ptr_Glob>
  printf ("  Enum_Comp:         %d\n", Ptr_Glob->variant.var_1.Enum_Comp);
40000740:	26cd0513          	addi	a0,s10,620
  printf ("  Ptr_Comp:          %d\n", (int) Ptr_Glob->Ptr_Comp);
40000744:	0007a583          	lw	a1,0(a5)
40000748:	67d000ef          	jal	ra,400015c4 <printf>
  printf ("        should be:   (implementation-dependent)\n");
4000074c:	4000d537          	lui	a0,0x4000d
40000750:	37850513          	addi	a0,a0,888 # 4000d378 <__clzsi2+0x3f0>
40000754:	671000ef          	jal	ra,400015c4 <printf>
40000758:	4000e7b7          	lui	a5,0x4000e
  printf ("  Discr:             %d\n", Ptr_Glob->Discr);
4000075c:	5b47a783          	lw	a5,1460(a5) # 4000e5b4 <Next_Ptr_Glob>
40000760:	2bcb8513          	addi	a0,s7,700
40000764:	0047a583          	lw	a1,4(a5)
  printf ("  Int_Comp:          %d\n", Ptr_Glob->variant.var_1.Int_Comp);
40000768:	65d000ef          	jal	ra,400015c4 <printf>
  printf ("  Discr:             %d\n", Ptr_Glob->Discr);
4000076c:	00000593          	li	a1,0
  printf ("  Str_Comp:          %s\n", Ptr_Glob->variant.var_1.Str_Comp);
40000770:	17098513          	addi	a0,s3,368
  printf ("        should be:   DHRYSTONE PROGRAM, SOME STRING\n");
40000774:	651000ef          	jal	ra,400015c4 <printf>
  printf ("  Discr:             %d\n", Ptr_Glob->Discr);
40000778:	4000e7b7          	lui	a5,0x4000e
4000077c:	5b47a783          	lw	a5,1460(a5) # 4000e5b4 <Next_Ptr_Glob>
  printf ("        should be:   %d\n", 0);
40000780:	2d8b0513          	addi	a0,s6,728
40000784:	0087a583          	lw	a1,8(a5)
40000788:	63d000ef          	jal	ra,400015c4 <printf>
4000078c:	00100593          	li	a1,1
  printf ("  Enum_Comp:         %d\n", Ptr_Glob->variant.var_1.Enum_Comp);
40000790:	17098513          	addi	a0,s3,368
40000794:	631000ef          	jal	ra,400015c4 <printf>
40000798:	4000e7b7          	lui	a5,0x4000e
  User_Time = End_Time - Begin_Time;
4000079c:	5b47a783          	lw	a5,1460(a5) # 4000e5b4 <Next_Ptr_Glob>
  printf ("  Enum_Comp:         %d\n", Ptr_Glob->variant.var_1.Enum_Comp);
400007a0:	2f4a8513          	addi	a0,s5,756
400007a4:	00c7a583          	lw	a1,12(a5)
400007a8:	61d000ef          	jal	ra,400015c4 <printf>
  printf ("        should be:   %d\n", 2);
400007ac:	01200593          	li	a1,18
400007b0:	17098513          	addi	a0,s3,368
400007b4:	611000ef          	jal	ra,400015c4 <printf>
400007b8:	4000e7b7          	lui	a5,0x4000e
  printf ("  Int_Comp:          %d\n", Ptr_Glob->variant.var_1.Int_Comp);
400007bc:	5b47a583          	lw	a1,1460(a5) # 4000e5b4 <Next_Ptr_Glob>
400007c0:	310a0513          	addi	a0,s4,784
400007c4:	01058593          	addi	a1,a1,16
400007c8:	5fd000ef          	jal	ra,400015c4 <printf>
400007cc:	32c48513          	addi	a0,s1,812
400007d0:	5f5000ef          	jal	ra,400015c4 <printf>
  printf ("        should be:   %d\n", 17);
400007d4:	01412583          	lw	a1,20(sp)
400007d8:	4000d537          	lui	a0,0x4000d
400007dc:	3b850513          	addi	a0,a0,952 # 4000d3b8 <__clzsi2+0x430>
400007e0:	5e5000ef          	jal	ra,400015c4 <printf>
  printf ("  Str_Comp:          %s\n", Ptr_Glob->variant.var_1.Str_Comp);
400007e4:	00500593          	li	a1,5
400007e8:	17098513          	addi	a0,s3,368
400007ec:	5d9000ef          	jal	ra,400015c4 <printf>
400007f0:	00812783          	lw	a5,8(sp)
400007f4:	4000d537          	lui	a0,0x4000d
400007f8:	3d450513          	addi	a0,a0,980 # 4000d3d4 <__clzsi2+0x44c>
  printf ("        should be:   DHRYSTONE PROGRAM, SOME STRING\n");
400007fc:	41278933          	sub	s2,a5,s2
40000800:	00391793          	slli	a5,s2,0x3
40000804:	41278933          	sub	s2,a5,s2
  printf ("Next_Ptr_Glob->\n");
40000808:	408905b3          	sub	a1,s2,s0
4000080c:	5b9000ef          	jal	ra,400015c4 <printf>
40000810:	00d00593          	li	a1,13
40000814:	17098513          	addi	a0,s3,368
  printf ("  Ptr_Comp:          %d\n", (int) Next_Ptr_Glob->Ptr_Comp);
40000818:	5ad000ef          	jal	ra,400015c4 <printf>
4000081c:	01812583          	lw	a1,24(sp)
40000820:	4000d537          	lui	a0,0x4000d
40000824:	3f050513          	addi	a0,a0,1008 # 4000d3f0 <__clzsi2+0x468>
40000828:	59d000ef          	jal	ra,400015c4 <printf>
4000082c:	00700593          	li	a1,7
  printf ("        should be:   (implementation-dependent), same as above\n");
40000830:	17098513          	addi	a0,s3,368
40000834:	591000ef          	jal	ra,400015c4 <printf>
40000838:	01c12583          	lw	a1,28(sp)
4000083c:	4000d537          	lui	a0,0x4000d
  printf ("  Discr:             %d\n", Next_Ptr_Glob->Discr);
40000840:	40c50513          	addi	a0,a0,1036 # 4000d40c <__clzsi2+0x484>
40000844:	581000ef          	jal	ra,400015c4 <printf>
40000848:	00100593          	li	a1,1
4000084c:	17098513          	addi	a0,s3,368
40000850:	575000ef          	jal	ra,400015c4 <printf>
40000854:	4000d537          	lui	a0,0x4000d
  printf ("        should be:   %d\n", 0);
40000858:	02010593          	addi	a1,sp,32
4000085c:	42850513          	addi	a0,a0,1064 # 4000d428 <__clzsi2+0x4a0>
40000860:	565000ef          	jal	ra,400015c4 <printf>
40000864:	4000d537          	lui	a0,0x4000d
  printf ("  Enum_Comp:         %d\n", Next_Ptr_Glob->variant.var_1.Enum_Comp);
40000868:	44450513          	addi	a0,a0,1092 # 4000d444 <__clzsi2+0x4bc>
4000086c:	559000ef          	jal	ra,400015c4 <printf>
40000870:	4000d537          	lui	a0,0x4000d
40000874:	04010593          	addi	a1,sp,64
40000878:	47c50513          	addi	a0,a0,1148 # 4000d47c <__clzsi2+0x4f4>
4000087c:	549000ef          	jal	ra,400015c4 <printf>
  printf ("        should be:   %d\n", 1);
40000880:	4000d537          	lui	a0,0x4000d
40000884:	49850513          	addi	a0,a0,1176 # 4000d498 <__clzsi2+0x510>
40000888:	53d000ef          	jal	ra,400015c4 <printf>
4000088c:	4000d7b7          	lui	a5,0x4000d
  printf ("  Int_Comp:          %d\n", Next_Ptr_Glob->variant.var_1.Int_Comp);
40000890:	25c78513          	addi	a0,a5,604 # 4000d25c <__clzsi2+0x2d4>
40000894:	531000ef          	jal	ra,400015c4 <printf>
40000898:	4000e7b7          	lui	a5,0x4000e
4000089c:	5a07a703          	lw	a4,1440(a5) # 4000e5a0 <Begin_Time>
400008a0:	59cca583          	lw	a1,1436(s9)
400008a4:	1f300793          	li	a5,499
  printf ("        should be:   %d\n", 18);
400008a8:	40e585b3          	sub	a1,a1,a4
400008ac:	58bc2c23          	sw	a1,1432(s8) # 4000e598 <User_Time>
400008b0:	10b7d263          	ble	a1,a5,400009b4 <main2+0x7a8>
400008b4:	4000d537          	lui	a0,0x4000d
                                Next_Ptr_Glob->variant.var_1.Str_Comp);
400008b8:	52850513          	addi	a0,a0,1320 # 4000d528 <__clzsi2+0x5a0>
400008bc:	509000ef          	jal	ra,400015c4 <printf>
  printf ("  Str_Comp:          %s\n",
400008c0:	598c2503          	lw	a0,1432(s8)
400008c4:	4000e937          	lui	s2,0x4000e
400008c8:	4000e4b7          	lui	s1,0x4000e
400008cc:	3ec090ef          	jal	ra,40009cb8 <__floatsisf>
  printf ("        should be:   DHRYSTONE PROGRAM, SOME STRING\n");
400008d0:	00050993          	mv	s3,a0
400008d4:	6b10b0ef          	jal	ra,4000c784 <__extendsfdf2>
400008d8:	4000e7b7          	lui	a5,0x4000e
  printf ("Int_1_Loc:           %d\n", Int_1_Loc);
400008dc:	c387a603          	lw	a2,-968(a5) # 4000dc38 <__clz_tab+0x104>
400008e0:	c3c7a683          	lw	a3,-964(a5)
400008e4:	4000d437          	lui	s0,0x4000d
400008e8:	2790a0ef          	jal	ra,4000b360 <__muldf3>
400008ec:	7cd0b0ef          	jal	ra,4000c8b8 <__truncdfsf2>
  printf ("        should be:   %d\n", 5);
400008f0:	4000e7b7          	lui	a5,0x4000e
400008f4:	58a92a23          	sw	a0,1428(s2) # 4000e594 <Microseconds>
400008f8:	c347a503          	lw	a0,-972(a5) # 4000dc34 <__clz_tab+0x100>
400008fc:	00098593          	mv	a1,s3
    Int_2_Loc = 7 * (Int_2_Loc - Int_3_Loc) - Int_1_Loc;
40000900:	6d9080ef          	jal	ra,400097d8 <__divsf3>
  printf ("Int_2_Loc:           %d\n", Int_2_Loc);
40000904:	58a4a823          	sw	a0,1424(s1) # 4000e590 <_edata>
40000908:	4000d537          	lui	a0,0x4000d
    Int_2_Loc = 7 * (Int_2_Loc - Int_3_Loc) - Int_1_Loc;
4000090c:	53850513          	addi	a0,a0,1336 # 4000d538 <__clzsi2+0x5b0>
40000910:	4b5000ef          	jal	ra,400015c4 <printf>
40000914:	59492503          	lw	a0,1428(s2)
  printf ("Int_2_Loc:           %d\n", Int_2_Loc);
40000918:	66d0b0ef          	jal	ra,4000c784 <__extendsfdf2>
4000091c:	00050613          	mv	a2,a0
40000920:	00058693          	mv	a3,a1
  printf ("        should be:   %d\n", 13);
40000924:	56840513          	addi	a0,s0,1384 # 4000d568 <__clzsi2+0x5e0>
40000928:	49d000ef          	jal	ra,400015c4 <printf>
4000092c:	4000d537          	lui	a0,0x4000d
40000930:	57050513          	addi	a0,a0,1392 # 4000d570 <__clzsi2+0x5e8>
  printf ("Int_3_Loc:           %d\n", Int_3_Loc);
40000934:	491000ef          	jal	ra,400015c4 <printf>
40000938:	5904a503          	lw	a0,1424(s1)
4000093c:	6490b0ef          	jal	ra,4000c784 <__extendsfdf2>
40000940:	00050613          	mv	a2,a0
40000944:	00058693          	mv	a3,a1
  printf ("        should be:   %d\n", 7);
40000948:	56840513          	addi	a0,s0,1384
4000094c:	479000ef          	jal	ra,400015c4 <printf>
40000950:	4000d7b7          	lui	a5,0x4000d
40000954:	25c78513          	addi	a0,a5,604 # 4000d25c <__clzsi2+0x2d4>
  printf ("Enum_Loc:            %d\n", Enum_Loc);
40000958:	46d000ef          	jal	ra,400015c4 <printf>
4000095c:	09c12083          	lw	ra,156(sp)
40000960:	09812403          	lw	s0,152(sp)
40000964:	09412483          	lw	s1,148(sp)
40000968:	09012903          	lw	s2,144(sp)
  printf ("        should be:   %d\n", 1);
4000096c:	08c12983          	lw	s3,140(sp)
40000970:	08812a03          	lw	s4,136(sp)
40000974:	08412a83          	lw	s5,132(sp)
40000978:	08012b03          	lw	s6,128(sp)
  printf ("Str_1_Loc:           %s\n", Str_1_Loc);
4000097c:	07c12b83          	lw	s7,124(sp)
40000980:	07812c03          	lw	s8,120(sp)
40000984:	07412c83          	lw	s9,116(sp)
40000988:	07012d03          	lw	s10,112(sp)
4000098c:	06c12d83          	lw	s11,108(sp)
  printf ("        should be:   DHRYSTONE PROGRAM, 1'ST STRING\n");
40000990:	0a010113          	addi	sp,sp,160
40000994:	00008067          	ret
40000998:	4000d537          	lui	a0,0x4000d
4000099c:	07450513          	addi	a0,a0,116 # 4000d074 <__clzsi2+0xec>
  printf ("Str_2_Loc:           %s\n", Str_2_Loc);
400009a0:	425000ef          	jal	ra,400015c4 <printf>
400009a4:	4000d7b7          	lui	a5,0x4000d
400009a8:	25c78513          	addi	a0,a5,604 # 4000d25c <__clzsi2+0x2d4>
400009ac:	419000ef          	jal	ra,400015c4 <printf>
400009b0:	9a5ff06f          	j	40000354 <main2+0x148>
  printf ("        should be:   DHRYSTONE PROGRAM, 2'ND STRING\n");
400009b4:	4000d537          	lui	a0,0x4000d
400009b8:	4d050513          	addi	a0,a0,1232 # 4000d4d0 <__clzsi2+0x548>
400009bc:	409000ef          	jal	ra,400015c4 <printf>
400009c0:	4000d537          	lui	a0,0x4000d
  printf ("\n");
400009c4:	50850513          	addi	a0,a0,1288 # 4000d508 <__clzsi2+0x580>
400009c8:	3fd000ef          	jal	ra,400015c4 <printf>
400009cc:	4000d7b7          	lui	a5,0x4000d
400009d0:	25c78513          	addi	a0,a5,604 # 4000d25c <__clzsi2+0x2d4>
  User_Time = End_Time - Begin_Time;
400009d4:	3f1000ef          	jal	ra,400015c4 <printf>
400009d8:	f85ff06f          	j	4000095c <main2+0x750>

400009dc <Proc_7>:
One_Fifty       Int_2_Par_Val;
One_Fifty      *Int_Par_Ref;
{
  One_Fifty Int_Loc;

  Int_Loc = Int_1_Par_Val + 2;
400009dc:	00250513          	addi	a0,a0,2
  *Int_Par_Ref = Int_2_Par_Val + Int_Loc;
400009e0:	00b505b3          	add	a1,a0,a1
400009e4:	00b62023          	sw	a1,0(a2)
} /* Proc_7 */
400009e8:	00008067          	ret

400009ec <Proc_8>:
    /* Int_Par_Val_2 == 7 */
Arr_1_Dim       Arr_1_Par_Ref;
Arr_2_Dim       Arr_2_Par_Ref;
int             Int_1_Par_Val;
int             Int_2_Par_Val;
{
400009ec:	fe010113          	addi	sp,sp,-32
400009f0:	01312623          	sw	s3,12(sp)
  REG One_Fifty Int_Index;
  REG One_Fifty Int_Loc;

  Int_Loc = Int_1_Par_Val + 5;
400009f4:	00560993          	addi	s3,a2,5
{
400009f8:	00912a23          	sw	s1,20(sp)
  Arr_1_Par_Ref [Int_Loc] = Int_2_Par_Val;
400009fc:	00299493          	slli	s1,s3,0x2
{
40000a00:	00112e23          	sw	ra,28(sp)
40000a04:	00812c23          	sw	s0,24(sp)
40000a08:	01212823          	sw	s2,16(sp)
  Arr_1_Par_Ref [Int_Loc] = Int_2_Par_Val;
40000a0c:	009504b3          	add	s1,a0,s1
{
40000a10:	00058413          	mv	s0,a1
  Arr_1_Par_Ref [Int_Loc+1] = Arr_1_Par_Ref [Int_Loc];
  Arr_1_Par_Ref [Int_Loc+30] = Int_Loc;
40000a14:	0734ac23          	sw	s3,120(s1)
{
40000a18:	00060913          	mv	s2,a2
  Arr_1_Par_Ref [Int_Loc] = Int_2_Par_Val;
40000a1c:	00d4a023          	sw	a3,0(s1)
  Arr_1_Par_Ref [Int_Loc+1] = Arr_1_Par_Ref [Int_Loc];
40000a20:	00d4a223          	sw	a3,4(s1)
40000a24:	00098513          	mv	a0,s3
40000a28:	0c800593          	li	a1,200
40000a2c:	4840c0ef          	jal	ra,4000ceb0 <__mulsi3>
40000a30:	00291913          	slli	s2,s2,0x2
40000a34:	012507b3          	add	a5,a0,s2
40000a38:	00f407b3          	add	a5,s0,a5
40000a3c:	0107a703          	lw	a4,16(a5)
  for (Int_Index = Int_Loc; Int_Index <= Int_Loc+1; ++Int_Index)
    Arr_2_Par_Ref [Int_Loc] [Int_Index] = Int_Loc;
  Arr_2_Par_Ref [Int_Loc] [Int_Loc-1] += 1;
40000a40:	0137aa23          	sw	s3,20(a5)
    Arr_2_Par_Ref [Int_Loc] [Int_Index] = Int_Loc;
40000a44:	0137ac23          	sw	s3,24(a5)
40000a48:	00170713          	addi	a4,a4,1
  Arr_2_Par_Ref [Int_Loc] [Int_Loc-1] += 1;
40000a4c:	00e7a823          	sw	a4,16(a5)
40000a50:	0004a703          	lw	a4,0(s1)
  Arr_2_Par_Ref [Int_Loc+20] [Int_Loc] = Arr_1_Par_Ref [Int_Loc];
40000a54:	00a40433          	add	s0,s0,a0
40000a58:	01240433          	add	s0,s0,s2
40000a5c:	000017b7          	lui	a5,0x1
40000a60:	01c12083          	lw	ra,28(sp)
  Int_Glob = 5;
} /* Proc_8 */
40000a64:	00878433          	add	s0,a5,s0
  Arr_2_Par_Ref [Int_Loc+20] [Int_Loc] = Arr_1_Par_Ref [Int_Loc];
40000a68:	fae42a23          	sw	a4,-76(s0)
40000a6c:	4000e7b7          	lui	a5,0x4000e
  Int_Glob = 5;
40000a70:	00500713          	li	a4,5
40000a74:	01812403          	lw	s0,24(sp)
} /* Proc_8 */
40000a78:	01412483          	lw	s1,20(sp)
40000a7c:	01012903          	lw	s2,16(sp)
40000a80:	00c12983          	lw	s3,12(sp)
40000a84:	5ae7a823          	sw	a4,1456(a5) # 4000e5b0 <Int_Glob>
  Int_Glob = 5;
40000a88:	02010113          	addi	sp,sp,32
} /* Proc_8 */
40000a8c:	00008067          	ret

40000a90 <Func_1>:
40000a90:	0ff57513          	andi	a0,a0,255
    /* second call:     Ch_1_Par_Val == 'A', Ch_2_Par_Val == 'C'    */
    /* third call:      Ch_1_Par_Val == 'B', Ch_2_Par_Val == 'C'    */

Capital_Letter   Ch_1_Par_Val;
Capital_Letter   Ch_2_Par_Val;
{
40000a94:	0ff5f593          	andi	a1,a1,255
40000a98:	00b50663          	beq	a0,a1,40000aa4 <Func_1+0x14>
  Capital_Letter        Ch_1_Loc;
  Capital_Letter        Ch_2_Loc;

  Ch_1_Loc = Ch_1_Par_Val;
  Ch_2_Loc = Ch_1_Loc;
  if (Ch_2_Loc != Ch_2_Par_Val)
40000a9c:	00000513          	li	a0,0
    /* then, executed */
    return (Ident_1);
40000aa0:	00008067          	ret
  else  /* not executed */
  {
    Ch_1_Glob = Ch_1_Loc;
    return (Ident_2);
   }
} /* Func_1 */
40000aa4:	4000e7b7          	lui	a5,0x4000e
    Ch_1_Glob = Ch_1_Loc;
40000aa8:	5aa784a3          	sb	a0,1449(a5) # 4000e5a9 <Ch_1_Glob>
40000aac:	00100513          	li	a0,1
    return (Ident_2);
40000ab0:	00008067          	ret

40000ab4 <Func_2>:
40000ab4:	ff010113          	addi	sp,sp,-16
    /* Str_1_Par_Ref == "DHRYSTONE PROGRAM, 1'ST STRING" */
    /* Str_2_Par_Ref == "DHRYSTONE PROGRAM, 2'ND STRING" */

Str_30  Str_1_Par_Ref;
Str_30  Str_2_Par_Ref;
{
40000ab8:	00812423          	sw	s0,8(sp)
40000abc:	00912223          	sw	s1,4(sp)
40000ac0:	00112623          	sw	ra,12(sp)
40000ac4:	00050413          	mv	s0,a0
40000ac8:	00058493          	mv	s1,a1
40000acc:	0034c583          	lbu	a1,3(s1)
  REG One_Thirty        Int_Loc;
      Capital_Letter    Ch_Loc;

  Int_Loc = 2;
  while (Int_Loc <= 2) /* loop body executed once */
    if (Func_1 (Str_1_Par_Ref[Int_Loc],
40000ad0:	00244503          	lbu	a0,2(s0)
40000ad4:	fbdff0ef          	jal	ra,40000a90 <Func_1>
40000ad8:	fe051ae3          	bnez	a0,40000acc <Func_2+0x18>
40000adc:	00048593          	mv	a1,s1
40000ae0:	00040513          	mv	a0,s0
  if (Ch_Loc == 'R')
    /* then, not executed */
    return (true);
  else /* executed */
  {
    if (strcmp (Str_1_Par_Ref, Str_2_Par_Ref) > 0)
40000ae4:	395000ef          	jal	ra,40001678 <strcmp>
40000ae8:	02a05463          	blez	a0,40000b10 <Func_2+0x5c>
40000aec:	00c12083          	lw	ra,12(sp)
40000af0:	00a00713          	li	a4,10
40000af4:	4000e7b7          	lui	a5,0x4000e
      return (true);
    }
    else /* executed */
      return (false);
  } /* if Ch_Loc */
} /* Func_2 */
40000af8:	00100513          	li	a0,1
      Int_Glob = Int_Loc;
40000afc:	00812403          	lw	s0,8(sp)
40000b00:	00412483          	lw	s1,4(sp)
      return (true);
40000b04:	5ae7a823          	sw	a4,1456(a5) # 4000e5b0 <Int_Glob>
} /* Func_2 */
40000b08:	01010113          	addi	sp,sp,16
40000b0c:	00008067          	ret
      Int_Glob = Int_Loc;
40000b10:	00c12083          	lw	ra,12(sp)
} /* Func_2 */
40000b14:	00000513          	li	a0,0
40000b18:	00812403          	lw	s0,8(sp)
40000b1c:	00412483          	lw	s1,4(sp)
      return (false);
40000b20:	01010113          	addi	sp,sp,16
} /* Func_2 */
40000b24:	00008067          	ret

40000b28 <Func_3>:
40000b28:	ffe50513          	addi	a0,a0,-2
40000b2c:	00153513          	seqz	a0,a0
40000b30:	00008067          	ret

40000b34 <Proc_6>:
Enumeration Enum_Par_Val;
{
  Enumeration Enum_Loc;

  Enum_Loc = Enum_Par_Val;
  if (Enum_Loc == Ident_3)
40000b34:	ff010113          	addi	sp,sp,-16
    /* then, executed */
    return (true);
  else /* not executed */
    return (false);
} /* Func_3 */
40000b38:	00812423          	sw	s0,8(sp)
40000b3c:	00912223          	sw	s1,4(sp)
{
40000b40:	00112623          	sw	ra,12(sp)
40000b44:	00050413          	mv	s0,a0
40000b48:	00058493          	mv	s1,a1
40000b4c:	fddff0ef          	jal	ra,40000b28 <Func_3>
40000b50:	02050e63          	beqz	a0,40000b8c <Proc_6+0x58>
40000b54:	0084a023          	sw	s0,0(s1)
  if (! Func_3 (Enum_Val_Par))
40000b58:	00100793          	li	a5,1
40000b5c:	04f40063          	beq	s0,a5,40000b9c <Proc_6+0x68>
40000b60:	04040663          	beqz	s0,40000bac <Proc_6+0x78>
  *Enum_Ref_Par = Enum_Val_Par;
40000b64:	00200713          	li	a4,2
  switch (Enum_Val_Par)
40000b68:	04e40e63          	beq	s0,a4,40000bc4 <Proc_6+0x90>
40000b6c:	00400793          	li	a5,4
40000b70:	00f41463          	bne	s0,a5,40000b78 <Proc_6+0x44>
40000b74:	00e4a023          	sw	a4,0(s1)
40000b78:	00c12083          	lw	ra,12(sp)
40000b7c:	00812403          	lw	s0,8(sp)
40000b80:	00412483          	lw	s1,4(sp)
      *Enum_Ref_Par = Ident_3;
40000b84:	01010113          	addi	sp,sp,16
} /* Proc_6 */
40000b88:	00008067          	ret
40000b8c:	00300793          	li	a5,3
40000b90:	00f4a023          	sw	a5,0(s1)
40000b94:	00100793          	li	a5,1
40000b98:	fcf414e3          	bne	s0,a5,40000b60 <Proc_6+0x2c>
    *Enum_Ref_Par = Ident_4;
40000b9c:	4000e7b7          	lui	a5,0x4000e
40000ba0:	5b07a703          	lw	a4,1456(a5) # 4000e5b0 <Int_Glob>
  switch (Enum_Val_Par)
40000ba4:	06400793          	li	a5,100
40000ba8:	02e7da63          	ble	a4,a5,40000bdc <Proc_6+0xa8>
      if (Int_Glob > 100)
40000bac:	00c12083          	lw	ra,12(sp)
40000bb0:	0004a023          	sw	zero,0(s1)
40000bb4:	00812403          	lw	s0,8(sp)
40000bb8:	00412483          	lw	s1,4(sp)
} /* Proc_6 */
40000bbc:	01010113          	addi	sp,sp,16
      *Enum_Ref_Par = Ident_1;
40000bc0:	00008067          	ret
} /* Proc_6 */
40000bc4:	00c12083          	lw	ra,12(sp)
40000bc8:	00f4a023          	sw	a5,0(s1)
40000bcc:	00812403          	lw	s0,8(sp)
40000bd0:	00412483          	lw	s1,4(sp)
40000bd4:	01010113          	addi	sp,sp,16
      *Enum_Ref_Par = Ident_2;
40000bd8:	00008067          	ret
} /* Proc_6 */
40000bdc:	00c12083          	lw	ra,12(sp)
40000be0:	00300793          	li	a5,3
40000be4:	00f4a023          	sw	a5,0(s1)
40000be8:	00812403          	lw	s0,8(sp)
40000bec:	00412483          	lw	s1,4(sp)
      else *Enum_Ref_Par = Ident_4;
40000bf0:	01010113          	addi	sp,sp,16
40000bf4:	00008067          	ret

40000bf8 <isatty.constprop.0>:
	return 0;
}

int isatty(int fd) {
	return 0;
}
40000bf8:	00000513          	li	a0,0
40000bfc:	00008067          	ret

40000c00 <close>:
40000c00:	ff9ff06f          	j	40000bf8 <isatty.constprop.0>

40000c04 <fstat>:
40000c04:	00000513          	li	a0,0
}
40000c08:	00008067          	ret

40000c0c <isatty>:
40000c0c:	00000513          	li	a0,0
}
40000c10:	00008067          	ret

40000c14 <lseek>:
40000c14:	00000513          	li	a0,0

long lseek(int fd, long offset, int origin) {
	return 0;
}
40000c18:	00008067          	ret

40000c1c <read>:
40000c1c:	00000513          	li	a0,0

int read(int fd, void *buffer, unsigned int count) {
	return 0;
}
40000c20:	00008067          	ret

40000c24 <writeChar>:
40000c24:	f01007b7          	lui	a5,0xf0100

extern UartCtrl *uartStdio;
void writeChar(char value) {
	TEST_COM_BASE[0] = value;
40000c28:	f0a7a023          	sw	a0,-256(a5) # f00fff00 <end+0xb00ef120>
40000c2c:	00008067          	ret

40000c30 <writeChars>:
40000c30:	ff010113          	addi	sp,sp,-16
}

void writeChars(char* value) {
40000c34:	00812423          	sw	s0,8(sp)
40000c38:	00112623          	sw	ra,12(sp)
40000c3c:	00050413          	mv	s0,a0
40000c40:	00054503          	lbu	a0,0(a0)
	while (*value) {
40000c44:	00050a63          	beqz	a0,40000c58 <writeChars+0x28>
40000c48:	00140413          	addi	s0,s0,1
		writeChar(*(value++));
40000c4c:	fd9ff0ef          	jal	ra,40000c24 <writeChar>
40000c50:	00044503          	lbu	a0,0(s0)
40000c54:	fe051ae3          	bnez	a0,40000c48 <writeChars+0x18>
	while (*value) {
40000c58:	00c12083          	lw	ra,12(sp)
40000c5c:	00812403          	lw	s0,8(sp)
	}
}
40000c60:	01010113          	addi	sp,sp,16
40000c64:	00008067          	ret

40000c68 <write>:
40000c68:	ff010113          	addi	sp,sp,-16
40000c6c:	00912223          	sw	s1,4(sp)

int write(int fd, const void *buffer, unsigned int count) {
40000c70:	01212023          	sw	s2,0(sp)
40000c74:	00112623          	sw	ra,12(sp)
40000c78:	00812423          	sw	s0,8(sp)
40000c7c:	00060913          	mv	s2,a2
40000c80:	00c584b3          	add	s1,a1,a2
40000c84:	00060c63          	beqz	a2,40000c9c <write+0x34>
40000c88:	00058413          	mv	s0,a1
	for (int idx = 0; idx < count; idx++) {
40000c8c:	00044503          	lbu	a0,0(s0)
40000c90:	00140413          	addi	s0,s0,1
		writeChar(((char*) buffer)[idx]);
40000c94:	f91ff0ef          	jal	ra,40000c24 <writeChar>
40000c98:	fe849ae3          	bne	s1,s0,40000c8c <write+0x24>
40000c9c:	00c12083          	lw	ra,12(sp)
40000ca0:	00090513          	mv	a0,s2
	for (int idx = 0; idx < count; idx++) {
40000ca4:	00812403          	lw	s0,8(sp)
	}
	return count;
}
40000ca8:	00412483          	lw	s1,4(sp)
40000cac:	00012903          	lw	s2,0(sp)
40000cb0:	01010113          	addi	sp,sp,16
40000cb4:	00008067          	ret

40000cb8 <irqCpp>:
40000cb8:	00008067          	ret

40000cbc <times>:
40000cbc:	f01007b7          	lui	a5,0xf0100
40000cc0:	f107a503          	lw	a0,-240(a5) # f00fff10 <end+0xb00ef130>

	TEST_COM_BASE[8] = 0;
}


void irqCpp(uint32_t irq){
40000cc4:	00008067          	ret

40000cc8 <clock>:

}


int     times (){
  return TEST_COM_BASE[4];
40000cc8:	ff5ff06f          	j	40000cbc <times>

40000ccc <main>:
40000ccc:	ff010113          	addi	sp,sp,-16
}
40000cd0:	00112623          	sw	ra,12(sp)
#include <time.h>
clock_t	clock(){
  return times();
40000cd4:	d38ff0ef          	jal	ra,4000020c <main2>
40000cd8:	00c12083          	lw	ra,12(sp)
}
40000cdc:	f01007b7          	lui	a5,0xf0100
	TEST_COM_BASE[8] = 0;
40000ce0:	00000513          	li	a0,0
}
40000ce4:	f207a023          	sw	zero,-224(a5) # f00fff20 <end+0xb00ef140>
	TEST_COM_BASE[8] = 0;
40000ce8:	01010113          	addi	sp,sp,16
}
40000cec:	00008067          	ret

40000cf0 <malloc>:
40000cf0:	4000e7b7          	lui	a5,0x4000e
40000cf4:	00050593          	mv	a1,a0
40000cf8:	5847a503          	lw	a0,1412(a5) # 4000e584 <_impure_ptr>
40000cfc:	0140006f          	j	40000d10 <_malloc_r>

40000d00 <free>:
40000d00:	4000e7b7          	lui	a5,0x4000e
40000d04:	00050593          	mv	a1,a0
40000d08:	5847a503          	lw	a0,1412(a5) # 4000e584 <_impure_ptr>
40000d0c:	0390406f          	j	40005544 <_free_r>

40000d10 <_malloc_r>:
40000d10:	fd010113          	addi	sp,sp,-48
40000d14:	02912223          	sw	s1,36(sp)
40000d18:	01312e23          	sw	s3,28(sp)
40000d1c:	02112623          	sw	ra,44(sp)
40000d20:	02812423          	sw	s0,40(sp)
40000d24:	03212023          	sw	s2,32(sp)
40000d28:	01412c23          	sw	s4,24(sp)
40000d2c:	01512a23          	sw	s5,20(sp)
40000d30:	01612823          	sw	s6,16(sp)
40000d34:	01712623          	sw	s7,12(sp)
40000d38:	01812423          	sw	s8,8(sp)
40000d3c:	01912223          	sw	s9,4(sp)
40000d40:	00b58493          	addi	s1,a1,11
40000d44:	01600793          	li	a5,22
40000d48:	00050993          	mv	s3,a0
40000d4c:	1a97fa63          	bleu	s1,a5,40000f00 <_malloc_r+0x1f0>
40000d50:	ff84f493          	andi	s1,s1,-8
40000d54:	2404c063          	bltz	s1,40000f94 <_malloc_r+0x284>
40000d58:	22b4ee63          	bltu	s1,a1,40000f94 <_malloc_r+0x284>
40000d5c:	01d000ef          	jal	ra,40001578 <__malloc_lock>
40000d60:	1f700793          	li	a5,503
40000d64:	6e97f663          	bleu	s1,a5,40001450 <_malloc_r+0x740>
40000d68:	0094d793          	srli	a5,s1,0x9
40000d6c:	04000593          	li	a1,64
40000d70:	20000693          	li	a3,512
40000d74:	03f00513          	li	a0,63
40000d78:	22079663          	bnez	a5,40000fa4 <_malloc_r+0x294>
40000d7c:	4000e937          	lui	s2,0x4000e
40000d80:	cd090913          	addi	s2,s2,-816 # 4000dcd0 <_etext>
40000d84:	00d906b3          	add	a3,s2,a3
40000d88:	0046a403          	lw	s0,4(a3)
40000d8c:	ff868693          	addi	a3,a3,-8
40000d90:	02868c63          	beq	a3,s0,40000dc8 <_malloc_r+0xb8>
40000d94:	00442783          	lw	a5,4(s0)
40000d98:	00f00613          	li	a2,15
40000d9c:	ffc7f793          	andi	a5,a5,-4
40000da0:	40978733          	sub	a4,a5,s1
40000da4:	02e64063          	blt	a2,a4,40000dc4 <_malloc_r+0xb4>
40000da8:	22075c63          	bgez	a4,40000fe0 <_malloc_r+0x2d0>
40000dac:	00c42403          	lw	s0,12(s0)
40000db0:	00868c63          	beq	a3,s0,40000dc8 <_malloc_r+0xb8>
40000db4:	00442783          	lw	a5,4(s0)
40000db8:	ffc7f793          	andi	a5,a5,-4
40000dbc:	40978733          	sub	a4,a5,s1
40000dc0:	fee654e3          	ble	a4,a2,40000da8 <_malloc_r+0x98>
40000dc4:	00050593          	mv	a1,a0
40000dc8:	01092403          	lw	s0,16(s2)
40000dcc:	00890813          	addi	a6,s2,8
40000dd0:	45040c63          	beq	s0,a6,40001228 <_malloc_r+0x518>
40000dd4:	00442783          	lw	a5,4(s0)
40000dd8:	00f00693          	li	a3,15
40000ddc:	ffc7f793          	andi	a5,a5,-4
40000de0:	40978733          	sub	a4,a5,s1
40000de4:	42e6cc63          	blt	a3,a4,4000121c <_malloc_r+0x50c>
40000de8:	01092a23          	sw	a6,20(s2)
40000dec:	01092823          	sw	a6,16(s2)
40000df0:	1c075863          	bgez	a4,40000fc0 <_malloc_r+0x2b0>
40000df4:	1ff00713          	li	a4,511
40000df8:	3cf76263          	bltu	a4,a5,400011bc <_malloc_r+0x4ac>
40000dfc:	0037d793          	srli	a5,a5,0x3
40000e00:	00178713          	addi	a4,a5,1
40000e04:	00371713          	slli	a4,a4,0x3
40000e08:	00492503          	lw	a0,4(s2)
40000e0c:	00e90733          	add	a4,s2,a4
40000e10:	00072603          	lw	a2,0(a4)
40000e14:	4027d693          	srai	a3,a5,0x2
40000e18:	00100793          	li	a5,1
40000e1c:	00d797b3          	sll	a5,a5,a3
40000e20:	00a7e7b3          	or	a5,a5,a0
40000e24:	ff870693          	addi	a3,a4,-8
40000e28:	00d42623          	sw	a3,12(s0)
40000e2c:	00c42423          	sw	a2,8(s0)
40000e30:	00f92223          	sw	a5,4(s2)
40000e34:	00872023          	sw	s0,0(a4)
40000e38:	00862623          	sw	s0,12(a2)
40000e3c:	4025d713          	srai	a4,a1,0x2
40000e40:	00100693          	li	a3,1
40000e44:	00e696b3          	sll	a3,a3,a4
40000e48:	1ad7e263          	bltu	a5,a3,40000fec <_malloc_r+0x2dc>
40000e4c:	00f6f733          	and	a4,a3,a5
40000e50:	02071463          	bnez	a4,40000e78 <_malloc_r+0x168>
40000e54:	00169693          	slli	a3,a3,0x1
40000e58:	ffc5f593          	andi	a1,a1,-4
40000e5c:	00f6f733          	and	a4,a3,a5
40000e60:	00458593          	addi	a1,a1,4
40000e64:	00071a63          	bnez	a4,40000e78 <_malloc_r+0x168>
40000e68:	00169693          	slli	a3,a3,0x1
40000e6c:	00f6f733          	and	a4,a3,a5
40000e70:	00458593          	addi	a1,a1,4
40000e74:	fe070ae3          	beqz	a4,40000e68 <_malloc_r+0x158>
40000e78:	00f00513          	li	a0,15
40000e7c:	00359893          	slli	a7,a1,0x3
40000e80:	011908b3          	add	a7,s2,a7
40000e84:	00088613          	mv	a2,a7
40000e88:	00058313          	mv	t1,a1
40000e8c:	00c62403          	lw	s0,12(a2)
40000e90:	00861a63          	bne	a2,s0,40000ea4 <_malloc_r+0x194>
40000e94:	39c0006f          	j	40001230 <_malloc_r+0x520>
40000e98:	3a075e63          	bgez	a4,40001254 <_malloc_r+0x544>
40000e9c:	00c42403          	lw	s0,12(s0)
40000ea0:	38860863          	beq	a2,s0,40001230 <_malloc_r+0x520>
40000ea4:	00442783          	lw	a5,4(s0)
40000ea8:	ffc7f793          	andi	a5,a5,-4
40000eac:	40978733          	sub	a4,a5,s1
40000eb0:	fee554e3          	ble	a4,a0,40000e98 <_malloc_r+0x188>
40000eb4:	00c42683          	lw	a3,12(s0)
40000eb8:	00842603          	lw	a2,8(s0)
40000ebc:	0014e593          	ori	a1,s1,1
40000ec0:	00b42223          	sw	a1,4(s0)
40000ec4:	00d62623          	sw	a3,12(a2)
40000ec8:	00c6a423          	sw	a2,8(a3)
40000ecc:	009404b3          	add	s1,s0,s1
40000ed0:	00992a23          	sw	s1,20(s2)
40000ed4:	00992823          	sw	s1,16(s2)
40000ed8:	00176693          	ori	a3,a4,1
40000edc:	0104a623          	sw	a6,12(s1)
40000ee0:	0104a423          	sw	a6,8(s1)
40000ee4:	00d4a223          	sw	a3,4(s1)
40000ee8:	00f407b3          	add	a5,s0,a5
40000eec:	00098513          	mv	a0,s3
40000ef0:	00e7a023          	sw	a4,0(a5)
40000ef4:	688000ef          	jal	ra,4000157c <__malloc_unlock>
40000ef8:	00840513          	addi	a0,s0,8
40000efc:	0640006f          	j	40000f60 <_malloc_r+0x250>
40000f00:	01000493          	li	s1,16
40000f04:	08b4e863          	bltu	s1,a1,40000f94 <_malloc_r+0x284>
40000f08:	670000ef          	jal	ra,40001578 <__malloc_lock>
40000f0c:	01800793          	li	a5,24
40000f10:	00200593          	li	a1,2
40000f14:	4000e937          	lui	s2,0x4000e
40000f18:	cd090913          	addi	s2,s2,-816 # 4000dcd0 <_etext>
40000f1c:	00f907b3          	add	a5,s2,a5
40000f20:	0047a403          	lw	s0,4(a5)
40000f24:	ff878713          	addi	a4,a5,-8
40000f28:	30e40e63          	beq	s0,a4,40001244 <_malloc_r+0x534>
40000f2c:	00442783          	lw	a5,4(s0)
40000f30:	00c42683          	lw	a3,12(s0)
40000f34:	00842603          	lw	a2,8(s0)
40000f38:	ffc7f793          	andi	a5,a5,-4
40000f3c:	00f407b3          	add	a5,s0,a5
40000f40:	0047a703          	lw	a4,4(a5)
40000f44:	00d62623          	sw	a3,12(a2)
40000f48:	00c6a423          	sw	a2,8(a3)
40000f4c:	00176713          	ori	a4,a4,1
40000f50:	00098513          	mv	a0,s3
40000f54:	00e7a223          	sw	a4,4(a5)
40000f58:	624000ef          	jal	ra,4000157c <__malloc_unlock>
40000f5c:	00840513          	addi	a0,s0,8
40000f60:	02c12083          	lw	ra,44(sp)
40000f64:	02812403          	lw	s0,40(sp)
40000f68:	02412483          	lw	s1,36(sp)
40000f6c:	02012903          	lw	s2,32(sp)
40000f70:	01c12983          	lw	s3,28(sp)
40000f74:	01812a03          	lw	s4,24(sp)
40000f78:	01412a83          	lw	s5,20(sp)
40000f7c:	01012b03          	lw	s6,16(sp)
40000f80:	00c12b83          	lw	s7,12(sp)
40000f84:	00812c03          	lw	s8,8(sp)
40000f88:	00412c83          	lw	s9,4(sp)
40000f8c:	03010113          	addi	sp,sp,48
40000f90:	00008067          	ret
40000f94:	00c00793          	li	a5,12
40000f98:	00f9a023          	sw	a5,0(s3)
40000f9c:	00000513          	li	a0,0
40000fa0:	fc1ff06f          	j	40000f60 <_malloc_r+0x250>
40000fa4:	00400713          	li	a4,4
40000fa8:	1ef76863          	bltu	a4,a5,40001198 <_malloc_r+0x488>
40000fac:	0064d513          	srli	a0,s1,0x6
40000fb0:	03950593          	addi	a1,a0,57
40000fb4:	00359693          	slli	a3,a1,0x3
40000fb8:	03850513          	addi	a0,a0,56
40000fbc:	dc1ff06f          	j	40000d7c <_malloc_r+0x6c>
40000fc0:	00f407b3          	add	a5,s0,a5
40000fc4:	0047a703          	lw	a4,4(a5)
40000fc8:	00098513          	mv	a0,s3
40000fcc:	00176713          	ori	a4,a4,1
40000fd0:	00e7a223          	sw	a4,4(a5)
40000fd4:	5a8000ef          	jal	ra,4000157c <__malloc_unlock>
40000fd8:	00840513          	addi	a0,s0,8
40000fdc:	f85ff06f          	j	40000f60 <_malloc_r+0x250>
40000fe0:	00c42683          	lw	a3,12(s0)
40000fe4:	00842603          	lw	a2,8(s0)
40000fe8:	f55ff06f          	j	40000f3c <_malloc_r+0x22c>
40000fec:	00892403          	lw	s0,8(s2)
40000ff0:	00442783          	lw	a5,4(s0)
40000ff4:	ffc7fa93          	andi	s5,a5,-4
40000ff8:	009ae863          	bltu	s5,s1,40001008 <_malloc_r+0x2f8>
40000ffc:	409a87b3          	sub	a5,s5,s1
40001000:	00f00713          	li	a4,15
40001004:	16f74663          	blt	a4,a5,40001170 <_malloc_r+0x460>
40001008:	4000e7b7          	lui	a5,0x4000e
4000100c:	4000ecb7          	lui	s9,0x4000e
40001010:	5c47aa03          	lw	s4,1476(a5) # 4000e5c4 <__malloc_top_pad>
40001014:	578ca703          	lw	a4,1400(s9) # 4000e578 <__malloc_sbrk_base>
40001018:	fff00793          	li	a5,-1
4000101c:	01540b33          	add	s6,s0,s5
40001020:	01448a33          	add	s4,s1,s4
40001024:	36f70263          	beq	a4,a5,40001388 <_malloc_r+0x678>
40001028:	000017b7          	lui	a5,0x1
4000102c:	00f78793          	addi	a5,a5,15 # 100f <_stack_start+0x657>
40001030:	00fa0a33          	add	s4,s4,a5
40001034:	fffff7b7          	lui	a5,0xfffff
40001038:	00fa7a33          	and	s4,s4,a5
4000103c:	000a0593          	mv	a1,s4
40001040:	00098513          	mv	a0,s3
40001044:	5d4000ef          	jal	ra,40001618 <_sbrk_r>
40001048:	fff00793          	li	a5,-1
4000104c:	00050b93          	mv	s7,a0
40001050:	24f50e63          	beq	a0,a5,400012ac <_malloc_r+0x59c>
40001054:	25656a63          	bltu	a0,s6,400012a8 <_malloc_r+0x598>
40001058:	40011c37          	lui	s8,0x40011
4000105c:	db0c0c13          	addi	s8,s8,-592 # 40010db0 <__malloc_current_mallinfo>
40001060:	000c2703          	lw	a4,0(s8)
40001064:	00ea0733          	add	a4,s4,a4
40001068:	00ec2023          	sw	a4,0(s8)
4000106c:	34ab0c63          	beq	s6,a0,400013c4 <_malloc_r+0x6b4>
40001070:	578ca683          	lw	a3,1400(s9)
40001074:	fff00793          	li	a5,-1
40001078:	38f68463          	beq	a3,a5,40001400 <_malloc_r+0x6f0>
4000107c:	416b8b33          	sub	s6,s7,s6
40001080:	00eb0733          	add	a4,s6,a4
40001084:	00ec2023          	sw	a4,0(s8)
40001088:	007bf793          	andi	a5,s7,7
4000108c:	00001737          	lui	a4,0x1
40001090:	00078a63          	beqz	a5,400010a4 <_malloc_r+0x394>
40001094:	40fb8bb3          	sub	s7,s7,a5
40001098:	00870713          	addi	a4,a4,8 # 1008 <_stack_start+0x650>
4000109c:	008b8b93          	addi	s7,s7,8
400010a0:	40f70733          	sub	a4,a4,a5
400010a4:	000016b7          	lui	a3,0x1
400010a8:	014b87b3          	add	a5,s7,s4
400010ac:	fff68693          	addi	a3,a3,-1 # fff <_stack_start+0x647>
400010b0:	00d7f7b3          	and	a5,a5,a3
400010b4:	40f70a33          	sub	s4,a4,a5
400010b8:	000a0593          	mv	a1,s4
400010bc:	00098513          	mv	a0,s3
400010c0:	558000ef          	jal	ra,40001618 <_sbrk_r>
400010c4:	fff00793          	li	a5,-1
400010c8:	32f50663          	beq	a0,a5,400013f4 <_malloc_r+0x6e4>
400010cc:	417507b3          	sub	a5,a0,s7
400010d0:	014787b3          	add	a5,a5,s4
400010d4:	0017e793          	ori	a5,a5,1
400010d8:	000c2703          	lw	a4,0(s8)
400010dc:	01792423          	sw	s7,8(s2)
400010e0:	00fba223          	sw	a5,4(s7)
400010e4:	00ea0733          	add	a4,s4,a4
400010e8:	00ec2023          	sw	a4,0(s8)
400010ec:	03240c63          	beq	s0,s2,40001124 <_malloc_r+0x414>
400010f0:	00f00613          	li	a2,15
400010f4:	27567063          	bleu	s5,a2,40001354 <_malloc_r+0x644>
400010f8:	00442683          	lw	a3,4(s0)
400010fc:	ff4a8793          	addi	a5,s5,-12
40001100:	ff87f793          	andi	a5,a5,-8
40001104:	0016f693          	andi	a3,a3,1
40001108:	00f6e6b3          	or	a3,a3,a5
4000110c:	00d42223          	sw	a3,4(s0)
40001110:	00500593          	li	a1,5
40001114:	00f406b3          	add	a3,s0,a5
40001118:	00b6a223          	sw	a1,4(a3)
4000111c:	00b6a423          	sw	a1,8(a3)
40001120:	2cf66063          	bltu	a2,a5,400013e0 <_malloc_r+0x6d0>
40001124:	4000e7b7          	lui	a5,0x4000e
40001128:	5c07a683          	lw	a3,1472(a5) # 4000e5c0 <__malloc_max_sbrked_mem>
4000112c:	00e6f463          	bleu	a4,a3,40001134 <_malloc_r+0x424>
40001130:	5ce7a023          	sw	a4,1472(a5)
40001134:	4000e7b7          	lui	a5,0x4000e
40001138:	5bc7a683          	lw	a3,1468(a5) # 4000e5bc <__malloc_max_total_mem>
4000113c:	00892403          	lw	s0,8(s2)
40001140:	00e6f463          	bleu	a4,a3,40001148 <_malloc_r+0x438>
40001144:	5ae7ae23          	sw	a4,1468(a5)
40001148:	00442703          	lw	a4,4(s0)
4000114c:	ffc77713          	andi	a4,a4,-4
40001150:	409707b3          	sub	a5,a4,s1
40001154:	00976663          	bltu	a4,s1,40001160 <_malloc_r+0x450>
40001158:	00f00713          	li	a4,15
4000115c:	00f74a63          	blt	a4,a5,40001170 <_malloc_r+0x460>
40001160:	00098513          	mv	a0,s3
40001164:	418000ef          	jal	ra,4000157c <__malloc_unlock>
40001168:	00000513          	li	a0,0
4000116c:	df5ff06f          	j	40000f60 <_malloc_r+0x250>
40001170:	0014e713          	ori	a4,s1,1
40001174:	00e42223          	sw	a4,4(s0)
40001178:	009404b3          	add	s1,s0,s1
4000117c:	00992423          	sw	s1,8(s2)
40001180:	0017e793          	ori	a5,a5,1
40001184:	00098513          	mv	a0,s3
40001188:	00f4a223          	sw	a5,4(s1)
4000118c:	3f0000ef          	jal	ra,4000157c <__malloc_unlock>
40001190:	00840513          	addi	a0,s0,8
40001194:	dcdff06f          	j	40000f60 <_malloc_r+0x250>
40001198:	01400713          	li	a4,20
4000119c:	0ef77463          	bleu	a5,a4,40001284 <_malloc_r+0x574>
400011a0:	05400713          	li	a4,84
400011a4:	16f76a63          	bltu	a4,a5,40001318 <_malloc_r+0x608>
400011a8:	00c4d513          	srli	a0,s1,0xc
400011ac:	06f50593          	addi	a1,a0,111
400011b0:	00359693          	slli	a3,a1,0x3
400011b4:	06e50513          	addi	a0,a0,110
400011b8:	bc5ff06f          	j	40000d7c <_malloc_r+0x6c>
400011bc:	0097d713          	srli	a4,a5,0x9
400011c0:	00400693          	li	a3,4
400011c4:	0ce6f863          	bleu	a4,a3,40001294 <_malloc_r+0x584>
400011c8:	01400693          	li	a3,20
400011cc:	1ce6e263          	bltu	a3,a4,40001390 <_malloc_r+0x680>
400011d0:	05c70613          	addi	a2,a4,92
400011d4:	05b70693          	addi	a3,a4,91
400011d8:	00361613          	slli	a2,a2,0x3
400011dc:	00c90633          	add	a2,s2,a2
400011e0:	00062703          	lw	a4,0(a2)
400011e4:	ff860613          	addi	a2,a2,-8
400011e8:	14e60663          	beq	a2,a4,40001334 <_malloc_r+0x624>
400011ec:	00472683          	lw	a3,4(a4)
400011f0:	ffc6f693          	andi	a3,a3,-4
400011f4:	10d7fe63          	bleu	a3,a5,40001310 <_malloc_r+0x600>
400011f8:	00872703          	lw	a4,8(a4)
400011fc:	fee618e3          	bne	a2,a4,400011ec <_malloc_r+0x4dc>
40001200:	00c62703          	lw	a4,12(a2)
40001204:	00492783          	lw	a5,4(s2)
40001208:	00e42623          	sw	a4,12(s0)
4000120c:	00c42423          	sw	a2,8(s0)
40001210:	00872423          	sw	s0,8(a4)
40001214:	00862623          	sw	s0,12(a2)
40001218:	c25ff06f          	j	40000e3c <_malloc_r+0x12c>
4000121c:	0014e693          	ori	a3,s1,1
40001220:	00d42223          	sw	a3,4(s0)
40001224:	ca9ff06f          	j	40000ecc <_malloc_r+0x1bc>
40001228:	00492783          	lw	a5,4(s2)
4000122c:	c11ff06f          	j	40000e3c <_malloc_r+0x12c>
40001230:	00130313          	addi	t1,t1,1
40001234:	00337793          	andi	a5,t1,3
40001238:	00860613          	addi	a2,a2,8
4000123c:	c40798e3          	bnez	a5,40000e8c <_malloc_r+0x17c>
40001240:	0880006f          	j	400012c8 <_malloc_r+0x5b8>
40001244:	00c7a403          	lw	s0,12(a5)
40001248:	00258593          	addi	a1,a1,2
4000124c:	b6878ee3          	beq	a5,s0,40000dc8 <_malloc_r+0xb8>
40001250:	cddff06f          	j	40000f2c <_malloc_r+0x21c>
40001254:	00f407b3          	add	a5,s0,a5
40001258:	0047a703          	lw	a4,4(a5)
4000125c:	00c42683          	lw	a3,12(s0)
40001260:	00842603          	lw	a2,8(s0)
40001264:	00176713          	ori	a4,a4,1
40001268:	00e7a223          	sw	a4,4(a5)
4000126c:	00d62623          	sw	a3,12(a2)
40001270:	00098513          	mv	a0,s3
40001274:	00c6a423          	sw	a2,8(a3)
40001278:	304000ef          	jal	ra,4000157c <__malloc_unlock>
4000127c:	00840513          	addi	a0,s0,8
40001280:	ce1ff06f          	j	40000f60 <_malloc_r+0x250>
40001284:	05c78593          	addi	a1,a5,92
40001288:	05b78513          	addi	a0,a5,91
4000128c:	00359693          	slli	a3,a1,0x3
40001290:	aedff06f          	j	40000d7c <_malloc_r+0x6c>
40001294:	0067d693          	srli	a3,a5,0x6
40001298:	03968613          	addi	a2,a3,57
4000129c:	00361613          	slli	a2,a2,0x3
400012a0:	03868693          	addi	a3,a3,56
400012a4:	f39ff06f          	j	400011dc <_malloc_r+0x4cc>
400012a8:	11240263          	beq	s0,s2,400013ac <_malloc_r+0x69c>
400012ac:	00892403          	lw	s0,8(s2)
400012b0:	00442703          	lw	a4,4(s0)
400012b4:	ffc77713          	andi	a4,a4,-4
400012b8:	e99ff06f          	j	40001150 <_malloc_r+0x440>
400012bc:	0088a783          	lw	a5,8(a7)
400012c0:	fff58593          	addi	a1,a1,-1
400012c4:	18f89263          	bne	a7,a5,40001448 <_malloc_r+0x738>
400012c8:	0035f793          	andi	a5,a1,3
400012cc:	ff888893          	addi	a7,a7,-8
400012d0:	fe0796e3          	bnez	a5,400012bc <_malloc_r+0x5ac>
400012d4:	00492703          	lw	a4,4(s2)
400012d8:	fff6c793          	not	a5,a3
400012dc:	00e7f7b3          	and	a5,a5,a4
400012e0:	00f92223          	sw	a5,4(s2)
400012e4:	00169693          	slli	a3,a3,0x1
400012e8:	d0d7e2e3          	bltu	a5,a3,40000fec <_malloc_r+0x2dc>
400012ec:	d00680e3          	beqz	a3,40000fec <_malloc_r+0x2dc>
400012f0:	00f6f733          	and	a4,a3,a5
400012f4:	00030593          	mv	a1,t1
400012f8:	b80712e3          	bnez	a4,40000e7c <_malloc_r+0x16c>
400012fc:	00169693          	slli	a3,a3,0x1
40001300:	00f6f733          	and	a4,a3,a5
40001304:	00458593          	addi	a1,a1,4
40001308:	fe070ae3          	beqz	a4,400012fc <_malloc_r+0x5ec>
4000130c:	b71ff06f          	j	40000e7c <_malloc_r+0x16c>
40001310:	00070613          	mv	a2,a4
40001314:	eedff06f          	j	40001200 <_malloc_r+0x4f0>
40001318:	15400713          	li	a4,340
4000131c:	04f76263          	bltu	a4,a5,40001360 <_malloc_r+0x650>
40001320:	00f4d513          	srli	a0,s1,0xf
40001324:	07850593          	addi	a1,a0,120
40001328:	00359693          	slli	a3,a1,0x3
4000132c:	07750513          	addi	a0,a0,119
40001330:	a4dff06f          	j	40000d7c <_malloc_r+0x6c>
40001334:	00492703          	lw	a4,4(s2)
40001338:	4026d693          	srai	a3,a3,0x2
4000133c:	00100793          	li	a5,1
40001340:	00d797b3          	sll	a5,a5,a3
40001344:	00e7e7b3          	or	a5,a5,a4
40001348:	00f92223          	sw	a5,4(s2)
4000134c:	00060713          	mv	a4,a2
40001350:	eb9ff06f          	j	40001208 <_malloc_r+0x4f8>
40001354:	00100793          	li	a5,1
40001358:	00fba223          	sw	a5,4(s7)
4000135c:	e05ff06f          	j	40001160 <_malloc_r+0x450>
40001360:	55400713          	li	a4,1364
40001364:	07f00593          	li	a1,127
40001368:	3f800693          	li	a3,1016
4000136c:	07e00513          	li	a0,126
40001370:	a0f766e3          	bltu	a4,a5,40000d7c <_malloc_r+0x6c>
40001374:	0124d513          	srli	a0,s1,0x12
40001378:	07d50593          	addi	a1,a0,125
4000137c:	00359693          	slli	a3,a1,0x3
40001380:	07c50513          	addi	a0,a0,124
40001384:	9f9ff06f          	j	40000d7c <_malloc_r+0x6c>
40001388:	010a0a13          	addi	s4,s4,16
4000138c:	cb1ff06f          	j	4000103c <_malloc_r+0x32c>
40001390:	05400693          	li	a3,84
40001394:	06e6ea63          	bltu	a3,a4,40001408 <_malloc_r+0x6f8>
40001398:	00c7d693          	srli	a3,a5,0xc
4000139c:	06f68613          	addi	a2,a3,111
400013a0:	00361613          	slli	a2,a2,0x3
400013a4:	06e68693          	addi	a3,a3,110
400013a8:	e35ff06f          	j	400011dc <_malloc_r+0x4cc>
400013ac:	40011c37          	lui	s8,0x40011
400013b0:	db0c0c13          	addi	s8,s8,-592 # 40010db0 <__malloc_current_mallinfo>
400013b4:	000c2703          	lw	a4,0(s8)
400013b8:	00ea0733          	add	a4,s4,a4
400013bc:	00ec2023          	sw	a4,0(s8)
400013c0:	cb1ff06f          	j	40001070 <_malloc_r+0x360>
400013c4:	014b1793          	slli	a5,s6,0x14
400013c8:	ca0794e3          	bnez	a5,40001070 <_malloc_r+0x360>
400013cc:	00892683          	lw	a3,8(s2)
400013d0:	014a87b3          	add	a5,s5,s4
400013d4:	0017e793          	ori	a5,a5,1
400013d8:	00f6a223          	sw	a5,4(a3)
400013dc:	d49ff06f          	j	40001124 <_malloc_r+0x414>
400013e0:	00840593          	addi	a1,s0,8
400013e4:	00098513          	mv	a0,s3
400013e8:	15c040ef          	jal	ra,40005544 <_free_r>
400013ec:	000c2703          	lw	a4,0(s8)
400013f0:	d35ff06f          	j	40001124 <_malloc_r+0x414>
400013f4:	00100793          	li	a5,1
400013f8:	00000a13          	li	s4,0
400013fc:	cddff06f          	j	400010d8 <_malloc_r+0x3c8>
40001400:	577cac23          	sw	s7,1400(s9)
40001404:	c85ff06f          	j	40001088 <_malloc_r+0x378>
40001408:	15400693          	li	a3,340
4000140c:	00e6ec63          	bltu	a3,a4,40001424 <_malloc_r+0x714>
40001410:	00f7d693          	srli	a3,a5,0xf
40001414:	07868613          	addi	a2,a3,120
40001418:	00361613          	slli	a2,a2,0x3
4000141c:	07768693          	addi	a3,a3,119
40001420:	dbdff06f          	j	400011dc <_malloc_r+0x4cc>
40001424:	55400513          	li	a0,1364
40001428:	3f800613          	li	a2,1016
4000142c:	07e00693          	li	a3,126
40001430:	dae566e3          	bltu	a0,a4,400011dc <_malloc_r+0x4cc>
40001434:	0127d693          	srli	a3,a5,0x12
40001438:	07d68613          	addi	a2,a3,125
4000143c:	00361613          	slli	a2,a2,0x3
40001440:	07c68693          	addi	a3,a3,124
40001444:	d99ff06f          	j	400011dc <_malloc_r+0x4cc>
40001448:	00492783          	lw	a5,4(s2)
4000144c:	e99ff06f          	j	400012e4 <_malloc_r+0x5d4>
40001450:	0034d593          	srli	a1,s1,0x3
40001454:	00848793          	addi	a5,s1,8
40001458:	abdff06f          	j	40000f14 <_malloc_r+0x204>

4000145c <memcpy>:
4000145c:	00a5c7b3          	xor	a5,a1,a0
40001460:	0037f793          	andi	a5,a5,3
40001464:	00c508b3          	add	a7,a0,a2
40001468:	0e079863          	bnez	a5,40001558 <memcpy+0xfc>
4000146c:	00300793          	li	a5,3
40001470:	0ec7f463          	bleu	a2,a5,40001558 <memcpy+0xfc>
40001474:	00357793          	andi	a5,a0,3
40001478:	00050713          	mv	a4,a0
4000147c:	04079863          	bnez	a5,400014cc <memcpy+0x70>
40001480:	ffc8f813          	andi	a6,a7,-4
40001484:	fe080793          	addi	a5,a6,-32
40001488:	06f76c63          	bltu	a4,a5,40001500 <memcpy+0xa4>
4000148c:	03077c63          	bleu	a6,a4,400014c4 <memcpy+0x68>
40001490:	00058693          	mv	a3,a1
40001494:	00070793          	mv	a5,a4
40001498:	0006a603          	lw	a2,0(a3)
4000149c:	00478793          	addi	a5,a5,4
400014a0:	00468693          	addi	a3,a3,4
400014a4:	fec7ae23          	sw	a2,-4(a5)
400014a8:	ff07e8e3          	bltu	a5,a6,40001498 <memcpy+0x3c>
400014ac:	fff74793          	not	a5,a4
400014b0:	010787b3          	add	a5,a5,a6
400014b4:	ffc7f793          	andi	a5,a5,-4
400014b8:	00478793          	addi	a5,a5,4
400014bc:	00f70733          	add	a4,a4,a5
400014c0:	00f585b3          	add	a1,a1,a5
400014c4:	09176e63          	bltu	a4,a7,40001560 <memcpy+0x104>
400014c8:	00008067          	ret
400014cc:	0005c683          	lbu	a3,0(a1)
400014d0:	00170713          	addi	a4,a4,1
400014d4:	00377793          	andi	a5,a4,3
400014d8:	fed70fa3          	sb	a3,-1(a4)
400014dc:	00158593          	addi	a1,a1,1
400014e0:	fa0780e3          	beqz	a5,40001480 <memcpy+0x24>
400014e4:	0005c683          	lbu	a3,0(a1)
400014e8:	00170713          	addi	a4,a4,1
400014ec:	00377793          	andi	a5,a4,3
400014f0:	fed70fa3          	sb	a3,-1(a4)
400014f4:	00158593          	addi	a1,a1,1
400014f8:	fc079ae3          	bnez	a5,400014cc <memcpy+0x70>
400014fc:	f85ff06f          	j	40001480 <memcpy+0x24>
40001500:	0005a383          	lw	t2,0(a1)
40001504:	0045a283          	lw	t0,4(a1)
40001508:	0085af83          	lw	t6,8(a1)
4000150c:	00c5af03          	lw	t5,12(a1)
40001510:	0105ae83          	lw	t4,16(a1)
40001514:	0145ae03          	lw	t3,20(a1)
40001518:	0185a303          	lw	t1,24(a1)
4000151c:	01c5a603          	lw	a2,28(a1)
40001520:	02458593          	addi	a1,a1,36
40001524:	02470713          	addi	a4,a4,36
40001528:	ffc5a683          	lw	a3,-4(a1)
4000152c:	fc772e23          	sw	t2,-36(a4)
40001530:	fe572023          	sw	t0,-32(a4)
40001534:	fff72223          	sw	t6,-28(a4)
40001538:	ffe72423          	sw	t5,-24(a4)
4000153c:	ffd72623          	sw	t4,-20(a4)
40001540:	ffc72823          	sw	t3,-16(a4)
40001544:	fe672a23          	sw	t1,-12(a4)
40001548:	fec72c23          	sw	a2,-8(a4)
4000154c:	fed72e23          	sw	a3,-4(a4)
40001550:	faf768e3          	bltu	a4,a5,40001500 <memcpy+0xa4>
40001554:	f39ff06f          	j	4000148c <memcpy+0x30>
40001558:	00050713          	mv	a4,a0
4000155c:	f71576e3          	bleu	a7,a0,400014c8 <memcpy+0x6c>
40001560:	0005c783          	lbu	a5,0(a1)
40001564:	00170713          	addi	a4,a4,1
40001568:	00158593          	addi	a1,a1,1
4000156c:	fef70fa3          	sb	a5,-1(a4)
40001570:	ff1768e3          	bltu	a4,a7,40001560 <memcpy+0x104>
40001574:	00008067          	ret

40001578 <__malloc_lock>:
40001578:	00008067          	ret

4000157c <__malloc_unlock>:
4000157c:	00008067          	ret

40001580 <_printf_r>:
40001580:	fc010113          	addi	sp,sp,-64
40001584:	02c12423          	sw	a2,40(sp)
40001588:	02d12623          	sw	a3,44(sp)
4000158c:	02f12a23          	sw	a5,52(sp)
40001590:	02e12823          	sw	a4,48(sp)
40001594:	03012c23          	sw	a6,56(sp)
40001598:	03112e23          	sw	a7,60(sp)
4000159c:	00058613          	mv	a2,a1
400015a0:	00852583          	lw	a1,8(a0)
400015a4:	02810793          	addi	a5,sp,40
400015a8:	00078693          	mv	a3,a5
400015ac:	00112e23          	sw	ra,28(sp)
400015b0:	00f12623          	sw	a5,12(sp)
400015b4:	240000ef          	jal	ra,400017f4 <_vfprintf_r>
400015b8:	01c12083          	lw	ra,28(sp)
400015bc:	04010113          	addi	sp,sp,64
400015c0:	00008067          	ret

400015c4 <printf>:
400015c4:	4000e337          	lui	t1,0x4000e
400015c8:	58432303          	lw	t1,1412(t1) # 4000e584 <_impure_ptr>
400015cc:	fc010113          	addi	sp,sp,-64
400015d0:	02c12423          	sw	a2,40(sp)
400015d4:	02d12623          	sw	a3,44(sp)
400015d8:	02f12a23          	sw	a5,52(sp)
400015dc:	02b12223          	sw	a1,36(sp)
400015e0:	02e12823          	sw	a4,48(sp)
400015e4:	03012c23          	sw	a6,56(sp)
400015e8:	03112e23          	sw	a7,60(sp)
400015ec:	00832583          	lw	a1,8(t1)
400015f0:	02410793          	addi	a5,sp,36
400015f4:	00050613          	mv	a2,a0
400015f8:	00078693          	mv	a3,a5
400015fc:	00030513          	mv	a0,t1
40001600:	00112e23          	sw	ra,28(sp)
40001604:	00f12623          	sw	a5,12(sp)
40001608:	1ec000ef          	jal	ra,400017f4 <_vfprintf_r>
4000160c:	01c12083          	lw	ra,28(sp)
40001610:	04010113          	addi	sp,sp,64
40001614:	00008067          	ret

40001618 <_sbrk_r>:
40001618:	ff010113          	addi	sp,sp,-16
4000161c:	00812423          	sw	s0,8(sp)
40001620:	00912223          	sw	s1,4(sp)
40001624:	40011437          	lui	s0,0x40011
40001628:	00050493          	mv	s1,a0
4000162c:	00058513          	mv	a0,a1
40001630:	00112623          	sw	ra,12(sp)
40001634:	dc042c23          	sw	zero,-552(s0) # 40010dd8 <errno>
40001638:	16c080ef          	jal	ra,400097a4 <sbrk>
4000163c:	fff00793          	li	a5,-1
40001640:	00f50c63          	beq	a0,a5,40001658 <_sbrk_r+0x40>
40001644:	00c12083          	lw	ra,12(sp)
40001648:	00812403          	lw	s0,8(sp)
4000164c:	00412483          	lw	s1,4(sp)
40001650:	01010113          	addi	sp,sp,16
40001654:	00008067          	ret
40001658:	dd842783          	lw	a5,-552(s0)
4000165c:	fe0784e3          	beqz	a5,40001644 <_sbrk_r+0x2c>
40001660:	00c12083          	lw	ra,12(sp)
40001664:	00f4a023          	sw	a5,0(s1)
40001668:	00812403          	lw	s0,8(sp)
4000166c:	00412483          	lw	s1,4(sp)
40001670:	01010113          	addi	sp,sp,16
40001674:	00008067          	ret

40001678 <strcmp>:
40001678:	00b56733          	or	a4,a0,a1
4000167c:	fff00393          	li	t2,-1
40001680:	00377713          	andi	a4,a4,3
40001684:	10071063          	bnez	a4,40001784 <strcmp+0x10c>
40001688:	7f7f8e37          	lui	t3,0x7f7f8
4000168c:	f7fe0e13          	addi	t3,t3,-129 # 7f7f7f7f <end+0x3f7e719f>
40001690:	00052603          	lw	a2,0(a0)
40001694:	0005a683          	lw	a3,0(a1)
40001698:	01c672b3          	and	t0,a2,t3
4000169c:	01c66333          	or	t1,a2,t3
400016a0:	01c282b3          	add	t0,t0,t3
400016a4:	0062e2b3          	or	t0,t0,t1
400016a8:	10729263          	bne	t0,t2,400017ac <strcmp+0x134>
400016ac:	08d61663          	bne	a2,a3,40001738 <strcmp+0xc0>
400016b0:	00452603          	lw	a2,4(a0)
400016b4:	0045a683          	lw	a3,4(a1)
400016b8:	01c672b3          	and	t0,a2,t3
400016bc:	01c66333          	or	t1,a2,t3
400016c0:	01c282b3          	add	t0,t0,t3
400016c4:	0062e2b3          	or	t0,t0,t1
400016c8:	0c729e63          	bne	t0,t2,400017a4 <strcmp+0x12c>
400016cc:	06d61663          	bne	a2,a3,40001738 <strcmp+0xc0>
400016d0:	00852603          	lw	a2,8(a0)
400016d4:	0085a683          	lw	a3,8(a1)
400016d8:	01c672b3          	and	t0,a2,t3
400016dc:	01c66333          	or	t1,a2,t3
400016e0:	01c282b3          	add	t0,t0,t3
400016e4:	0062e2b3          	or	t0,t0,t1
400016e8:	0c729863          	bne	t0,t2,400017b8 <strcmp+0x140>
400016ec:	04d61663          	bne	a2,a3,40001738 <strcmp+0xc0>
400016f0:	00c52603          	lw	a2,12(a0)
400016f4:	00c5a683          	lw	a3,12(a1)
400016f8:	01c672b3          	and	t0,a2,t3
400016fc:	01c66333          	or	t1,a2,t3
40001700:	01c282b3          	add	t0,t0,t3
40001704:	0062e2b3          	or	t0,t0,t1
40001708:	0c729263          	bne	t0,t2,400017cc <strcmp+0x154>
4000170c:	02d61663          	bne	a2,a3,40001738 <strcmp+0xc0>
40001710:	01052603          	lw	a2,16(a0)
40001714:	0105a683          	lw	a3,16(a1)
40001718:	01c672b3          	and	t0,a2,t3
4000171c:	01c66333          	or	t1,a2,t3
40001720:	01c282b3          	add	t0,t0,t3
40001724:	0062e2b3          	or	t0,t0,t1
40001728:	0a729c63          	bne	t0,t2,400017e0 <strcmp+0x168>
4000172c:	01450513          	addi	a0,a0,20
40001730:	01458593          	addi	a1,a1,20
40001734:	f4d60ee3          	beq	a2,a3,40001690 <strcmp+0x18>
40001738:	01061713          	slli	a4,a2,0x10
4000173c:	01069793          	slli	a5,a3,0x10
40001740:	00f71e63          	bne	a4,a5,4000175c <strcmp+0xe4>
40001744:	01065713          	srli	a4,a2,0x10
40001748:	0106d793          	srli	a5,a3,0x10
4000174c:	40f70533          	sub	a0,a4,a5
40001750:	0ff57593          	andi	a1,a0,255
40001754:	02059063          	bnez	a1,40001774 <strcmp+0xfc>
40001758:	00008067          	ret
4000175c:	01075713          	srli	a4,a4,0x10
40001760:	0107d793          	srli	a5,a5,0x10
40001764:	40f70533          	sub	a0,a4,a5
40001768:	0ff57593          	andi	a1,a0,255
4000176c:	00059463          	bnez	a1,40001774 <strcmp+0xfc>
40001770:	00008067          	ret
40001774:	0ff77713          	andi	a4,a4,255
40001778:	0ff7f793          	andi	a5,a5,255
4000177c:	40f70533          	sub	a0,a4,a5
40001780:	00008067          	ret
40001784:	00054603          	lbu	a2,0(a0)
40001788:	0005c683          	lbu	a3,0(a1)
4000178c:	00150513          	addi	a0,a0,1
40001790:	00158593          	addi	a1,a1,1
40001794:	00d61463          	bne	a2,a3,4000179c <strcmp+0x124>
40001798:	fe0616e3          	bnez	a2,40001784 <strcmp+0x10c>
4000179c:	40d60533          	sub	a0,a2,a3
400017a0:	00008067          	ret
400017a4:	00450513          	addi	a0,a0,4
400017a8:	00458593          	addi	a1,a1,4
400017ac:	fcd61ce3          	bne	a2,a3,40001784 <strcmp+0x10c>
400017b0:	00000513          	li	a0,0
400017b4:	00008067          	ret
400017b8:	00850513          	addi	a0,a0,8
400017bc:	00858593          	addi	a1,a1,8
400017c0:	fcd612e3          	bne	a2,a3,40001784 <strcmp+0x10c>
400017c4:	00000513          	li	a0,0
400017c8:	00008067          	ret
400017cc:	00c50513          	addi	a0,a0,12
400017d0:	00c58593          	addi	a1,a1,12
400017d4:	fad618e3          	bne	a2,a3,40001784 <strcmp+0x10c>
400017d8:	00000513          	li	a0,0
400017dc:	00008067          	ret
400017e0:	01050513          	addi	a0,a0,16
400017e4:	01058593          	addi	a1,a1,16
400017e8:	f8d61ee3          	bne	a2,a3,40001784 <strcmp+0x10c>
400017ec:	00000513          	li	a0,0
400017f0:	00008067          	ret

400017f4 <_vfprintf_r>:
400017f4:	eb010113          	addi	sp,sp,-336
400017f8:	14112623          	sw	ra,332(sp)
400017fc:	14812423          	sw	s0,328(sp)
40001800:	13312e23          	sw	s3,316(sp)
40001804:	13412c23          	sw	s4,312(sp)
40001808:	00058993          	mv	s3,a1
4000180c:	00060413          	mv	s0,a2
40001810:	02d12023          	sw	a3,32(sp)
40001814:	14912223          	sw	s1,324(sp)
40001818:	15212023          	sw	s2,320(sp)
4000181c:	13512a23          	sw	s5,308(sp)
40001820:	13612823          	sw	s6,304(sp)
40001824:	13712623          	sw	s7,300(sp)
40001828:	13812423          	sw	s8,296(sp)
4000182c:	13912223          	sw	s9,292(sp)
40001830:	13a12023          	sw	s10,288(sp)
40001834:	11b12e23          	sw	s11,284(sp)
40001838:	00050a13          	mv	s4,a0
4000183c:	218040ef          	jal	ra,40005a54 <_localeconv_r>
40001840:	00052783          	lw	a5,0(a0)
40001844:	00078513          	mv	a0,a5
40001848:	04f12423          	sw	a5,72(sp)
4000184c:	129050ef          	jal	ra,40007174 <strlen>
40001850:	04a12023          	sw	a0,64(sp)
40001854:	000a0663          	beqz	s4,40001860 <_vfprintf_r+0x6c>
40001858:	038a2783          	lw	a5,56(s4)
4000185c:	2a0788e3          	beqz	a5,4000230c <_vfprintf_r+0xb18>
40001860:	00c99703          	lh	a4,12(s3)
40001864:	01071793          	slli	a5,a4,0x10
40001868:	0107d793          	srli	a5,a5,0x10
4000186c:	01279693          	slli	a3,a5,0x12
40001870:	0206c663          	bltz	a3,4000189c <_vfprintf_r+0xa8>
40001874:	0649a683          	lw	a3,100(s3)
40001878:	000027b7          	lui	a5,0x2
4000187c:	00f767b3          	or	a5,a4,a5
40001880:	ffffe737          	lui	a4,0xffffe
40001884:	fff70713          	addi	a4,a4,-1 # ffffdfff <end+0xbffed21f>
40001888:	00e6f733          	and	a4,a3,a4
4000188c:	00f99623          	sh	a5,12(s3)
40001890:	01079793          	slli	a5,a5,0x10
40001894:	06e9a223          	sw	a4,100(s3)
40001898:	0107d793          	srli	a5,a5,0x10
4000189c:	0087f713          	andi	a4,a5,8
400018a0:	040706e3          	beqz	a4,400020ec <_vfprintf_r+0x8f8>
400018a4:	0109a703          	lw	a4,16(s3)
400018a8:	040702e3          	beqz	a4,400020ec <_vfprintf_r+0x8f8>
400018ac:	01a7f793          	andi	a5,a5,26
400018b0:	00a00713          	li	a4,10
400018b4:	04e78ce3          	beq	a5,a4,4000210c <_vfprintf_r+0x918>
400018b8:	4000e7b7          	lui	a5,0x4000e
400018bc:	c407a703          	lw	a4,-960(a5) # 4000dc40 <__clz_tab+0x10c>
400018c0:	c447a783          	lw	a5,-956(a5)
400018c4:	0d010d13          	addi	s10,sp,208
400018c8:	04e12823          	sw	a4,80(sp)
400018cc:	00078693          	mv	a3,a5
400018d0:	04f12a23          	sw	a5,84(sp)
400018d4:	4000d7b7          	lui	a5,0x4000d
400018d8:	5a078793          	addi	a5,a5,1440 # 4000d5a0 <__clzsi2+0x618>
400018dc:	09a12e23          	sw	s10,156(sp)
400018e0:	0a012223          	sw	zero,164(sp)
400018e4:	0a012023          	sw	zero,160(sp)
400018e8:	02012a23          	sw	zero,52(sp)
400018ec:	02012c23          	sw	zero,56(sp)
400018f0:	02012e23          	sw	zero,60(sp)
400018f4:	000d0313          	mv	t1,s10
400018f8:	04012223          	sw	zero,68(sp)
400018fc:	04012623          	sw	zero,76(sp)
40001900:	00012e23          	sw	zero,28(sp)
40001904:	02f12223          	sw	a5,36(sp)
40001908:	04e12c23          	sw	a4,88(sp)
4000190c:	04d12e23          	sw	a3,92(sp)
40001910:	00044783          	lbu	a5,0(s0)
40001914:	50078463          	beqz	a5,40001e1c <_vfprintf_r+0x628>
40001918:	02500713          	li	a4,37
4000191c:	00040493          	mv	s1,s0
40001920:	00e79663          	bne	a5,a4,4000192c <_vfprintf_r+0x138>
40001924:	0540006f          	j	40001978 <_vfprintf_r+0x184>
40001928:	00e78863          	beq	a5,a4,40001938 <_vfprintf_r+0x144>
4000192c:	00148493          	addi	s1,s1,1
40001930:	0004c783          	lbu	a5,0(s1)
40001934:	fe079ae3          	bnez	a5,40001928 <_vfprintf_r+0x134>
40001938:	40848933          	sub	s2,s1,s0
4000193c:	02090e63          	beqz	s2,40001978 <_vfprintf_r+0x184>
40001940:	0a412703          	lw	a4,164(sp)
40001944:	0a012783          	lw	a5,160(sp)
40001948:	00832023          	sw	s0,0(t1)
4000194c:	01270733          	add	a4,a4,s2
40001950:	00178793          	addi	a5,a5,1
40001954:	01232223          	sw	s2,4(t1)
40001958:	0ae12223          	sw	a4,164(sp)
4000195c:	0af12023          	sw	a5,160(sp)
40001960:	00700713          	li	a4,7
40001964:	00830313          	addi	t1,t1,8
40001968:	0ef74ae3          	blt	a4,a5,4000225c <_vfprintf_r+0xa68>
4000196c:	01c12783          	lw	a5,28(sp)
40001970:	012787b3          	add	a5,a5,s2
40001974:	00f12e23          	sw	a5,28(sp)
40001978:	0004c783          	lbu	a5,0(s1)
4000197c:	5a078e63          	beqz	a5,40001f38 <_vfprintf_r+0x744>
40001980:	fff00b13          	li	s6,-1
40001984:	00148413          	addi	s0,s1,1
40001988:	06010fa3          	sb	zero,127(sp)
4000198c:	00000613          	li	a2,0
40001990:	00000593          	li	a1,0
40001994:	00000493          	li	s1,0
40001998:	00000d93          	li	s11,0
4000199c:	05800713          	li	a4,88
400019a0:	00900693          	li	a3,9
400019a4:	02a00893          	li	a7,42
400019a8:	000b0f93          	mv	t6,s6
400019ac:	00100513          	li	a0,1
400019b0:	02000f13          	li	t5,32
400019b4:	02b00813          	li	a6,43
400019b8:	00044a83          	lbu	s5,0(s0)
400019bc:	00140413          	addi	s0,s0,1
400019c0:	fe0a8793          	addi	a5,s5,-32
400019c4:	60f760e3          	bltu	a4,a5,400027c4 <_vfprintf_r+0xfd0>
400019c8:	02412e03          	lw	t3,36(sp)
400019cc:	00279793          	slli	a5,a5,0x2
400019d0:	01c787b3          	add	a5,a5,t3
400019d4:	0007a783          	lw	a5,0(a5)
400019d8:	00078067          	jr	a5
400019dc:	010ded93          	ori	s11,s11,16
400019e0:	fd9ff06f          	j	400019b8 <_vfprintf_r+0x1c4>
400019e4:	010ded93          	ori	s11,s11,16
400019e8:	010df793          	andi	a5,s11,16
400019ec:	00078463          	beqz	a5,400019f4 <_vfprintf_r+0x200>
400019f0:	1940106f          	j	40002b84 <_vfprintf_r+0x1390>
400019f4:	040df793          	andi	a5,s11,64
400019f8:	02012703          	lw	a4,32(sp)
400019fc:	5a079ae3          	bnez	a5,400027b0 <_vfprintf_r+0xfbc>
40001a00:	00072c03          	lw	s8,0(a4)
40001a04:	00470713          	addi	a4,a4,4
40001a08:	00000793          	li	a5,0
40001a0c:	02e12023          	sw	a4,32(sp)
40001a10:	06010fa3          	sb	zero,127(sp)
40001a14:	00000613          	li	a2,0
40001a18:	fff00713          	li	a4,-1
40001a1c:	08eb0c63          	beq	s6,a4,40001ab4 <_vfprintf_r+0x2c0>
40001a20:	f7fdf713          	andi	a4,s11,-129
40001a24:	00e12a23          	sw	a4,20(sp)
40001a28:	080c1a63          	bnez	s8,40001abc <_vfprintf_r+0x2c8>
40001a2c:	000b18e3          	bnez	s6,4000223c <_vfprintf_r+0xa48>
40001a30:	1a0794e3          	bnez	a5,400023d8 <_vfprintf_r+0xbe4>
40001a34:	001dfc13          	andi	s8,s11,1
40001a38:	000d0913          	mv	s2,s10
40001a3c:	0a0c0c63          	beqz	s8,40001af4 <_vfprintf_r+0x300>
40001a40:	03000793          	li	a5,48
40001a44:	0cf107a3          	sb	a5,207(sp)
40001a48:	0cf10913          	addi	s2,sp,207
40001a4c:	0a80006f          	j	40001af4 <_vfprintf_r+0x300>
40001a50:	010ded93          	ori	s11,s11,16
40001a54:	010df793          	andi	a5,s11,16
40001a58:	04079263          	bnez	a5,40001a9c <_vfprintf_r+0x2a8>
40001a5c:	040df793          	andi	a5,s11,64
40001a60:	02012703          	lw	a4,32(sp)
40001a64:	02078e63          	beqz	a5,40001aa0 <_vfprintf_r+0x2ac>
40001a68:	00075c03          	lhu	s8,0(a4)
40001a6c:	00470713          	addi	a4,a4,4
40001a70:	00100793          	li	a5,1
40001a74:	02e12023          	sw	a4,32(sp)
40001a78:	f99ff06f          	j	40001a10 <_vfprintf_r+0x21c>
40001a7c:	02012783          	lw	a5,32(sp)
40001a80:	0007a483          	lw	s1,0(a5)
40001a84:	00478793          	addi	a5,a5,4
40001a88:	02f12023          	sw	a5,32(sp)
40001a8c:	f204d6e3          	bgez	s1,400019b8 <_vfprintf_r+0x1c4>
40001a90:	409004b3          	neg	s1,s1
40001a94:	004ded93          	ori	s11,s11,4
40001a98:	f21ff06f          	j	400019b8 <_vfprintf_r+0x1c4>
40001a9c:	02012703          	lw	a4,32(sp)
40001aa0:	00072c03          	lw	s8,0(a4)
40001aa4:	00470713          	addi	a4,a4,4
40001aa8:	00100793          	li	a5,1
40001aac:	02e12023          	sw	a4,32(sp)
40001ab0:	f61ff06f          	j	40001a10 <_vfprintf_r+0x21c>
40001ab4:	780c0663          	beqz	s8,40002240 <_vfprintf_r+0xa4c>
40001ab8:	01b12a23          	sw	s11,20(sp)
40001abc:	00100713          	li	a4,1
40001ac0:	5ae78ce3          	beq	a5,a4,40002878 <_vfprintf_r+0x1084>
40001ac4:	00200713          	li	a4,2
40001ac8:	7ee79c63          	bne	a5,a4,400022c0 <_vfprintf_r+0xacc>
40001acc:	04412703          	lw	a4,68(sp)
40001ad0:	000d0913          	mv	s2,s10
40001ad4:	00fc7793          	andi	a5,s8,15
40001ad8:	00f707b3          	add	a5,a4,a5
40001adc:	0007c783          	lbu	a5,0(a5)
40001ae0:	fff90913          	addi	s2,s2,-1
40001ae4:	004c5c13          	srli	s8,s8,0x4
40001ae8:	00f90023          	sb	a5,0(s2)
40001aec:	fe0c14e3          	bnez	s8,40001ad4 <_vfprintf_r+0x2e0>
40001af0:	412d0c33          	sub	s8,s10,s2
40001af4:	01612823          	sw	s6,16(sp)
40001af8:	018b5463          	ble	s8,s6,40001b00 <_vfprintf_r+0x30c>
40001afc:	01812823          	sw	s8,16(sp)
40001b00:	02012823          	sw	zero,48(sp)
40001b04:	00060863          	beqz	a2,40001b14 <_vfprintf_r+0x320>
40001b08:	01012783          	lw	a5,16(sp)
40001b0c:	00178793          	addi	a5,a5,1
40001b10:	00f12823          	sw	a5,16(sp)
40001b14:	01412783          	lw	a5,20(sp)
40001b18:	0027f793          	andi	a5,a5,2
40001b1c:	02f12423          	sw	a5,40(sp)
40001b20:	00078863          	beqz	a5,40001b30 <_vfprintf_r+0x33c>
40001b24:	01012783          	lw	a5,16(sp)
40001b28:	00278793          	addi	a5,a5,2
40001b2c:	00f12823          	sw	a5,16(sp)
40001b30:	01412783          	lw	a5,20(sp)
40001b34:	0847f793          	andi	a5,a5,132
40001b38:	02f12623          	sw	a5,44(sp)
40001b3c:	2e079463          	bnez	a5,40001e24 <_vfprintf_r+0x630>
40001b40:	01012783          	lw	a5,16(sp)
40001b44:	40f48bb3          	sub	s7,s1,a5
40001b48:	2d705e63          	blez	s7,40001e24 <_vfprintf_r+0x630>
40001b4c:	4000d6b7          	lui	a3,0x4000d
40001b50:	01000813          	li	a6,16
40001b54:	0a412783          	lw	a5,164(sp)
40001b58:	0a012703          	lw	a4,160(sp)
40001b5c:	70468c93          	addi	s9,a3,1796 # 4000d704 <blanks.4138>
40001b60:	07785263          	ble	s7,a6,40001bc4 <_vfprintf_r+0x3d0>
40001b64:	00700d93          	li	s11,7
40001b68:	00c0006f          	j	40001b74 <_vfprintf_r+0x380>
40001b6c:	ff0b8b93          	addi	s7,s7,-16
40001b70:	05785a63          	ble	s7,a6,40001bc4 <_vfprintf_r+0x3d0>
40001b74:	01078793          	addi	a5,a5,16
40001b78:	00170713          	addi	a4,a4,1
40001b7c:	01932023          	sw	s9,0(t1)
40001b80:	01032223          	sw	a6,4(t1)
40001b84:	0af12223          	sw	a5,164(sp)
40001b88:	0ae12023          	sw	a4,160(sp)
40001b8c:	00830313          	addi	t1,t1,8
40001b90:	fceddee3          	ble	a4,s11,40001b6c <_vfprintf_r+0x378>
40001b94:	09c10613          	addi	a2,sp,156
40001b98:	00098593          	mv	a1,s3
40001b9c:	000a0513          	mv	a0,s4
40001ba0:	01012c23          	sw	a6,24(sp)
40001ba4:	758050ef          	jal	ra,400072fc <__sprint_r>
40001ba8:	3a051463          	bnez	a0,40001f50 <_vfprintf_r+0x75c>
40001bac:	01812803          	lw	a6,24(sp)
40001bb0:	ff0b8b93          	addi	s7,s7,-16
40001bb4:	0a412783          	lw	a5,164(sp)
40001bb8:	0a012703          	lw	a4,160(sp)
40001bbc:	000d0313          	mv	t1,s10
40001bc0:	fb784ae3          	blt	a6,s7,40001b74 <_vfprintf_r+0x380>
40001bc4:	00fb87b3          	add	a5,s7,a5
40001bc8:	00170713          	addi	a4,a4,1
40001bcc:	01932023          	sw	s9,0(t1)
40001bd0:	01732223          	sw	s7,4(t1)
40001bd4:	0af12223          	sw	a5,164(sp)
40001bd8:	0ae12023          	sw	a4,160(sp)
40001bdc:	00700693          	li	a3,7
40001be0:	4ee6c6e3          	blt	a3,a4,400028cc <_vfprintf_r+0x10d8>
40001be4:	07f14603          	lbu	a2,127(sp)
40001be8:	00830313          	addi	t1,t1,8
40001bec:	02060a63          	beqz	a2,40001c20 <_vfprintf_r+0x42c>
40001bf0:	0a012703          	lw	a4,160(sp)
40001bf4:	07f10693          	addi	a3,sp,127
40001bf8:	00d32023          	sw	a3,0(t1)
40001bfc:	00178793          	addi	a5,a5,1
40001c00:	00100693          	li	a3,1
40001c04:	00170713          	addi	a4,a4,1
40001c08:	00d32223          	sw	a3,4(t1)
40001c0c:	0af12223          	sw	a5,164(sp)
40001c10:	0ae12023          	sw	a4,160(sp)
40001c14:	00700693          	li	a3,7
40001c18:	00830313          	addi	t1,t1,8
40001c1c:	64e6ce63          	blt	a3,a4,40002278 <_vfprintf_r+0xa84>
40001c20:	02812703          	lw	a4,40(sp)
40001c24:	02070a63          	beqz	a4,40001c58 <_vfprintf_r+0x464>
40001c28:	0a012703          	lw	a4,160(sp)
40001c2c:	08010693          	addi	a3,sp,128
40001c30:	00d32023          	sw	a3,0(t1)
40001c34:	00278793          	addi	a5,a5,2
40001c38:	00200693          	li	a3,2
40001c3c:	00170713          	addi	a4,a4,1
40001c40:	00d32223          	sw	a3,4(t1)
40001c44:	0af12223          	sw	a5,164(sp)
40001c48:	0ae12023          	sw	a4,160(sp)
40001c4c:	00700693          	li	a3,7
40001c50:	00830313          	addi	t1,t1,8
40001c54:	64e6c263          	blt	a3,a4,40002298 <_vfprintf_r+0xaa4>
40001c58:	02c12683          	lw	a3,44(sp)
40001c5c:	08000713          	li	a4,128
40001c60:	3ce68463          	beq	a3,a4,40002028 <_vfprintf_r+0x834>
40001c64:	418b0b33          	sub	s6,s6,s8
40001c68:	0b605863          	blez	s6,40001d18 <_vfprintf_r+0x524>
40001c6c:	4000d6b7          	lui	a3,0x4000d
40001c70:	01000d93          	li	s11,16
40001c74:	0a012703          	lw	a4,160(sp)
40001c78:	71468b93          	addi	s7,a3,1812 # 4000d714 <zeroes.4139>
40001c7c:	056dde63          	ble	s6,s11,40001cd8 <_vfprintf_r+0x4e4>
40001c80:	00700c93          	li	s9,7
40001c84:	00c0006f          	j	40001c90 <_vfprintf_r+0x49c>
40001c88:	ff0b0b13          	addi	s6,s6,-16
40001c8c:	056dd663          	ble	s6,s11,40001cd8 <_vfprintf_r+0x4e4>
40001c90:	01078793          	addi	a5,a5,16
40001c94:	00170713          	addi	a4,a4,1
40001c98:	01732023          	sw	s7,0(t1)
40001c9c:	01b32223          	sw	s11,4(t1)
40001ca0:	0af12223          	sw	a5,164(sp)
40001ca4:	0ae12023          	sw	a4,160(sp)
40001ca8:	00830313          	addi	t1,t1,8
40001cac:	fcecdee3          	ble	a4,s9,40001c88 <_vfprintf_r+0x494>
40001cb0:	09c10613          	addi	a2,sp,156
40001cb4:	00098593          	mv	a1,s3
40001cb8:	000a0513          	mv	a0,s4
40001cbc:	640050ef          	jal	ra,400072fc <__sprint_r>
40001cc0:	28051863          	bnez	a0,40001f50 <_vfprintf_r+0x75c>
40001cc4:	ff0b0b13          	addi	s6,s6,-16
40001cc8:	0a412783          	lw	a5,164(sp)
40001ccc:	0a012703          	lw	a4,160(sp)
40001cd0:	000d0313          	mv	t1,s10
40001cd4:	fb6dcee3          	blt	s11,s6,40001c90 <_vfprintf_r+0x49c>
40001cd8:	016787b3          	add	a5,a5,s6
40001cdc:	00170713          	addi	a4,a4,1
40001ce0:	01732023          	sw	s7,0(t1)
40001ce4:	01632223          	sw	s6,4(t1)
40001ce8:	0af12223          	sw	a5,164(sp)
40001cec:	0ae12023          	sw	a4,160(sp)
40001cf0:	00700693          	li	a3,7
40001cf4:	00830313          	addi	t1,t1,8
40001cf8:	02e6d063          	ble	a4,a3,40001d18 <_vfprintf_r+0x524>
40001cfc:	09c10613          	addi	a2,sp,156
40001d00:	00098593          	mv	a1,s3
40001d04:	000a0513          	mv	a0,s4
40001d08:	5f4050ef          	jal	ra,400072fc <__sprint_r>
40001d0c:	24051263          	bnez	a0,40001f50 <_vfprintf_r+0x75c>
40001d10:	0a412783          	lw	a5,164(sp)
40001d14:	000d0313          	mv	t1,s10
40001d18:	01412703          	lw	a4,20(sp)
40001d1c:	10077713          	andi	a4,a4,256
40001d20:	26071e63          	bnez	a4,40001f9c <_vfprintf_r+0x7a8>
40001d24:	0a012703          	lw	a4,160(sp)
40001d28:	018787b3          	add	a5,a5,s8
40001d2c:	01232023          	sw	s2,0(t1)
40001d30:	00170713          	addi	a4,a4,1
40001d34:	01832223          	sw	s8,4(t1)
40001d38:	0af12223          	sw	a5,164(sp)
40001d3c:	0ae12023          	sw	a4,160(sp)
40001d40:	00700693          	li	a3,7
40001d44:	1ce6ca63          	blt	a3,a4,40001f18 <_vfprintf_r+0x724>
40001d48:	00830313          	addi	t1,t1,8
40001d4c:	01412703          	lw	a4,20(sp)
40001d50:	00477b13          	andi	s6,a4,4
40001d54:	080b0e63          	beqz	s6,40001df0 <_vfprintf_r+0x5fc>
40001d58:	01012703          	lw	a4,16(sp)
40001d5c:	40e48933          	sub	s2,s1,a4
40001d60:	09205863          	blez	s2,40001df0 <_vfprintf_r+0x5fc>
40001d64:	4000d6b7          	lui	a3,0x4000d
40001d68:	01000a93          	li	s5,16
40001d6c:	0a012703          	lw	a4,160(sp)
40001d70:	70468c93          	addi	s9,a3,1796 # 4000d704 <blanks.4138>
40001d74:	052ade63          	ble	s2,s5,40001dd0 <_vfprintf_r+0x5dc>
40001d78:	00700b13          	li	s6,7
40001d7c:	00c0006f          	j	40001d88 <_vfprintf_r+0x594>
40001d80:	ff090913          	addi	s2,s2,-16
40001d84:	052ad663          	ble	s2,s5,40001dd0 <_vfprintf_r+0x5dc>
40001d88:	01078793          	addi	a5,a5,16
40001d8c:	00170713          	addi	a4,a4,1
40001d90:	01932023          	sw	s9,0(t1)
40001d94:	01532223          	sw	s5,4(t1)
40001d98:	0af12223          	sw	a5,164(sp)
40001d9c:	0ae12023          	sw	a4,160(sp)
40001da0:	00830313          	addi	t1,t1,8
40001da4:	fceb5ee3          	ble	a4,s6,40001d80 <_vfprintf_r+0x58c>
40001da8:	09c10613          	addi	a2,sp,156
40001dac:	00098593          	mv	a1,s3
40001db0:	000a0513          	mv	a0,s4
40001db4:	548050ef          	jal	ra,400072fc <__sprint_r>
40001db8:	18051c63          	bnez	a0,40001f50 <_vfprintf_r+0x75c>
40001dbc:	ff090913          	addi	s2,s2,-16
40001dc0:	0a412783          	lw	a5,164(sp)
40001dc4:	0a012703          	lw	a4,160(sp)
40001dc8:	000d0313          	mv	t1,s10
40001dcc:	fb2acee3          	blt	s5,s2,40001d88 <_vfprintf_r+0x594>
40001dd0:	012787b3          	add	a5,a5,s2
40001dd4:	00170713          	addi	a4,a4,1
40001dd8:	01932023          	sw	s9,0(t1)
40001ddc:	01232223          	sw	s2,4(t1)
40001de0:	0af12223          	sw	a5,164(sp)
40001de4:	0ae12023          	sw	a4,160(sp)
40001de8:	00700693          	li	a3,7
40001dec:	1ae6c4e3          	blt	a3,a4,40002794 <_vfprintf_r+0xfa0>
40001df0:	01012703          	lw	a4,16(sp)
40001df4:	00e4d463          	ble	a4,s1,40001dfc <_vfprintf_r+0x608>
40001df8:	00070493          	mv	s1,a4
40001dfc:	01c12703          	lw	a4,28(sp)
40001e00:	00970733          	add	a4,a4,s1
40001e04:	00e12e23          	sw	a4,28(sp)
40001e08:	40079e63          	bnez	a5,40002224 <_vfprintf_r+0xa30>
40001e0c:	00044783          	lbu	a5,0(s0)
40001e10:	0a012023          	sw	zero,160(sp)
40001e14:	000d0313          	mv	t1,s10
40001e18:	b00790e3          	bnez	a5,40001918 <_vfprintf_r+0x124>
40001e1c:	00040493          	mv	s1,s0
40001e20:	b59ff06f          	j	40001978 <_vfprintf_r+0x184>
40001e24:	0a412783          	lw	a5,164(sp)
40001e28:	dc5ff06f          	j	40001bec <_vfprintf_r+0x3f8>
40001e2c:	0a012703          	lw	a4,160(sp)
40001e30:	4000d637          	lui	a2,0x4000d
40001e34:	76460613          	addi	a2,a2,1892 # 4000d764 <zeroes.4139+0x50>
40001e38:	00c32023          	sw	a2,0(t1)
40001e3c:	00178793          	addi	a5,a5,1
40001e40:	00100613          	li	a2,1
40001e44:	00170713          	addi	a4,a4,1
40001e48:	00c32223          	sw	a2,4(t1)
40001e4c:	0af12223          	sw	a5,164(sp)
40001e50:	0ae12023          	sw	a4,160(sp)
40001e54:	00700613          	li	a2,7
40001e58:	00830313          	addi	t1,t1,8
40001e5c:	02e65263          	ble	a4,a2,40001e80 <_vfprintf_r+0x68c>
40001e60:	09c10613          	addi	a2,sp,156
40001e64:	00098593          	mv	a1,s3
40001e68:	000a0513          	mv	a0,s4
40001e6c:	490050ef          	jal	ra,400072fc <__sprint_r>
40001e70:	0e051063          	bnez	a0,40001f50 <_vfprintf_r+0x75c>
40001e74:	08412683          	lw	a3,132(sp)
40001e78:	0a412783          	lw	a5,164(sp)
40001e7c:	000d0313          	mv	t1,s10
40001e80:	00069c63          	bnez	a3,40001e98 <_vfprintf_r+0x6a4>
40001e84:	03412703          	lw	a4,52(sp)
40001e88:	00071863          	bnez	a4,40001e98 <_vfprintf_r+0x6a4>
40001e8c:	01412703          	lw	a4,20(sp)
40001e90:	00177713          	andi	a4,a4,1
40001e94:	ea070ce3          	beqz	a4,40001d4c <_vfprintf_r+0x558>
40001e98:	04812703          	lw	a4,72(sp)
40001e9c:	04012603          	lw	a2,64(sp)
40001ea0:	00830313          	addi	t1,t1,8
40001ea4:	fee32c23          	sw	a4,-8(t1)
40001ea8:	0a012703          	lw	a4,160(sp)
40001eac:	00f607b3          	add	a5,a2,a5
40001eb0:	fec32e23          	sw	a2,-4(t1)
40001eb4:	00170713          	addi	a4,a4,1
40001eb8:	0af12223          	sw	a5,164(sp)
40001ebc:	0ae12023          	sw	a4,160(sp)
40001ec0:	00700613          	li	a2,7
40001ec4:	02e65463          	ble	a4,a2,40001eec <_vfprintf_r+0x6f8>
40001ec8:	09c10613          	addi	a2,sp,156
40001ecc:	00098593          	mv	a1,s3
40001ed0:	000a0513          	mv	a0,s4
40001ed4:	428050ef          	jal	ra,400072fc <__sprint_r>
40001ed8:	06051c63          	bnez	a0,40001f50 <_vfprintf_r+0x75c>
40001edc:	08412683          	lw	a3,132(sp)
40001ee0:	0a412783          	lw	a5,164(sp)
40001ee4:	0a012703          	lw	a4,160(sp)
40001ee8:	000d0313          	mv	t1,s10
40001eec:	0006d463          	bgez	a3,40001ef4 <_vfprintf_r+0x700>
40001ef0:	2900106f          	j	40003180 <_vfprintf_r+0x198c>
40001ef4:	03412683          	lw	a3,52(sp)
40001ef8:	00170713          	addi	a4,a4,1
40001efc:	01232023          	sw	s2,0(t1)
40001f00:	00f687b3          	add	a5,a3,a5
40001f04:	00d32223          	sw	a3,4(t1)
40001f08:	0af12223          	sw	a5,164(sp)
40001f0c:	0ae12023          	sw	a4,160(sp)
40001f10:	00700693          	li	a3,7
40001f14:	e2e6dae3          	ble	a4,a3,40001d48 <_vfprintf_r+0x554>
40001f18:	09c10613          	addi	a2,sp,156
40001f1c:	00098593          	mv	a1,s3
40001f20:	000a0513          	mv	a0,s4
40001f24:	3d8050ef          	jal	ra,400072fc <__sprint_r>
40001f28:	02051463          	bnez	a0,40001f50 <_vfprintf_r+0x75c>
40001f2c:	0a412783          	lw	a5,164(sp)
40001f30:	000d0313          	mv	t1,s10
40001f34:	e19ff06f          	j	40001d4c <_vfprintf_r+0x558>
40001f38:	0a412783          	lw	a5,164(sp)
40001f3c:	00078a63          	beqz	a5,40001f50 <_vfprintf_r+0x75c>
40001f40:	09c10613          	addi	a2,sp,156
40001f44:	00098593          	mv	a1,s3
40001f48:	000a0513          	mv	a0,s4
40001f4c:	3b0050ef          	jal	ra,400072fc <__sprint_r>
40001f50:	00c9d783          	lhu	a5,12(s3)
40001f54:	0407f793          	andi	a5,a5,64
40001f58:	640790e3          	bnez	a5,40002d98 <_vfprintf_r+0x15a4>
40001f5c:	14c12083          	lw	ra,332(sp)
40001f60:	01c12503          	lw	a0,28(sp)
40001f64:	14812403          	lw	s0,328(sp)
40001f68:	14412483          	lw	s1,324(sp)
40001f6c:	14012903          	lw	s2,320(sp)
40001f70:	13c12983          	lw	s3,316(sp)
40001f74:	13812a03          	lw	s4,312(sp)
40001f78:	13412a83          	lw	s5,308(sp)
40001f7c:	13012b03          	lw	s6,304(sp)
40001f80:	12c12b83          	lw	s7,300(sp)
40001f84:	12812c03          	lw	s8,296(sp)
40001f88:	12412c83          	lw	s9,292(sp)
40001f8c:	12012d03          	lw	s10,288(sp)
40001f90:	11c12d83          	lw	s11,284(sp)
40001f94:	15010113          	addi	sp,sp,336
40001f98:	00008067          	ret
40001f9c:	06500713          	li	a4,101
40001fa0:	19575863          	ble	s5,a4,40002130 <_vfprintf_r+0x93c>
40001fa4:	03812683          	lw	a3,56(sp)
40001fa8:	03c12703          	lw	a4,60(sp)
40001fac:	00000613          	li	a2,0
40001fb0:	00068513          	mv	a0,a3
40001fb4:	00070593          	mv	a1,a4
40001fb8:	00000693          	li	a3,0
40001fbc:	02612423          	sw	t1,40(sp)
40001fc0:	00f12c23          	sw	a5,24(sp)
40001fc4:	108090ef          	jal	ra,4000b0cc <__eqdf2>
40001fc8:	01812783          	lw	a5,24(sp)
40001fcc:	02812303          	lw	t1,40(sp)
40001fd0:	34051463          	bnez	a0,40002318 <_vfprintf_r+0xb24>
40001fd4:	0a012703          	lw	a4,160(sp)
40001fd8:	4000d6b7          	lui	a3,0x4000d
40001fdc:	76468693          	addi	a3,a3,1892 # 4000d764 <zeroes.4139+0x50>
40001fe0:	00178793          	addi	a5,a5,1
40001fe4:	00d32023          	sw	a3,0(t1)
40001fe8:	00170713          	addi	a4,a4,1
40001fec:	00100693          	li	a3,1
40001ff0:	00d32223          	sw	a3,4(t1)
40001ff4:	0af12223          	sw	a5,164(sp)
40001ff8:	0ae12023          	sw	a4,160(sp)
40001ffc:	00700793          	li	a5,7
40002000:	00830313          	addi	t1,t1,8
40002004:	56e7cce3          	blt	a5,a4,40002d7c <_vfprintf_r+0x1588>
40002008:	08412783          	lw	a5,132(sp)
4000200c:	03412703          	lw	a4,52(sp)
40002010:	0ee7c0e3          	blt	a5,a4,400028f0 <_vfprintf_r+0x10fc>
40002014:	01412783          	lw	a5,20(sp)
40002018:	0017f793          	andi	a5,a5,1
4000201c:	0c079ae3          	bnez	a5,400028f0 <_vfprintf_r+0x10fc>
40002020:	0a412783          	lw	a5,164(sp)
40002024:	d29ff06f          	j	40001d4c <_vfprintf_r+0x558>
40002028:	01012703          	lw	a4,16(sp)
4000202c:	40e48cb3          	sub	s9,s1,a4
40002030:	c3905ae3          	blez	s9,40001c64 <_vfprintf_r+0x470>
40002034:	4000d6b7          	lui	a3,0x4000d
40002038:	01000d93          	li	s11,16
4000203c:	0a012703          	lw	a4,160(sp)
40002040:	71468b93          	addi	s7,a3,1812 # 4000d714 <zeroes.4139>
40002044:	079dd263          	ble	s9,s11,400020a8 <_vfprintf_r+0x8b4>
40002048:	00700813          	li	a6,7
4000204c:	00c0006f          	j	40002058 <_vfprintf_r+0x864>
40002050:	ff0c8c93          	addi	s9,s9,-16
40002054:	059dda63          	ble	s9,s11,400020a8 <_vfprintf_r+0x8b4>
40002058:	01078793          	addi	a5,a5,16
4000205c:	00170713          	addi	a4,a4,1
40002060:	01732023          	sw	s7,0(t1)
40002064:	01b32223          	sw	s11,4(t1)
40002068:	0af12223          	sw	a5,164(sp)
4000206c:	0ae12023          	sw	a4,160(sp)
40002070:	00830313          	addi	t1,t1,8
40002074:	fce85ee3          	ble	a4,a6,40002050 <_vfprintf_r+0x85c>
40002078:	09c10613          	addi	a2,sp,156
4000207c:	00098593          	mv	a1,s3
40002080:	000a0513          	mv	a0,s4
40002084:	01012c23          	sw	a6,24(sp)
40002088:	274050ef          	jal	ra,400072fc <__sprint_r>
4000208c:	ec0512e3          	bnez	a0,40001f50 <_vfprintf_r+0x75c>
40002090:	ff0c8c93          	addi	s9,s9,-16
40002094:	0a412783          	lw	a5,164(sp)
40002098:	0a012703          	lw	a4,160(sp)
4000209c:	000d0313          	mv	t1,s10
400020a0:	01812803          	lw	a6,24(sp)
400020a4:	fb9dcae3          	blt	s11,s9,40002058 <_vfprintf_r+0x864>
400020a8:	019787b3          	add	a5,a5,s9
400020ac:	00170713          	addi	a4,a4,1
400020b0:	01732023          	sw	s7,0(t1)
400020b4:	01932223          	sw	s9,4(t1)
400020b8:	0af12223          	sw	a5,164(sp)
400020bc:	0ae12023          	sw	a4,160(sp)
400020c0:	00700693          	li	a3,7
400020c4:	00830313          	addi	t1,t1,8
400020c8:	b8e6dee3          	ble	a4,a3,40001c64 <_vfprintf_r+0x470>
400020cc:	09c10613          	addi	a2,sp,156
400020d0:	00098593          	mv	a1,s3
400020d4:	000a0513          	mv	a0,s4
400020d8:	224050ef          	jal	ra,400072fc <__sprint_r>
400020dc:	e6051ae3          	bnez	a0,40001f50 <_vfprintf_r+0x75c>
400020e0:	0a412783          	lw	a5,164(sp)
400020e4:	000d0313          	mv	t1,s10
400020e8:	b7dff06f          	j	40001c64 <_vfprintf_r+0x470>
400020ec:	00098593          	mv	a1,s3
400020f0:	000a0513          	mv	a0,s4
400020f4:	370010ef          	jal	ra,40003464 <__swsetup_r>
400020f8:	4a0510e3          	bnez	a0,40002d98 <_vfprintf_r+0x15a4>
400020fc:	00c9d783          	lhu	a5,12(s3)
40002100:	00a00713          	li	a4,10
40002104:	01a7f793          	andi	a5,a5,26
40002108:	fae79863          	bne	a5,a4,400018b8 <_vfprintf_r+0xc4>
4000210c:	00e99783          	lh	a5,14(s3)
40002110:	fa07c463          	bltz	a5,400018b8 <_vfprintf_r+0xc4>
40002114:	02012683          	lw	a3,32(sp)
40002118:	00040613          	mv	a2,s0
4000211c:	00098593          	mv	a1,s3
40002120:	000a0513          	mv	a0,s4
40002124:	280010ef          	jal	ra,400033a4 <__sbprintf>
40002128:	00a12e23          	sw	a0,28(sp)
4000212c:	e31ff06f          	j	40001f5c <_vfprintf_r+0x768>
40002130:	03412683          	lw	a3,52(sp)
40002134:	00100713          	li	a4,1
40002138:	6cd75063          	ble	a3,a4,400027f8 <_vfprintf_r+0x1004>
4000213c:	0a012a83          	lw	s5,160(sp)
40002140:	00100713          	li	a4,1
40002144:	00178793          	addi	a5,a5,1
40002148:	001a8a93          	addi	s5,s5,1
4000214c:	00e32223          	sw	a4,4(t1)
40002150:	01232023          	sw	s2,0(t1)
40002154:	0af12223          	sw	a5,164(sp)
40002158:	0b512023          	sw	s5,160(sp)
4000215c:	00700713          	li	a4,7
40002160:	00830313          	addi	t1,t1,8
40002164:	1f574ee3          	blt	a4,s5,40002b60 <_vfprintf_r+0x136c>
40002168:	04012703          	lw	a4,64(sp)
4000216c:	001a8a93          	addi	s5,s5,1
40002170:	0b512023          	sw	s5,160(sp)
40002174:	00f70b33          	add	s6,a4,a5
40002178:	04812783          	lw	a5,72(sp)
4000217c:	00e32223          	sw	a4,4(t1)
40002180:	0b612223          	sw	s6,164(sp)
40002184:	00f32023          	sw	a5,0(t1)
40002188:	00700713          	li	a4,7
4000218c:	00830c13          	addi	s8,t1,8
40002190:	235740e3          	blt	a4,s5,40002bb0 <_vfprintf_r+0x13bc>
40002194:	03812683          	lw	a3,56(sp)
40002198:	03c12703          	lw	a4,60(sp)
4000219c:	00000613          	li	a2,0
400021a0:	00068513          	mv	a0,a3
400021a4:	00070593          	mv	a1,a4
400021a8:	00000693          	li	a3,0
400021ac:	721080ef          	jal	ra,4000b0cc <__eqdf2>
400021b0:	03412783          	lw	a5,52(sp)
400021b4:	22051863          	bnez	a0,400023e4 <_vfprintf_r+0xbf0>
400021b8:	fff78913          	addi	s2,a5,-1
400021bc:	25205a63          	blez	s2,40002410 <_vfprintf_r+0xc1c>
400021c0:	4000d6b7          	lui	a3,0x4000d
400021c4:	01000c93          	li	s9,16
400021c8:	71468b93          	addi	s7,a3,1812 # 4000d714 <zeroes.4139>
400021cc:	1d2cd0e3          	ble	s2,s9,40002b8c <_vfprintf_r+0x1398>
400021d0:	00700d93          	li	s11,7
400021d4:	00c0006f          	j	400021e0 <_vfprintf_r+0x9ec>
400021d8:	ff090913          	addi	s2,s2,-16
400021dc:	1b2cd8e3          	ble	s2,s9,40002b8c <_vfprintf_r+0x1398>
400021e0:	010b0b13          	addi	s6,s6,16
400021e4:	001a8a93          	addi	s5,s5,1
400021e8:	017c2023          	sw	s7,0(s8)
400021ec:	019c2223          	sw	s9,4(s8)
400021f0:	0b612223          	sw	s6,164(sp)
400021f4:	0b512023          	sw	s5,160(sp)
400021f8:	008c0c13          	addi	s8,s8,8
400021fc:	fd5ddee3          	ble	s5,s11,400021d8 <_vfprintf_r+0x9e4>
40002200:	09c10613          	addi	a2,sp,156
40002204:	00098593          	mv	a1,s3
40002208:	000a0513          	mv	a0,s4
4000220c:	0f0050ef          	jal	ra,400072fc <__sprint_r>
40002210:	d40510e3          	bnez	a0,40001f50 <_vfprintf_r+0x75c>
40002214:	0a412b03          	lw	s6,164(sp)
40002218:	0a012a83          	lw	s5,160(sp)
4000221c:	000d0c13          	mv	s8,s10
40002220:	fb9ff06f          	j	400021d8 <_vfprintf_r+0x9e4>
40002224:	09c10613          	addi	a2,sp,156
40002228:	00098593          	mv	a1,s3
4000222c:	000a0513          	mv	a0,s4
40002230:	0cc050ef          	jal	ra,400072fc <__sprint_r>
40002234:	bc050ce3          	beqz	a0,40001e0c <_vfprintf_r+0x618>
40002238:	d19ff06f          	j	40001f50 <_vfprintf_r+0x75c>
4000223c:	01412d83          	lw	s11,20(sp)
40002240:	00100713          	li	a4,1
40002244:	76e78e63          	beq	a5,a4,400029c0 <_vfprintf_r+0x11cc>
40002248:	00200713          	li	a4,2
4000224c:	06e79663          	bne	a5,a4,400022b8 <_vfprintf_r+0xac4>
40002250:	01b12a23          	sw	s11,20(sp)
40002254:	00000c13          	li	s8,0
40002258:	875ff06f          	j	40001acc <_vfprintf_r+0x2d8>
4000225c:	09c10613          	addi	a2,sp,156
40002260:	00098593          	mv	a1,s3
40002264:	000a0513          	mv	a0,s4
40002268:	094050ef          	jal	ra,400072fc <__sprint_r>
4000226c:	ce0512e3          	bnez	a0,40001f50 <_vfprintf_r+0x75c>
40002270:	000d0313          	mv	t1,s10
40002274:	ef8ff06f          	j	4000196c <_vfprintf_r+0x178>
40002278:	09c10613          	addi	a2,sp,156
4000227c:	00098593          	mv	a1,s3
40002280:	000a0513          	mv	a0,s4
40002284:	078050ef          	jal	ra,400072fc <__sprint_r>
40002288:	cc0514e3          	bnez	a0,40001f50 <_vfprintf_r+0x75c>
4000228c:	0a412783          	lw	a5,164(sp)
40002290:	000d0313          	mv	t1,s10
40002294:	98dff06f          	j	40001c20 <_vfprintf_r+0x42c>
40002298:	09c10613          	addi	a2,sp,156
4000229c:	00098593          	mv	a1,s3
400022a0:	000a0513          	mv	a0,s4
400022a4:	058050ef          	jal	ra,400072fc <__sprint_r>
400022a8:	ca0514e3          	bnez	a0,40001f50 <_vfprintf_r+0x75c>
400022ac:	0a412783          	lw	a5,164(sp)
400022b0:	000d0313          	mv	t1,s10
400022b4:	9a5ff06f          	j	40001c58 <_vfprintf_r+0x464>
400022b8:	01b12a23          	sw	s11,20(sp)
400022bc:	00000c13          	li	s8,0
400022c0:	000d0713          	mv	a4,s10
400022c4:	0080006f          	j	400022cc <_vfprintf_r+0xad8>
400022c8:	00090713          	mv	a4,s2
400022cc:	007c7793          	andi	a5,s8,7
400022d0:	03078793          	addi	a5,a5,48
400022d4:	fef70fa3          	sb	a5,-1(a4)
400022d8:	003c5c13          	srli	s8,s8,0x3
400022dc:	fff70913          	addi	s2,a4,-1
400022e0:	fe0c14e3          	bnez	s8,400022c8 <_vfprintf_r+0xad4>
400022e4:	01412683          	lw	a3,20(sp)
400022e8:	0016f693          	andi	a3,a3,1
400022ec:	800682e3          	beqz	a3,40001af0 <_vfprintf_r+0x2fc>
400022f0:	03000693          	li	a3,48
400022f4:	fed78e63          	beq	a5,a3,40001af0 <_vfprintf_r+0x2fc>
400022f8:	ffe70713          	addi	a4,a4,-2
400022fc:	fed90fa3          	sb	a3,-1(s2)
40002300:	40ed0c33          	sub	s8,s10,a4
40002304:	00070913          	mv	s2,a4
40002308:	fecff06f          	j	40001af4 <_vfprintf_r+0x300>
4000230c:	000a0513          	mv	a0,s4
40002310:	0b0030ef          	jal	ra,400053c0 <__sinit>
40002314:	d4cff06f          	j	40001860 <_vfprintf_r+0x6c>
40002318:	08412683          	lw	a3,132(sp)
4000231c:	b0d058e3          	blez	a3,40001e2c <_vfprintf_r+0x638>
40002320:	03012703          	lw	a4,48(sp)
40002324:	03412683          	lw	a3,52(sp)
40002328:	00070a93          	mv	s5,a4
4000232c:	00e6d463          	ble	a4,a3,40002334 <_vfprintf_r+0xb40>
40002330:	00068a93          	mv	s5,a3
40002334:	03505663          	blez	s5,40002360 <_vfprintf_r+0xb6c>
40002338:	0a012703          	lw	a4,160(sp)
4000233c:	015787b3          	add	a5,a5,s5
40002340:	01232023          	sw	s2,0(t1)
40002344:	00170713          	addi	a4,a4,1
40002348:	01532223          	sw	s5,4(t1)
4000234c:	0af12223          	sw	a5,164(sp)
40002350:	0ae12023          	sw	a4,160(sp)
40002354:	00700693          	li	a3,7
40002358:	00830313          	addi	t1,t1,8
4000235c:	24e6cae3          	blt	a3,a4,40002db0 <_vfprintf_r+0x15bc>
40002360:	4c0ac4e3          	bltz	s5,40003028 <_vfprintf_r+0x1834>
40002364:	03012703          	lw	a4,48(sp)
40002368:	41570ab3          	sub	s5,a4,s5
4000236c:	6b505663          	blez	s5,40002a18 <_vfprintf_r+0x1224>
40002370:	4000d6b7          	lui	a3,0x4000d
40002374:	01000c13          	li	s8,16
40002378:	0a012703          	lw	a4,160(sp)
4000237c:	71468b93          	addi	s7,a3,1812 # 4000d714 <zeroes.4139>
40002380:	655c5c63          	ble	s5,s8,400029d8 <_vfprintf_r+0x11e4>
40002384:	00700c93          	li	s9,7
40002388:	00c0006f          	j	40002394 <_vfprintf_r+0xba0>
4000238c:	ff0a8a93          	addi	s5,s5,-16
40002390:	655c5463          	ble	s5,s8,400029d8 <_vfprintf_r+0x11e4>
40002394:	01078793          	addi	a5,a5,16
40002398:	00170713          	addi	a4,a4,1
4000239c:	01732023          	sw	s7,0(t1)
400023a0:	01832223          	sw	s8,4(t1)
400023a4:	0af12223          	sw	a5,164(sp)
400023a8:	0ae12023          	sw	a4,160(sp)
400023ac:	00830313          	addi	t1,t1,8
400023b0:	fcecdee3          	ble	a4,s9,4000238c <_vfprintf_r+0xb98>
400023b4:	09c10613          	addi	a2,sp,156
400023b8:	00098593          	mv	a1,s3
400023bc:	000a0513          	mv	a0,s4
400023c0:	73d040ef          	jal	ra,400072fc <__sprint_r>
400023c4:	b80516e3          	bnez	a0,40001f50 <_vfprintf_r+0x75c>
400023c8:	0a412783          	lw	a5,164(sp)
400023cc:	0a012703          	lw	a4,160(sp)
400023d0:	000d0313          	mv	t1,s10
400023d4:	fb9ff06f          	j	4000238c <_vfprintf_r+0xb98>
400023d8:	00000c13          	li	s8,0
400023dc:	000d0913          	mv	s2,s10
400023e0:	f14ff06f          	j	40001af4 <_vfprintf_r+0x300>
400023e4:	fff78713          	addi	a4,a5,-1
400023e8:	00eb0b33          	add	s6,s6,a4
400023ec:	00190913          	addi	s2,s2,1
400023f0:	001a8a93          	addi	s5,s5,1
400023f4:	00ec2223          	sw	a4,4(s8)
400023f8:	012c2023          	sw	s2,0(s8)
400023fc:	0b612223          	sw	s6,164(sp)
40002400:	0b512023          	sw	s5,160(sp)
40002404:	00700713          	li	a4,7
40002408:	43574263          	blt	a4,s5,4000282c <_vfprintf_r+0x1038>
4000240c:	008c0c13          	addi	s8,s8,8
40002410:	04c12683          	lw	a3,76(sp)
40002414:	08c10713          	addi	a4,sp,140
40002418:	001a8a93          	addi	s5,s5,1
4000241c:	016687b3          	add	a5,a3,s6
40002420:	00ec2023          	sw	a4,0(s8)
40002424:	00dc2223          	sw	a3,4(s8)
40002428:	0af12223          	sw	a5,164(sp)
4000242c:	0b512023          	sw	s5,160(sp)
40002430:	00700713          	li	a4,7
40002434:	008c0313          	addi	t1,s8,8
40002438:	91575ae3          	ble	s5,a4,40001d4c <_vfprintf_r+0x558>
4000243c:	addff06f          	j	40001f18 <_vfprintf_r+0x724>
40002440:	00050613          	mv	a2,a0
40002444:	00080593          	mv	a1,a6
40002448:	d70ff06f          	j	400019b8 <_vfprintf_r+0x1c4>
4000244c:	700616e3          	bnez	a2,40003358 <_vfprintf_r+0x1b64>
40002450:	010df793          	andi	a5,s11,16
40002454:	6e079863          	bnez	a5,40002b44 <_vfprintf_r+0x1350>
40002458:	040dfe93          	andi	t4,s11,64
4000245c:	6e0e8463          	beqz	t4,40002b44 <_vfprintf_r+0x1350>
40002460:	02012703          	lw	a4,32(sp)
40002464:	00072783          	lw	a5,0(a4)
40002468:	00470713          	addi	a4,a4,4
4000246c:	02e12023          	sw	a4,32(sp)
40002470:	01c15703          	lhu	a4,28(sp)
40002474:	00e79023          	sh	a4,0(a5)
40002478:	c98ff06f          	j	40001910 <_vfprintf_r+0x11c>
4000247c:	02012783          	lw	a5,32(sp)
40002480:	06010fa3          	sb	zero,127(sp)
40002484:	0007a903          	lw	s2,0(a5)
40002488:	00478b93          	addi	s7,a5,4
4000248c:	3a0902e3          	beqz	s2,40003030 <_vfprintf_r+0x183c>
40002490:	fff00793          	li	a5,-1
40002494:	22fb0ae3          	beq	s6,a5,40002ec8 <_vfprintf_r+0x16d4>
40002498:	000b0613          	mv	a2,s6
4000249c:	00000593          	li	a1,0
400024a0:	00090513          	mv	a0,s2
400024a4:	00612823          	sw	t1,16(sp)
400024a8:	7b0030ef          	jal	ra,40005c58 <memchr>
400024ac:	01012303          	lw	t1,16(sp)
400024b0:	4c0502e3          	beqz	a0,40003174 <_vfprintf_r+0x1980>
400024b4:	41250c33          	sub	s8,a0,s2
400024b8:	01812823          	sw	s8,16(sp)
400024bc:	220c44e3          	bltz	s8,40002ee4 <_vfprintf_r+0x16f0>
400024c0:	07f14603          	lbu	a2,127(sp)
400024c4:	03712023          	sw	s7,32(sp)
400024c8:	01b12a23          	sw	s11,20(sp)
400024cc:	00000b13          	li	s6,0
400024d0:	02012823          	sw	zero,48(sp)
400024d4:	e30ff06f          	j	40001b04 <_vfprintf_r+0x310>
400024d8:	680614e3          	bnez	a2,40003360 <_vfprintf_r+0x1b6c>
400024dc:	010ded93          	ori	s11,s11,16
400024e0:	010df793          	andi	a5,s11,16
400024e4:	38079063          	bnez	a5,40002864 <_vfprintf_r+0x1070>
400024e8:	040df793          	andi	a5,s11,64
400024ec:	36078c63          	beqz	a5,40002864 <_vfprintf_r+0x1070>
400024f0:	02012783          	lw	a5,32(sp)
400024f4:	00079c03          	lh	s8,0(a5)
400024f8:	00478793          	addi	a5,a5,4
400024fc:	02f12023          	sw	a5,32(sp)
40002500:	6c0c4a63          	bltz	s8,40002bd4 <_vfprintf_r+0x13e0>
40002504:	07f14603          	lbu	a2,127(sp)
40002508:	00100793          	li	a5,1
4000250c:	d0cff06f          	j	40001a18 <_vfprintf_r+0x224>
40002510:	62061ce3          	bnez	a2,40003348 <_vfprintf_r+0x1b54>
40002514:	008df793          	andi	a5,s11,8
40002518:	02078ee3          	beqz	a5,40002d54 <_vfprintf_r+0x1560>
4000251c:	02012703          	lw	a4,32(sp)
40002520:	06010513          	addi	a0,sp,96
40002524:	00612823          	sw	t1,16(sp)
40002528:	00072783          	lw	a5,0(a4)
4000252c:	00470693          	addi	a3,a4,4
40002530:	02d12023          	sw	a3,32(sp)
40002534:	0007a703          	lw	a4,0(a5)
40002538:	06e12023          	sw	a4,96(sp)
4000253c:	0047a703          	lw	a4,4(a5)
40002540:	06e12223          	sw	a4,100(sp)
40002544:	0087a703          	lw	a4,8(a5)
40002548:	06e12423          	sw	a4,104(sp)
4000254c:	00c7a783          	lw	a5,12(a5)
40002550:	06f12623          	sw	a5,108(sp)
40002554:	55c0a0ef          	jal	ra,4000cab0 <__trunctfdf2>
40002558:	01012303          	lw	t1,16(sp)
4000255c:	02a12c23          	sw	a0,56(sp)
40002560:	02b12e23          	sw	a1,60(sp)
40002564:	03c12783          	lw	a5,60(sp)
40002568:	80000937          	lui	s2,0x80000
4000256c:	03812b83          	lw	s7,56(sp)
40002570:	fff94913          	not	s2,s2
40002574:	05012603          	lw	a2,80(sp)
40002578:	05412683          	lw	a3,84(sp)
4000257c:	0127f933          	and	s2,a5,s2
40002580:	000b8513          	mv	a0,s7
40002584:	00090593          	mv	a1,s2
40002588:	00612823          	sw	t1,16(sp)
4000258c:	761090ef          	jal	ra,4000c4ec <__unorddf2>
40002590:	01012303          	lw	t1,16(sp)
40002594:	64051c63          	bnez	a0,40002bec <_vfprintf_r+0x13f8>
40002598:	05812603          	lw	a2,88(sp)
4000259c:	05c12683          	lw	a3,92(sp)
400025a0:	000b8513          	mv	a0,s7
400025a4:	00090593          	mv	a1,s2
400025a8:	4b5080ef          	jal	ra,4000b25c <__ledf2>
400025ac:	01012303          	lw	t1,16(sp)
400025b0:	62a05e63          	blez	a0,40002bec <_vfprintf_r+0x13f8>
400025b4:	03812703          	lw	a4,56(sp)
400025b8:	03c12783          	lw	a5,60(sp)
400025bc:	00000613          	li	a2,0
400025c0:	00070513          	mv	a0,a4
400025c4:	00078593          	mv	a1,a5
400025c8:	00000693          	li	a3,0
400025cc:	00612823          	sw	t1,16(sp)
400025d0:	48d080ef          	jal	ra,4000b25c <__ledf2>
400025d4:	01012303          	lw	t1,16(sp)
400025d8:	28054ee3          	bltz	a0,40003074 <_vfprintf_r+0x1880>
400025dc:	07f14603          	lbu	a2,127(sp)
400025e0:	04700793          	li	a5,71
400025e4:	7d57d063          	ble	s5,a5,40002da4 <_vfprintf_r+0x15b0>
400025e8:	4000d937          	lui	s2,0x4000d
400025ec:	72890913          	addi	s2,s2,1832 # 4000d728 <zeroes.4139+0x14>
400025f0:	00300793          	li	a5,3
400025f4:	f7fdf713          	andi	a4,s11,-129
400025f8:	00f12823          	sw	a5,16(sp)
400025fc:	00e12a23          	sw	a4,20(sp)
40002600:	00078c13          	mv	s8,a5
40002604:	00000b13          	li	s6,0
40002608:	02012823          	sw	zero,48(sp)
4000260c:	cf8ff06f          	j	40001b04 <_vfprintf_r+0x310>
40002610:	00044a83          	lbu	s5,0(s0)
40002614:	00140413          	addi	s0,s0,1
40002618:	4f1a84e3          	beq	s5,a7,40003300 <_vfprintf_r+0x1b0c>
4000261c:	fd0a8e13          	addi	t3,s5,-48
40002620:	00000b13          	li	s6,0
40002624:	b9c6ee63          	bltu	a3,t3,400019c0 <_vfprintf_r+0x1cc>
40002628:	00140413          	addi	s0,s0,1
4000262c:	002b1793          	slli	a5,s6,0x2
40002630:	fff44a83          	lbu	s5,-1(s0)
40002634:	016787b3          	add	a5,a5,s6
40002638:	00179793          	slli	a5,a5,0x1
4000263c:	01c78b33          	add	s6,a5,t3
40002640:	fd0a8e13          	addi	t3,s5,-48
40002644:	ffc6f2e3          	bleu	t3,a3,40002628 <_vfprintf_r+0xe34>
40002648:	b78ff06f          	j	400019c0 <_vfprintf_r+0x1cc>
4000264c:	080ded93          	ori	s11,s11,128
40002650:	b68ff06f          	j	400019b8 <_vfprintf_r+0x1c4>
40002654:	040ded93          	ori	s11,s11,64
40002658:	b60ff06f          	j	400019b8 <_vfprintf_r+0x1c4>
4000265c:	50061ee3          	bnez	a2,40003378 <_vfprintf_r+0x1b84>
40002660:	4000d7b7          	lui	a5,0x4000d
40002664:	74878793          	addi	a5,a5,1864 # 4000d748 <zeroes.4139+0x34>
40002668:	04f12223          	sw	a5,68(sp)
4000266c:	010df793          	andi	a5,s11,16
40002670:	1e079063          	bnez	a5,40002850 <_vfprintf_r+0x105c>
40002674:	040df793          	andi	a5,s11,64
40002678:	1c078c63          	beqz	a5,40002850 <_vfprintf_r+0x105c>
4000267c:	02012783          	lw	a5,32(sp)
40002680:	0007dc03          	lhu	s8,0(a5)
40002684:	00478793          	addi	a5,a5,4
40002688:	02f12023          	sw	a5,32(sp)
4000268c:	001df713          	andi	a4,s11,1
40002690:	00200793          	li	a5,2
40002694:	b6070e63          	beqz	a4,40001a10 <_vfprintf_r+0x21c>
40002698:	b60c0c63          	beqz	s8,40001a10 <_vfprintf_r+0x21c>
4000269c:	03000713          	li	a4,48
400026a0:	08e10023          	sb	a4,128(sp)
400026a4:	095100a3          	sb	s5,129(sp)
400026a8:	00fdedb3          	or	s11,s11,a5
400026ac:	b64ff06f          	j	40001a10 <_vfprintf_r+0x21c>
400026b0:	001ded93          	ori	s11,s11,1
400026b4:	b04ff06f          	j	400019b8 <_vfprintf_r+0x1c4>
400026b8:	b0059063          	bnez	a1,400019b8 <_vfprintf_r+0x1c4>
400026bc:	00050613          	mv	a2,a0
400026c0:	000f0593          	mv	a1,t5
400026c4:	af4ff06f          	j	400019b8 <_vfprintf_r+0x1c4>
400026c8:	02012703          	lw	a4,32(sp)
400026cc:	03000793          	li	a5,48
400026d0:	08f10023          	sb	a5,128(sp)
400026d4:	07800793          	li	a5,120
400026d8:	08f100a3          	sb	a5,129(sp)
400026dc:	00470793          	addi	a5,a4,4
400026e0:	02f12023          	sw	a5,32(sp)
400026e4:	4000d7b7          	lui	a5,0x4000d
400026e8:	74878793          	addi	a5,a5,1864 # 4000d748 <zeroes.4139+0x34>
400026ec:	04f12223          	sw	a5,68(sp)
400026f0:	00072c03          	lw	s8,0(a4)
400026f4:	002ded93          	ori	s11,s11,2
400026f8:	00200793          	li	a5,2
400026fc:	07800a93          	li	s5,120
40002700:	b10ff06f          	j	40001a10 <_vfprintf_r+0x21c>
40002704:	00000493          	li	s1,0
40002708:	fd0a8e13          	addi	t3,s5,-48
4000270c:	00140413          	addi	s0,s0,1
40002710:	00249793          	slli	a5,s1,0x2
40002714:	fff44a83          	lbu	s5,-1(s0)
40002718:	009787b3          	add	a5,a5,s1
4000271c:	00179793          	slli	a5,a5,0x1
40002720:	00fe04b3          	add	s1,t3,a5
40002724:	fd0a8e13          	addi	t3,s5,-48
40002728:	ffc6f2e3          	bleu	t3,a3,4000270c <_vfprintf_r+0xf18>
4000272c:	a94ff06f          	j	400019c0 <_vfprintf_r+0x1cc>
40002730:	008ded93          	ori	s11,s11,8
40002734:	a84ff06f          	j	400019b8 <_vfprintf_r+0x1c4>
40002738:	02012703          	lw	a4,32(sp)
4000273c:	00100693          	li	a3,1
40002740:	00d12823          	sw	a3,16(sp)
40002744:	00072783          	lw	a5,0(a4)
40002748:	06010fa3          	sb	zero,127(sp)
4000274c:	01b12a23          	sw	s11,20(sp)
40002750:	0af10423          	sb	a5,168(sp)
40002754:	00470793          	addi	a5,a4,4
40002758:	02f12023          	sw	a5,32(sp)
4000275c:	00000613          	li	a2,0
40002760:	00068c13          	mv	s8,a3
40002764:	00000b13          	li	s6,0
40002768:	02012823          	sw	zero,48(sp)
4000276c:	0a810913          	addi	s2,sp,168
40002770:	ba4ff06f          	j	40001b14 <_vfprintf_r+0x320>
40002774:	d60606e3          	beqz	a2,400024e0 <_vfprintf_r+0xcec>
40002778:	06b10fa3          	sb	a1,127(sp)
4000277c:	d65ff06f          	j	400024e0 <_vfprintf_r+0xcec>
40002780:	3e0618e3          	bnez	a2,40003370 <_vfprintf_r+0x1b7c>
40002784:	4000d7b7          	lui	a5,0x4000d
40002788:	73478793          	addi	a5,a5,1844 # 4000d734 <zeroes.4139+0x20>
4000278c:	04f12223          	sw	a5,68(sp)
40002790:	eddff06f          	j	4000266c <_vfprintf_r+0xe78>
40002794:	09c10613          	addi	a2,sp,156
40002798:	00098593          	mv	a1,s3
4000279c:	000a0513          	mv	a0,s4
400027a0:	35d040ef          	jal	ra,400072fc <__sprint_r>
400027a4:	fa051663          	bnez	a0,40001f50 <_vfprintf_r+0x75c>
400027a8:	0a412783          	lw	a5,164(sp)
400027ac:	e44ff06f          	j	40001df0 <_vfprintf_r+0x5fc>
400027b0:	00075c03          	lhu	s8,0(a4)
400027b4:	00470713          	addi	a4,a4,4
400027b8:	00000793          	li	a5,0
400027bc:	02e12023          	sw	a4,32(sp)
400027c0:	a50ff06f          	j	40001a10 <_vfprintf_r+0x21c>
400027c4:	3a0612e3          	bnez	a2,40003368 <_vfprintf_r+0x1b74>
400027c8:	f60a8863          	beqz	s5,40001f38 <_vfprintf_r+0x744>
400027cc:	00100793          	li	a5,1
400027d0:	00f12823          	sw	a5,16(sp)
400027d4:	0b510423          	sb	s5,168(sp)
400027d8:	06010fa3          	sb	zero,127(sp)
400027dc:	01b12a23          	sw	s11,20(sp)
400027e0:	00000613          	li	a2,0
400027e4:	00078c13          	mv	s8,a5
400027e8:	00000b13          	li	s6,0
400027ec:	02012823          	sw	zero,48(sp)
400027f0:	0a810913          	addi	s2,sp,168
400027f4:	b20ff06f          	j	40001b14 <_vfprintf_r+0x320>
400027f8:	01412683          	lw	a3,20(sp)
400027fc:	00e6f6b3          	and	a3,a3,a4
40002800:	92069ee3          	bnez	a3,4000213c <_vfprintf_r+0x948>
40002804:	0a012a83          	lw	s5,160(sp)
40002808:	00178b13          	addi	s6,a5,1
4000280c:	00e32223          	sw	a4,4(t1)
40002810:	001a8a93          	addi	s5,s5,1
40002814:	01232023          	sw	s2,0(t1)
40002818:	0b612223          	sw	s6,164(sp)
4000281c:	0b512023          	sw	s5,160(sp)
40002820:	00700713          	li	a4,7
40002824:	00830c13          	addi	s8,t1,8
40002828:	bf5754e3          	ble	s5,a4,40002410 <_vfprintf_r+0xc1c>
4000282c:	09c10613          	addi	a2,sp,156
40002830:	00098593          	mv	a1,s3
40002834:	000a0513          	mv	a0,s4
40002838:	2c5040ef          	jal	ra,400072fc <__sprint_r>
4000283c:	f0051a63          	bnez	a0,40001f50 <_vfprintf_r+0x75c>
40002840:	0a412b03          	lw	s6,164(sp)
40002844:	0a012a83          	lw	s5,160(sp)
40002848:	000d0c13          	mv	s8,s10
4000284c:	bc5ff06f          	j	40002410 <_vfprintf_r+0xc1c>
40002850:	02012783          	lw	a5,32(sp)
40002854:	0007ac03          	lw	s8,0(a5)
40002858:	00478793          	addi	a5,a5,4
4000285c:	02f12023          	sw	a5,32(sp)
40002860:	e2dff06f          	j	4000268c <_vfprintf_r+0xe98>
40002864:	02012783          	lw	a5,32(sp)
40002868:	0007ac03          	lw	s8,0(a5)
4000286c:	00478793          	addi	a5,a5,4
40002870:	02f12023          	sw	a5,32(sp)
40002874:	c8dff06f          	j	40002500 <_vfprintf_r+0xd0c>
40002878:	00900793          	li	a5,9
4000287c:	000d0913          	mv	s2,s10
40002880:	00a00b93          	li	s7,10
40002884:	00030c93          	mv	s9,t1
40002888:	00060d93          	mv	s11,a2
4000288c:	1387f863          	bleu	s8,a5,400029bc <_vfprintf_r+0x11c8>
40002890:	000b8593          	mv	a1,s7
40002894:	000c0513          	mv	a0,s8
40002898:	68c0a0ef          	jal	ra,4000cf24 <__umodsi3>
4000289c:	03050513          	addi	a0,a0,48
400028a0:	fff90913          	addi	s2,s2,-1
400028a4:	00a90023          	sb	a0,0(s2)
400028a8:	000b8593          	mv	a1,s7
400028ac:	000c0513          	mv	a0,s8
400028b0:	62c0a0ef          	jal	ra,4000cedc <__udivsi3>
400028b4:	00050c13          	mv	s8,a0
400028b8:	fc051ce3          	bnez	a0,40002890 <_vfprintf_r+0x109c>
400028bc:	000c8313          	mv	t1,s9
400028c0:	000d8613          	mv	a2,s11
400028c4:	412d0c33          	sub	s8,s10,s2
400028c8:	a2cff06f          	j	40001af4 <_vfprintf_r+0x300>
400028cc:	09c10613          	addi	a2,sp,156
400028d0:	00098593          	mv	a1,s3
400028d4:	000a0513          	mv	a0,s4
400028d8:	225040ef          	jal	ra,400072fc <__sprint_r>
400028dc:	e6051a63          	bnez	a0,40001f50 <_vfprintf_r+0x75c>
400028e0:	07f14603          	lbu	a2,127(sp)
400028e4:	0a412783          	lw	a5,164(sp)
400028e8:	000d0313          	mv	t1,s10
400028ec:	b00ff06f          	j	40001bec <_vfprintf_r+0x3f8>
400028f0:	04812783          	lw	a5,72(sp)
400028f4:	04012683          	lw	a3,64(sp)
400028f8:	0a012703          	lw	a4,160(sp)
400028fc:	00f32023          	sw	a5,0(t1)
40002900:	0a412783          	lw	a5,164(sp)
40002904:	00170713          	addi	a4,a4,1
40002908:	00d32223          	sw	a3,4(t1)
4000290c:	00f687b3          	add	a5,a3,a5
40002910:	0af12223          	sw	a5,164(sp)
40002914:	0ae12023          	sw	a4,160(sp)
40002918:	00700693          	li	a3,7
4000291c:	00830313          	addi	t1,t1,8
40002920:	58e6c463          	blt	a3,a4,40002ea8 <_vfprintf_r+0x16b4>
40002924:	03412703          	lw	a4,52(sp)
40002928:	fff70913          	addi	s2,a4,-1
4000292c:	c3205063          	blez	s2,40001d4c <_vfprintf_r+0x558>
40002930:	4000d6b7          	lui	a3,0x4000d
40002934:	01000a93          	li	s5,16
40002938:	0a012703          	lw	a4,160(sp)
4000293c:	71468b93          	addi	s7,a3,1812 # 4000d714 <zeroes.4139>
40002940:	052adc63          	ble	s2,s5,40002998 <_vfprintf_r+0x11a4>
40002944:	00700c13          	li	s8,7
40002948:	00c0006f          	j	40002954 <_vfprintf_r+0x1160>
4000294c:	ff090913          	addi	s2,s2,-16
40002950:	052ad463          	ble	s2,s5,40002998 <_vfprintf_r+0x11a4>
40002954:	01078793          	addi	a5,a5,16
40002958:	00170713          	addi	a4,a4,1
4000295c:	01732023          	sw	s7,0(t1)
40002960:	01532223          	sw	s5,4(t1)
40002964:	0af12223          	sw	a5,164(sp)
40002968:	0ae12023          	sw	a4,160(sp)
4000296c:	00830313          	addi	t1,t1,8
40002970:	fcec5ee3          	ble	a4,s8,4000294c <_vfprintf_r+0x1158>
40002974:	09c10613          	addi	a2,sp,156
40002978:	00098593          	mv	a1,s3
4000297c:	000a0513          	mv	a0,s4
40002980:	17d040ef          	jal	ra,400072fc <__sprint_r>
40002984:	dc051663          	bnez	a0,40001f50 <_vfprintf_r+0x75c>
40002988:	0a412783          	lw	a5,164(sp)
4000298c:	0a012703          	lw	a4,160(sp)
40002990:	000d0313          	mv	t1,s10
40002994:	fb9ff06f          	j	4000294c <_vfprintf_r+0x1158>
40002998:	01732023          	sw	s7,0(t1)
4000299c:	01232223          	sw	s2,4(t1)
400029a0:	012787b3          	add	a5,a5,s2
400029a4:	00170713          	addi	a4,a4,1
400029a8:	0af12223          	sw	a5,164(sp)
400029ac:	0ae12023          	sw	a4,160(sp)
400029b0:	00700693          	li	a3,7
400029b4:	b8e6da63          	ble	a4,a3,40001d48 <_vfprintf_r+0x554>
400029b8:	d60ff06f          	j	40001f18 <_vfprintf_r+0x724>
400029bc:	01412d83          	lw	s11,20(sp)
400029c0:	030c0c13          	addi	s8,s8,48
400029c4:	0d8107a3          	sb	s8,207(sp)
400029c8:	01b12a23          	sw	s11,20(sp)
400029cc:	00100c13          	li	s8,1
400029d0:	0cf10913          	addi	s2,sp,207
400029d4:	920ff06f          	j	40001af4 <_vfprintf_r+0x300>
400029d8:	015787b3          	add	a5,a5,s5
400029dc:	00170713          	addi	a4,a4,1
400029e0:	01732023          	sw	s7,0(t1)
400029e4:	01532223          	sw	s5,4(t1)
400029e8:	0af12223          	sw	a5,164(sp)
400029ec:	0ae12023          	sw	a4,160(sp)
400029f0:	00700693          	li	a3,7
400029f4:	00830313          	addi	t1,t1,8
400029f8:	02e6d063          	ble	a4,a3,40002a18 <_vfprintf_r+0x1224>
400029fc:	09c10613          	addi	a2,sp,156
40002a00:	00098593          	mv	a1,s3
40002a04:	000a0513          	mv	a0,s4
40002a08:	0f5040ef          	jal	ra,400072fc <__sprint_r>
40002a0c:	d4051263          	bnez	a0,40001f50 <_vfprintf_r+0x75c>
40002a10:	0a412783          	lw	a5,164(sp)
40002a14:	000d0313          	mv	t1,s10
40002a18:	08412703          	lw	a4,132(sp)
40002a1c:	03412683          	lw	a3,52(sp)
40002a20:	0cd74863          	blt	a4,a3,40002af0 <_vfprintf_r+0x12fc>
40002a24:	01412683          	lw	a3,20(sp)
40002a28:	0016f693          	andi	a3,a3,1
40002a2c:	0c069263          	bnez	a3,40002af0 <_vfprintf_r+0x12fc>
40002a30:	03412683          	lw	a3,52(sp)
40002a34:	03012603          	lw	a2,48(sp)
40002a38:	40e68733          	sub	a4,a3,a4
40002a3c:	40c68ab3          	sub	s5,a3,a2
40002a40:	01575463          	ble	s5,a4,40002a48 <_vfprintf_r+0x1254>
40002a44:	00070a93          	mv	s5,a4
40002a48:	03505a63          	blez	s5,40002a7c <_vfprintf_r+0x1288>
40002a4c:	0a012603          	lw	a2,160(sp)
40002a50:	03012683          	lw	a3,48(sp)
40002a54:	015787b3          	add	a5,a5,s5
40002a58:	00160613          	addi	a2,a2,1
40002a5c:	00d906b3          	add	a3,s2,a3
40002a60:	00d32023          	sw	a3,0(t1)
40002a64:	01532223          	sw	s5,4(t1)
40002a68:	0af12223          	sw	a5,164(sp)
40002a6c:	0ac12023          	sw	a2,160(sp)
40002a70:	00700693          	li	a3,7
40002a74:	00830313          	addi	t1,t1,8
40002a78:	34c6cc63          	blt	a3,a2,40002dd0 <_vfprintf_r+0x15dc>
40002a7c:	5e0ac463          	bltz	s5,40003064 <_vfprintf_r+0x1870>
40002a80:	41570933          	sub	s2,a4,s5
40002a84:	ad205463          	blez	s2,40001d4c <_vfprintf_r+0x558>
40002a88:	4000d6b7          	lui	a3,0x4000d
40002a8c:	01000a93          	li	s5,16
40002a90:	0a012703          	lw	a4,160(sp)
40002a94:	71468b93          	addi	s7,a3,1812 # 4000d714 <zeroes.4139>
40002a98:	f12ad0e3          	ble	s2,s5,40002998 <_vfprintf_r+0x11a4>
40002a9c:	00700c13          	li	s8,7
40002aa0:	00c0006f          	j	40002aac <_vfprintf_r+0x12b8>
40002aa4:	ff090913          	addi	s2,s2,-16
40002aa8:	ef2ad8e3          	ble	s2,s5,40002998 <_vfprintf_r+0x11a4>
40002aac:	01078793          	addi	a5,a5,16
40002ab0:	00170713          	addi	a4,a4,1
40002ab4:	01732023          	sw	s7,0(t1)
40002ab8:	01532223          	sw	s5,4(t1)
40002abc:	0af12223          	sw	a5,164(sp)
40002ac0:	0ae12023          	sw	a4,160(sp)
40002ac4:	00830313          	addi	t1,t1,8
40002ac8:	fcec5ee3          	ble	a4,s8,40002aa4 <_vfprintf_r+0x12b0>
40002acc:	09c10613          	addi	a2,sp,156
40002ad0:	00098593          	mv	a1,s3
40002ad4:	000a0513          	mv	a0,s4
40002ad8:	025040ef          	jal	ra,400072fc <__sprint_r>
40002adc:	c6051a63          	bnez	a0,40001f50 <_vfprintf_r+0x75c>
40002ae0:	0a412783          	lw	a5,164(sp)
40002ae4:	0a012703          	lw	a4,160(sp)
40002ae8:	000d0313          	mv	t1,s10
40002aec:	fb9ff06f          	j	40002aa4 <_vfprintf_r+0x12b0>
40002af0:	04812683          	lw	a3,72(sp)
40002af4:	04012603          	lw	a2,64(sp)
40002af8:	00830313          	addi	t1,t1,8
40002afc:	fed32c23          	sw	a3,-8(t1)
40002b00:	0a012683          	lw	a3,160(sp)
40002b04:	00c787b3          	add	a5,a5,a2
40002b08:	fec32e23          	sw	a2,-4(t1)
40002b0c:	00168693          	addi	a3,a3,1
40002b10:	0af12223          	sw	a5,164(sp)
40002b14:	0ad12023          	sw	a3,160(sp)
40002b18:	00700613          	li	a2,7
40002b1c:	f0d65ae3          	ble	a3,a2,40002a30 <_vfprintf_r+0x123c>
40002b20:	09c10613          	addi	a2,sp,156
40002b24:	00098593          	mv	a1,s3
40002b28:	000a0513          	mv	a0,s4
40002b2c:	7d0040ef          	jal	ra,400072fc <__sprint_r>
40002b30:	c2051063          	bnez	a0,40001f50 <_vfprintf_r+0x75c>
40002b34:	08412703          	lw	a4,132(sp)
40002b38:	0a412783          	lw	a5,164(sp)
40002b3c:	000d0313          	mv	t1,s10
40002b40:	ef1ff06f          	j	40002a30 <_vfprintf_r+0x123c>
40002b44:	02012703          	lw	a4,32(sp)
40002b48:	00072783          	lw	a5,0(a4)
40002b4c:	00470713          	addi	a4,a4,4
40002b50:	02e12023          	sw	a4,32(sp)
40002b54:	01c12703          	lw	a4,28(sp)
40002b58:	00e7a023          	sw	a4,0(a5)
40002b5c:	db5fe06f          	j	40001910 <_vfprintf_r+0x11c>
40002b60:	09c10613          	addi	a2,sp,156
40002b64:	00098593          	mv	a1,s3
40002b68:	000a0513          	mv	a0,s4
40002b6c:	790040ef          	jal	ra,400072fc <__sprint_r>
40002b70:	be051063          	bnez	a0,40001f50 <_vfprintf_r+0x75c>
40002b74:	0a412783          	lw	a5,164(sp)
40002b78:	0a012a83          	lw	s5,160(sp)
40002b7c:	000d0313          	mv	t1,s10
40002b80:	de8ff06f          	j	40002168 <_vfprintf_r+0x974>
40002b84:	02012703          	lw	a4,32(sp)
40002b88:	e79fe06f          	j	40001a00 <_vfprintf_r+0x20c>
40002b8c:	012b0b33          	add	s6,s6,s2
40002b90:	001a8a93          	addi	s5,s5,1
40002b94:	017c2023          	sw	s7,0(s8)
40002b98:	012c2223          	sw	s2,4(s8)
40002b9c:	0b612223          	sw	s6,164(sp)
40002ba0:	0b512023          	sw	s5,160(sp)
40002ba4:	00700713          	li	a4,7
40002ba8:	875752e3          	ble	s5,a4,4000240c <_vfprintf_r+0xc18>
40002bac:	c81ff06f          	j	4000282c <_vfprintf_r+0x1038>
40002bb0:	09c10613          	addi	a2,sp,156
40002bb4:	00098593          	mv	a1,s3
40002bb8:	000a0513          	mv	a0,s4
40002bbc:	740040ef          	jal	ra,400072fc <__sprint_r>
40002bc0:	b8051863          	bnez	a0,40001f50 <_vfprintf_r+0x75c>
40002bc4:	0a412b03          	lw	s6,164(sp)
40002bc8:	0a012a83          	lw	s5,160(sp)
40002bcc:	000d0c13          	mv	s8,s10
40002bd0:	dc4ff06f          	j	40002194 <_vfprintf_r+0x9a0>
40002bd4:	02d00793          	li	a5,45
40002bd8:	06f10fa3          	sb	a5,127(sp)
40002bdc:	41800c33          	neg	s8,s8
40002be0:	02d00613          	li	a2,45
40002be4:	00100793          	li	a5,1
40002be8:	e31fe06f          	j	40001a18 <_vfprintf_r+0x224>
40002bec:	03812803          	lw	a6,56(sp)
40002bf0:	03c12583          	lw	a1,60(sp)
40002bf4:	00612823          	sw	t1,16(sp)
40002bf8:	00080613          	mv	a2,a6
40002bfc:	00080513          	mv	a0,a6
40002c00:	00058693          	mv	a3,a1
40002c04:	0e9090ef          	jal	ra,4000c4ec <__unorddf2>
40002c08:	01012303          	lw	t1,16(sp)
40002c0c:	66051e63          	bnez	a0,40003288 <_vfprintf_r+0x1a94>
40002c10:	fff00793          	li	a5,-1
40002c14:	fdfafb93          	andi	s7,s5,-33
40002c18:	44fb0a63          	beq	s6,a5,4000306c <_vfprintf_r+0x1878>
40002c1c:	04700793          	li	a5,71
40002c20:	22fb8e63          	beq	s7,a5,40002e5c <_vfprintf_r+0x1668>
40002c24:	100de793          	ori	a5,s11,256
40002c28:	00f12a23          	sw	a5,20(sp)
40002c2c:	03c12783          	lw	a5,60(sp)
40002c30:	00012c23          	sw	zero,24(sp)
40002c34:	00078c93          	mv	s9,a5
40002c38:	4807c863          	bltz	a5,400030c8 <_vfprintf_r+0x18d4>
40002c3c:	06600793          	li	a5,102
40002c40:	44fa8263          	beq	s5,a5,40003084 <_vfprintf_r+0x1890>
40002c44:	04600793          	li	a5,70
40002c48:	1afa8a63          	beq	s5,a5,40002dfc <_vfprintf_r+0x1608>
40002c4c:	03812703          	lw	a4,56(sp)
40002c50:	fbbb8793          	addi	a5,s7,-69
40002c54:	0017b593          	seqz	a1,a5
40002c58:	00bb0e33          	add	t3,s6,a1
40002c5c:	09410793          	addi	a5,sp,148
40002c60:	00070613          	mv	a2,a4
40002c64:	00f12023          	sw	a5,0(sp)
40002c68:	000c8693          	mv	a3,s9
40002c6c:	000e0793          	mv	a5,t3
40002c70:	08810893          	addi	a7,sp,136
40002c74:	08410813          	addi	a6,sp,132
40002c78:	00200713          	li	a4,2
40002c7c:	000a0513          	mv	a0,s4
40002c80:	02612423          	sw	t1,40(sp)
40002c84:	01c12823          	sw	t3,16(sp)
40002c88:	36d000ef          	jal	ra,400037f4 <_dtoa_r>
40002c8c:	06700793          	li	a5,103
40002c90:	00050913          	mv	s2,a0
40002c94:	01012e03          	lw	t3,16(sp)
40002c98:	02812303          	lw	t1,40(sp)
40002c9c:	4afa9463          	bne	s5,a5,40003144 <_vfprintf_r+0x1950>
40002ca0:	001df793          	andi	a5,s11,1
40002ca4:	01c50c33          	add	s8,a0,t3
40002ca8:	5a078c63          	beqz	a5,40003260 <_vfprintf_r+0x1a6c>
40002cac:	03812783          	lw	a5,56(sp)
40002cb0:	000c8593          	mv	a1,s9
40002cb4:	00000613          	li	a2,0
40002cb8:	00078513          	mv	a0,a5
40002cbc:	00000693          	li	a3,0
40002cc0:	00612823          	sw	t1,16(sp)
40002cc4:	408080ef          	jal	ra,4000b0cc <__eqdf2>
40002cc8:	000c0793          	mv	a5,s8
40002ccc:	01012303          	lw	t1,16(sp)
40002cd0:	02050263          	beqz	a0,40002cf4 <_vfprintf_r+0x1500>
40002cd4:	09412783          	lw	a5,148(sp)
40002cd8:	0187fe63          	bleu	s8,a5,40002cf4 <_vfprintf_r+0x1500>
40002cdc:	03000693          	li	a3,48
40002ce0:	00178713          	addi	a4,a5,1
40002ce4:	08e12a23          	sw	a4,148(sp)
40002ce8:	00d78023          	sb	a3,0(a5)
40002cec:	09412783          	lw	a5,148(sp)
40002cf0:	ff87e8e3          	bltu	a5,s8,40002ce0 <_vfprintf_r+0x14ec>
40002cf4:	412787b3          	sub	a5,a5,s2
40002cf8:	04700713          	li	a4,71
40002cfc:	02f12a23          	sw	a5,52(sp)
40002d00:	20eb8063          	beq	s7,a4,40002f00 <_vfprintf_r+0x170c>
40002d04:	06500793          	li	a5,101
40002d08:	4757d063          	ble	s5,a5,40003168 <_vfprintf_r+0x1974>
40002d0c:	06600793          	li	a5,102
40002d10:	40fa8863          	beq	s5,a5,40003120 <_vfprintf_r+0x192c>
40002d14:	08412783          	lw	a5,132(sp)
40002d18:	02f12823          	sw	a5,48(sp)
40002d1c:	03412703          	lw	a4,52(sp)
40002d20:	03012783          	lw	a5,48(sp)
40002d24:	3ae7cc63          	blt	a5,a4,400030dc <_vfprintf_r+0x18e8>
40002d28:	001dfe93          	andi	t4,s11,1
40002d2c:	3c0e9a63          	bnez	t4,40003100 <_vfprintf_r+0x190c>
40002d30:	00f12823          	sw	a5,16(sp)
40002d34:	6007c663          	bltz	a5,40003340 <_vfprintf_r+0x1b4c>
40002d38:	03012c03          	lw	s8,48(sp)
40002d3c:	06700a93          	li	s5,103
40002d40:	01812783          	lw	a5,24(sp)
40002d44:	1a079463          	bnez	a5,40002eec <_vfprintf_r+0x16f8>
40002d48:	07f14603          	lbu	a2,127(sp)
40002d4c:	00000b13          	li	s6,0
40002d50:	db5fe06f          	j	40001b04 <_vfprintf_r+0x310>
40002d54:	02012783          	lw	a5,32(sp)
40002d58:	00778793          	addi	a5,a5,7
40002d5c:	ff87f793          	andi	a5,a5,-8
40002d60:	0007a703          	lw	a4,0(a5)
40002d64:	00878793          	addi	a5,a5,8
40002d68:	02e12c23          	sw	a4,56(sp)
40002d6c:	ffc7a703          	lw	a4,-4(a5)
40002d70:	02f12023          	sw	a5,32(sp)
40002d74:	02e12e23          	sw	a4,60(sp)
40002d78:	fecff06f          	j	40002564 <_vfprintf_r+0xd70>
40002d7c:	09c10613          	addi	a2,sp,156
40002d80:	00098593          	mv	a1,s3
40002d84:	000a0513          	mv	a0,s4
40002d88:	574040ef          	jal	ra,400072fc <__sprint_r>
40002d8c:	9c051263          	bnez	a0,40001f50 <_vfprintf_r+0x75c>
40002d90:	000d0313          	mv	t1,s10
40002d94:	a74ff06f          	j	40002008 <_vfprintf_r+0x814>
40002d98:	fff00793          	li	a5,-1
40002d9c:	00f12e23          	sw	a5,28(sp)
40002da0:	9bcff06f          	j	40001f5c <_vfprintf_r+0x768>
40002da4:	4000d937          	lui	s2,0x4000d
40002da8:	72490913          	addi	s2,s2,1828 # 4000d724 <zeroes.4139+0x10>
40002dac:	845ff06f          	j	400025f0 <_vfprintf_r+0xdfc>
40002db0:	09c10613          	addi	a2,sp,156
40002db4:	00098593          	mv	a1,s3
40002db8:	000a0513          	mv	a0,s4
40002dbc:	540040ef          	jal	ra,400072fc <__sprint_r>
40002dc0:	98051863          	bnez	a0,40001f50 <_vfprintf_r+0x75c>
40002dc4:	0a412783          	lw	a5,164(sp)
40002dc8:	000d0313          	mv	t1,s10
40002dcc:	d94ff06f          	j	40002360 <_vfprintf_r+0xb6c>
40002dd0:	09c10613          	addi	a2,sp,156
40002dd4:	00098593          	mv	a1,s3
40002dd8:	000a0513          	mv	a0,s4
40002ddc:	520040ef          	jal	ra,400072fc <__sprint_r>
40002de0:	96051863          	bnez	a0,40001f50 <_vfprintf_r+0x75c>
40002de4:	08412703          	lw	a4,132(sp)
40002de8:	03412683          	lw	a3,52(sp)
40002dec:	0a412783          	lw	a5,164(sp)
40002df0:	000d0313          	mv	t1,s10
40002df4:	40e68733          	sub	a4,a3,a4
40002df8:	c85ff06f          	j	40002a7c <_vfprintf_r+0x1288>
40002dfc:	03812703          	lw	a4,56(sp)
40002e00:	09410793          	addi	a5,sp,148
40002e04:	00f12023          	sw	a5,0(sp)
40002e08:	00070613          	mv	a2,a4
40002e0c:	000c8693          	mv	a3,s9
40002e10:	08810893          	addi	a7,sp,136
40002e14:	08410813          	addi	a6,sp,132
40002e18:	000b0793          	mv	a5,s6
40002e1c:	00300713          	li	a4,3
40002e20:	000a0513          	mv	a0,s4
40002e24:	00612823          	sw	t1,16(sp)
40002e28:	1cd000ef          	jal	ra,400037f4 <_dtoa_r>
40002e2c:	01012303          	lw	t1,16(sp)
40002e30:	00050913          	mv	s2,a0
40002e34:	000b0e13          	mv	t3,s6
40002e38:	04600793          	li	a5,70
40002e3c:	01c90c33          	add	s8,s2,t3
40002e40:	e6fa96e3          	bne	s5,a5,40002cac <_vfprintf_r+0x14b8>
40002e44:	00094703          	lbu	a4,0(s2)
40002e48:	03000793          	li	a5,48
40002e4c:	00f70e63          	beq	a4,a5,40002e68 <_vfprintf_r+0x1674>
40002e50:	08412783          	lw	a5,132(sp)
40002e54:	00fc0c33          	add	s8,s8,a5
40002e58:	e55ff06f          	j	40002cac <_vfprintf_r+0x14b8>
40002e5c:	dc0b14e3          	bnez	s6,40002c24 <_vfprintf_r+0x1430>
40002e60:	00100b13          	li	s6,1
40002e64:	dc1ff06f          	j	40002c24 <_vfprintf_r+0x1430>
40002e68:	03812703          	lw	a4,56(sp)
40002e6c:	000c8593          	mv	a1,s9
40002e70:	00000613          	li	a2,0
40002e74:	00070513          	mv	a0,a4
40002e78:	00000693          	li	a3,0
40002e7c:	02612423          	sw	t1,40(sp)
40002e80:	01c12823          	sw	t3,16(sp)
40002e84:	248080ef          	jal	ra,4000b0cc <__eqdf2>
40002e88:	02812303          	lw	t1,40(sp)
40002e8c:	fc0502e3          	beqz	a0,40002e50 <_vfprintf_r+0x165c>
40002e90:	01012e03          	lw	t3,16(sp)
40002e94:	00100793          	li	a5,1
40002e98:	41c787b3          	sub	a5,a5,t3
40002e9c:	08f12223          	sw	a5,132(sp)
40002ea0:	00fc0c33          	add	s8,s8,a5
40002ea4:	e09ff06f          	j	40002cac <_vfprintf_r+0x14b8>
40002ea8:	09c10613          	addi	a2,sp,156
40002eac:	00098593          	mv	a1,s3
40002eb0:	000a0513          	mv	a0,s4
40002eb4:	448040ef          	jal	ra,400072fc <__sprint_r>
40002eb8:	88051c63          	bnez	a0,40001f50 <_vfprintf_r+0x75c>
40002ebc:	0a412783          	lw	a5,164(sp)
40002ec0:	000d0313          	mv	t1,s10
40002ec4:	a61ff06f          	j	40002924 <_vfprintf_r+0x1130>
40002ec8:	00090513          	mv	a0,s2
40002ecc:	00612a23          	sw	t1,20(sp)
40002ed0:	2a4040ef          	jal	ra,40007174 <strlen>
40002ed4:	00a12823          	sw	a0,16(sp)
40002ed8:	00050c13          	mv	s8,a0
40002edc:	01412303          	lw	t1,20(sp)
40002ee0:	de055063          	bgez	a0,400024c0 <_vfprintf_r+0xccc>
40002ee4:	00012823          	sw	zero,16(sp)
40002ee8:	dd8ff06f          	j	400024c0 <_vfprintf_r+0xccc>
40002eec:	02d00793          	li	a5,45
40002ef0:	06f10fa3          	sb	a5,127(sp)
40002ef4:	02d00613          	li	a2,45
40002ef8:	00000b13          	li	s6,0
40002efc:	c0dfe06f          	j	40001b08 <_vfprintf_r+0x314>
40002f00:	08412783          	lw	a5,132(sp)
40002f04:	00078713          	mv	a4,a5
40002f08:	02f12823          	sw	a5,48(sp)
40002f0c:	ffd00793          	li	a5,-3
40002f10:	00f74463          	blt	a4,a5,40002f18 <_vfprintf_r+0x1724>
40002f14:	e0eb54e3          	ble	a4,s6,40002d1c <_vfprintf_r+0x1528>
40002f18:	ffea8a93          	addi	s5,s5,-2
40002f1c:	03012783          	lw	a5,48(sp)
40002f20:	09510623          	sb	s5,140(sp)
40002f24:	fff78b13          	addi	s6,a5,-1
40002f28:	09612223          	sw	s6,132(sp)
40002f2c:	3a0b4e63          	bltz	s6,400032e8 <_vfprintf_r+0x1af4>
40002f30:	02b00713          	li	a4,43
40002f34:	08e106a3          	sb	a4,141(sp)
40002f38:	00900793          	li	a5,9
40002f3c:	3167d663          	ble	s6,a5,40003248 <_vfprintf_r+0x1a54>
40002f40:	09b10c93          	addi	s9,sp,155
40002f44:	02812423          	sw	s0,40(sp)
40002f48:	000c8b93          	mv	s7,s9
40002f4c:	000b0413          	mv	s0,s6
40002f50:	00a00c13          	li	s8,10
40002f54:	00098b13          	mv	s6,s3
40002f58:	00f12823          	sw	a5,16(sp)
40002f5c:	00030993          	mv	s3,t1
40002f60:	0080006f          	j	40002f68 <_vfprintf_r+0x1774>
40002f64:	00068b93          	mv	s7,a3
40002f68:	000c0593          	mv	a1,s8
40002f6c:	00040513          	mv	a0,s0
40002f70:	7e9090ef          	jal	ra,4000cf58 <__modsi3>
40002f74:	03050513          	addi	a0,a0,48
40002f78:	feab8fa3          	sb	a0,-1(s7)
40002f7c:	000c0593          	mv	a1,s8
40002f80:	00040513          	mv	a0,s0
40002f84:	751090ef          	jal	ra,4000ced4 <__divsi3>
40002f88:	01012783          	lw	a5,16(sp)
40002f8c:	00050413          	mv	s0,a0
40002f90:	fffb8693          	addi	a3,s7,-1
40002f94:	fca7c8e3          	blt	a5,a0,40002f64 <_vfprintf_r+0x1770>
40002f98:	03050793          	addi	a5,a0,48
40002f9c:	0ff7f793          	andi	a5,a5,255
40002fa0:	ffeb8b93          	addi	s7,s7,-2
40002fa4:	fef68fa3          	sb	a5,-1(a3)
40002fa8:	00098313          	mv	t1,s3
40002fac:	02812403          	lw	s0,40(sp)
40002fb0:	000b0993          	mv	s3,s6
40002fb4:	399bfe63          	bleu	s9,s7,40003350 <_vfprintf_r+0x1b5c>
40002fb8:	08e10713          	addi	a4,sp,142
40002fbc:	0080006f          	j	40002fc4 <_vfprintf_r+0x17d0>
40002fc0:	000bc783          	lbu	a5,0(s7)
40002fc4:	00170713          	addi	a4,a4,1
40002fc8:	001b8b93          	addi	s7,s7,1
40002fcc:	fef70fa3          	sb	a5,-1(a4)
40002fd0:	ff9b98e3          	bne	s7,s9,40002fc0 <_vfprintf_r+0x17cc>
40002fd4:	09c10793          	addi	a5,sp,156
40002fd8:	40d787b3          	sub	a5,a5,a3
40002fdc:	08e10713          	addi	a4,sp,142
40002fe0:	00f707b3          	add	a5,a4,a5
40002fe4:	08c10713          	addi	a4,sp,140
40002fe8:	03412683          	lw	a3,52(sp)
40002fec:	40e787b3          	sub	a5,a5,a4
40002ff0:	00078713          	mv	a4,a5
40002ff4:	04f12623          	sw	a5,76(sp)
40002ff8:	00100793          	li	a5,1
40002ffc:	00e68c33          	add	s8,a3,a4
40003000:	2cd7d663          	ble	a3,a5,400032cc <_vfprintf_r+0x1ad8>
40003004:	04012783          	lw	a5,64(sp)
40003008:	00fc0c33          	add	s8,s8,a5
4000300c:	01812823          	sw	s8,16(sp)
40003010:	000c4663          	bltz	s8,4000301c <_vfprintf_r+0x1828>
40003014:	02012823          	sw	zero,48(sp)
40003018:	d29ff06f          	j	40002d40 <_vfprintf_r+0x154c>
4000301c:	00012823          	sw	zero,16(sp)
40003020:	02012823          	sw	zero,48(sp)
40003024:	d1dff06f          	j	40002d40 <_vfprintf_r+0x154c>
40003028:	00000a93          	li	s5,0
4000302c:	b38ff06f          	j	40002364 <_vfprintf_r+0xb70>
40003030:	01612823          	sw	s6,16(sp)
40003034:	00600793          	li	a5,6
40003038:	0167f463          	bleu	s6,a5,40003040 <_vfprintf_r+0x184c>
4000303c:	00f12823          	sw	a5,16(sp)
40003040:	4000d937          	lui	s2,0x4000d
40003044:	03712023          	sw	s7,32(sp)
40003048:	01012c03          	lw	s8,16(sp)
4000304c:	01b12a23          	sw	s11,20(sp)
40003050:	00000613          	li	a2,0
40003054:	00000b13          	li	s6,0
40003058:	02012823          	sw	zero,48(sp)
4000305c:	75c90913          	addi	s2,s2,1884 # 4000d75c <zeroes.4139+0x48>
40003060:	ab5fe06f          	j	40001b14 <_vfprintf_r+0x320>
40003064:	00000a93          	li	s5,0
40003068:	a19ff06f          	j	40002a80 <_vfprintf_r+0x128c>
4000306c:	00600b13          	li	s6,6
40003070:	bb5ff06f          	j	40002c24 <_vfprintf_r+0x1430>
40003074:	02d00793          	li	a5,45
40003078:	06f10fa3          	sb	a5,127(sp)
4000307c:	02d00613          	li	a2,45
40003080:	d60ff06f          	j	400025e0 <_vfprintf_r+0xdec>
40003084:	03812703          	lw	a4,56(sp)
40003088:	09410793          	addi	a5,sp,148
4000308c:	00f12023          	sw	a5,0(sp)
40003090:	00070613          	mv	a2,a4
40003094:	000c8693          	mv	a3,s9
40003098:	08810893          	addi	a7,sp,136
4000309c:	08410813          	addi	a6,sp,132
400030a0:	000b0793          	mv	a5,s6
400030a4:	00300713          	li	a4,3
400030a8:	000a0513          	mv	a0,s4
400030ac:	00612823          	sw	t1,16(sp)
400030b0:	744000ef          	jal	ra,400037f4 <_dtoa_r>
400030b4:	00050913          	mv	s2,a0
400030b8:	01650c33          	add	s8,a0,s6
400030bc:	000b0e13          	mv	t3,s6
400030c0:	01012303          	lw	t1,16(sp)
400030c4:	d81ff06f          	j	40002e44 <_vfprintf_r+0x1650>
400030c8:	80000cb7          	lui	s9,0x80000
400030cc:	0197ccb3          	xor	s9,a5,s9
400030d0:	02d00793          	li	a5,45
400030d4:	00f12c23          	sw	a5,24(sp)
400030d8:	b65ff06f          	j	40002c3c <_vfprintf_r+0x1448>
400030dc:	03412783          	lw	a5,52(sp)
400030e0:	04012703          	lw	a4,64(sp)
400030e4:	00e78c33          	add	s8,a5,a4
400030e8:	03012783          	lw	a5,48(sp)
400030ec:	1cf05863          	blez	a5,400032bc <_vfprintf_r+0x1ac8>
400030f0:	01812823          	sw	s8,16(sp)
400030f4:	020c4063          	bltz	s8,40003114 <_vfprintf_r+0x1920>
400030f8:	06700a93          	li	s5,103
400030fc:	c45ff06f          	j	40002d40 <_vfprintf_r+0x154c>
40003100:	03012783          	lw	a5,48(sp)
40003104:	04012703          	lw	a4,64(sp)
40003108:	00e78c33          	add	s8,a5,a4
4000310c:	01812823          	sw	s8,16(sp)
40003110:	fe0c54e3          	bgez	s8,400030f8 <_vfprintf_r+0x1904>
40003114:	00012823          	sw	zero,16(sp)
40003118:	06700a93          	li	s5,103
4000311c:	c25ff06f          	j	40002d40 <_vfprintf_r+0x154c>
40003120:	08412783          	lw	a5,132(sp)
40003124:	02f12823          	sw	a5,48(sp)
40003128:	1ef05863          	blez	a5,40003318 <_vfprintf_r+0x1b24>
4000312c:	120b1e63          	bnez	s6,40003268 <_vfprintf_r+0x1a74>
40003130:	001dfe93          	andi	t4,s11,1
40003134:	120e9a63          	bnez	t4,40003268 <_vfprintf_r+0x1a74>
40003138:	00f12823          	sw	a5,16(sp)
4000313c:	00078c13          	mv	s8,a5
40003140:	c01ff06f          	j	40002d40 <_vfprintf_r+0x154c>
40003144:	04700793          	li	a5,71
40003148:	01c50c33          	add	s8,a0,t3
4000314c:	b6fa90e3          	bne	s5,a5,40002cac <_vfprintf_r+0x14b8>
40003150:	001df793          	andi	a5,s11,1
40003154:	ce0792e3          	bnez	a5,40002e38 <_vfprintf_r+0x1644>
40003158:	09412783          	lw	a5,148(sp)
4000315c:	412787b3          	sub	a5,a5,s2
40003160:	02f12a23          	sw	a5,52(sp)
40003164:	d95b8ee3          	beq	s7,s5,40002f00 <_vfprintf_r+0x170c>
40003168:	08412783          	lw	a5,132(sp)
4000316c:	02f12823          	sw	a5,48(sp)
40003170:	dadff06f          	j	40002f1c <_vfprintf_r+0x1728>
40003174:	01612823          	sw	s6,16(sp)
40003178:	000b0c13          	mv	s8,s6
4000317c:	b44ff06f          	j	400024c0 <_vfprintf_r+0xccc>
40003180:	ff000613          	li	a2,-16
40003184:	40d00ab3          	neg	s5,a3
40003188:	06c6d463          	ble	a2,a3,400031f0 <_vfprintf_r+0x19fc>
4000318c:	4000d6b7          	lui	a3,0x4000d
40003190:	71468b93          	addi	s7,a3,1812 # 4000d714 <zeroes.4139>
40003194:	01000c13          	li	s8,16
40003198:	00700c93          	li	s9,7
4000319c:	00c0006f          	j	400031a8 <_vfprintf_r+0x19b4>
400031a0:	ff0a8a93          	addi	s5,s5,-16
400031a4:	055c5a63          	ble	s5,s8,400031f8 <_vfprintf_r+0x1a04>
400031a8:	01078793          	addi	a5,a5,16
400031ac:	00170713          	addi	a4,a4,1
400031b0:	01732023          	sw	s7,0(t1)
400031b4:	01832223          	sw	s8,4(t1)
400031b8:	0af12223          	sw	a5,164(sp)
400031bc:	0ae12023          	sw	a4,160(sp)
400031c0:	00830313          	addi	t1,t1,8
400031c4:	fcecdee3          	ble	a4,s9,400031a0 <_vfprintf_r+0x19ac>
400031c8:	09c10613          	addi	a2,sp,156
400031cc:	00098593          	mv	a1,s3
400031d0:	000a0513          	mv	a0,s4
400031d4:	128040ef          	jal	ra,400072fc <__sprint_r>
400031d8:	00050463          	beqz	a0,400031e0 <_vfprintf_r+0x19ec>
400031dc:	d75fe06f          	j	40001f50 <_vfprintf_r+0x75c>
400031e0:	0a412783          	lw	a5,164(sp)
400031e4:	0a012703          	lw	a4,160(sp)
400031e8:	000d0313          	mv	t1,s10
400031ec:	fb5ff06f          	j	400031a0 <_vfprintf_r+0x19ac>
400031f0:	4000d6b7          	lui	a3,0x4000d
400031f4:	71468b93          	addi	s7,a3,1812 # 4000d714 <zeroes.4139>
400031f8:	015787b3          	add	a5,a5,s5
400031fc:	00170713          	addi	a4,a4,1
40003200:	01732023          	sw	s7,0(t1)
40003204:	01532223          	sw	s5,4(t1)
40003208:	0af12223          	sw	a5,164(sp)
4000320c:	0ae12023          	sw	a4,160(sp)
40003210:	00700693          	li	a3,7
40003214:	00830313          	addi	t1,t1,8
40003218:	00e6c463          	blt	a3,a4,40003220 <_vfprintf_r+0x1a2c>
4000321c:	cd9fe06f          	j	40001ef4 <_vfprintf_r+0x700>
40003220:	09c10613          	addi	a2,sp,156
40003224:	00098593          	mv	a1,s3
40003228:	000a0513          	mv	a0,s4
4000322c:	0d0040ef          	jal	ra,400072fc <__sprint_r>
40003230:	00050463          	beqz	a0,40003238 <_vfprintf_r+0x1a44>
40003234:	d1dfe06f          	j	40001f50 <_vfprintf_r+0x75c>
40003238:	0a412783          	lw	a5,164(sp)
4000323c:	0a012703          	lw	a4,160(sp)
40003240:	000d0313          	mv	t1,s10
40003244:	cb1fe06f          	j	40001ef4 <_vfprintf_r+0x700>
40003248:	030b0793          	addi	a5,s6,48
4000324c:	03000713          	li	a4,48
40003250:	08f107a3          	sb	a5,143(sp)
40003254:	08e10723          	sb	a4,142(sp)
40003258:	09010793          	addi	a5,sp,144
4000325c:	d89ff06f          	j	40002fe4 <_vfprintf_r+0x17f0>
40003260:	09412783          	lw	a5,148(sp)
40003264:	a91ff06f          	j	40002cf4 <_vfprintf_r+0x1500>
40003268:	03012783          	lw	a5,48(sp)
4000326c:	04012703          	lw	a4,64(sp)
40003270:	00e78c33          	add	s8,a5,a4
40003274:	016c0c33          	add	s8,s8,s6
40003278:	01812823          	sw	s8,16(sp)
4000327c:	ac0c52e3          	bgez	s8,40002d40 <_vfprintf_r+0x154c>
40003280:	00012823          	sw	zero,16(sp)
40003284:	abdff06f          	j	40002d40 <_vfprintf_r+0x154c>
40003288:	04700793          	li	a5,71
4000328c:	0557c863          	blt	a5,s5,400032dc <_vfprintf_r+0x1ae8>
40003290:	4000d937          	lui	s2,0x4000d
40003294:	72c90913          	addi	s2,s2,1836 # 4000d72c <zeroes.4139+0x18>
40003298:	00300793          	li	a5,3
4000329c:	f7fdf713          	andi	a4,s11,-129
400032a0:	00f12823          	sw	a5,16(sp)
400032a4:	00e12a23          	sw	a4,20(sp)
400032a8:	07f14603          	lbu	a2,127(sp)
400032ac:	00078c13          	mv	s8,a5
400032b0:	00000b13          	li	s6,0
400032b4:	02012823          	sw	zero,48(sp)
400032b8:	84dfe06f          	j	40001b04 <_vfprintf_r+0x310>
400032bc:	03012783          	lw	a5,48(sp)
400032c0:	40fc0c33          	sub	s8,s8,a5
400032c4:	001c0c13          	addi	s8,s8,1
400032c8:	e29ff06f          	j	400030f0 <_vfprintf_r+0x18fc>
400032cc:	00fdf7b3          	and	a5,s11,a5
400032d0:	02f12823          	sw	a5,48(sp)
400032d4:	fa0782e3          	beqz	a5,40003278 <_vfprintf_r+0x1a84>
400032d8:	d2dff06f          	j	40003004 <_vfprintf_r+0x1810>
400032dc:	4000d937          	lui	s2,0x4000d
400032e0:	73090913          	addi	s2,s2,1840 # 4000d730 <zeroes.4139+0x1c>
400032e4:	fb5ff06f          	j	40003298 <_vfprintf_r+0x1aa4>
400032e8:	03012703          	lw	a4,48(sp)
400032ec:	00100793          	li	a5,1
400032f0:	40e78b33          	sub	s6,a5,a4
400032f4:	02d00713          	li	a4,45
400032f8:	08e106a3          	sb	a4,141(sp)
400032fc:	c3dff06f          	j	40002f38 <_vfprintf_r+0x1744>
40003300:	02012783          	lw	a5,32(sp)
40003304:	0007ab03          	lw	s6,0(a5)
40003308:	00478793          	addi	a5,a5,4
4000330c:	060b4a63          	bltz	s6,40003380 <_vfprintf_r+0x1b8c>
40003310:	02f12023          	sw	a5,32(sp)
40003314:	ea4fe06f          	j	400019b8 <_vfprintf_r+0x1c4>
40003318:	000b1c63          	bnez	s6,40003330 <_vfprintf_r+0x1b3c>
4000331c:	00100793          	li	a5,1
40003320:	00f12823          	sw	a5,16(sp)
40003324:	00fdfeb3          	and	t4,s11,a5
40003328:	00078c13          	mv	s8,a5
4000332c:	a00e8ae3          	beqz	t4,40002d40 <_vfprintf_r+0x154c>
40003330:	04012783          	lw	a5,64(sp)
40003334:	00178c13          	addi	s8,a5,1
40003338:	016c0c33          	add	s8,s8,s6
4000333c:	f3dff06f          	j	40003278 <_vfprintf_r+0x1a84>
40003340:	00012823          	sw	zero,16(sp)
40003344:	9f5ff06f          	j	40002d38 <_vfprintf_r+0x1544>
40003348:	06b10fa3          	sb	a1,127(sp)
4000334c:	9c8ff06f          	j	40002514 <_vfprintf_r+0xd20>
40003350:	08e10793          	addi	a5,sp,142
40003354:	c91ff06f          	j	40002fe4 <_vfprintf_r+0x17f0>
40003358:	06b10fa3          	sb	a1,127(sp)
4000335c:	8f4ff06f          	j	40002450 <_vfprintf_r+0xc5c>
40003360:	06b10fa3          	sb	a1,127(sp)
40003364:	978ff06f          	j	400024dc <_vfprintf_r+0xce8>
40003368:	06b10fa3          	sb	a1,127(sp)
4000336c:	c5cff06f          	j	400027c8 <_vfprintf_r+0xfd4>
40003370:	06b10fa3          	sb	a1,127(sp)
40003374:	c10ff06f          	j	40002784 <_vfprintf_r+0xf90>
40003378:	06b10fa3          	sb	a1,127(sp)
4000337c:	ae4ff06f          	j	40002660 <_vfprintf_r+0xe6c>
40003380:	000f8b13          	mv	s6,t6
40003384:	02f12023          	sw	a5,32(sp)
40003388:	e30fe06f          	j	400019b8 <_vfprintf_r+0x1c4>

4000338c <vfprintf>:
4000338c:	4000e7b7          	lui	a5,0x4000e
40003390:	00060693          	mv	a3,a2
40003394:	00058613          	mv	a2,a1
40003398:	00050593          	mv	a1,a0
4000339c:	5847a503          	lw	a0,1412(a5) # 4000e584 <_impure_ptr>
400033a0:	c54fe06f          	j	400017f4 <_vfprintf_r>

400033a4 <__sbprintf>:
400033a4:	00c5d783          	lhu	a5,12(a1)
400033a8:	0645ae03          	lw	t3,100(a1)
400033ac:	00e5d303          	lhu	t1,14(a1)
400033b0:	01c5a883          	lw	a7,28(a1)
400033b4:	0245a803          	lw	a6,36(a1)
400033b8:	b8010113          	addi	sp,sp,-1152
400033bc:	ffd7f793          	andi	a5,a5,-3
400033c0:	40000713          	li	a4,1024
400033c4:	46812c23          	sw	s0,1144(sp)
400033c8:	00f11a23          	sh	a5,20(sp)
400033cc:	00058413          	mv	s0,a1
400033d0:	07010793          	addi	a5,sp,112
400033d4:	00810593          	addi	a1,sp,8
400033d8:	46912a23          	sw	s1,1140(sp)
400033dc:	47212823          	sw	s2,1136(sp)
400033e0:	46112e23          	sw	ra,1148(sp)
400033e4:	00050913          	mv	s2,a0
400033e8:	07c12623          	sw	t3,108(sp)
400033ec:	00611b23          	sh	t1,22(sp)
400033f0:	03112223          	sw	a7,36(sp)
400033f4:	03012623          	sw	a6,44(sp)
400033f8:	00f12423          	sw	a5,8(sp)
400033fc:	00f12c23          	sw	a5,24(sp)
40003400:	00e12823          	sw	a4,16(sp)
40003404:	00e12e23          	sw	a4,28(sp)
40003408:	02012023          	sw	zero,32(sp)
4000340c:	be8fe0ef          	jal	ra,400017f4 <_vfprintf_r>
40003410:	00050493          	mv	s1,a0
40003414:	00054a63          	bltz	a0,40003428 <__sbprintf+0x84>
40003418:	00810593          	addi	a1,sp,8
4000341c:	00090513          	mv	a0,s2
40003420:	3d1010ef          	jal	ra,40004ff0 <_fflush_r>
40003424:	02051c63          	bnez	a0,4000345c <__sbprintf+0xb8>
40003428:	01415783          	lhu	a5,20(sp)
4000342c:	0407f793          	andi	a5,a5,64
40003430:	00078863          	beqz	a5,40003440 <__sbprintf+0x9c>
40003434:	00c45783          	lhu	a5,12(s0)
40003438:	0407e793          	ori	a5,a5,64
4000343c:	00f41623          	sh	a5,12(s0)
40003440:	47c12083          	lw	ra,1148(sp)
40003444:	00048513          	mv	a0,s1
40003448:	47812403          	lw	s0,1144(sp)
4000344c:	47412483          	lw	s1,1140(sp)
40003450:	47012903          	lw	s2,1136(sp)
40003454:	48010113          	addi	sp,sp,1152
40003458:	00008067          	ret
4000345c:	fff00493          	li	s1,-1
40003460:	fc9ff06f          	j	40003428 <__sbprintf+0x84>

40003464 <__swsetup_r>:
40003464:	4000e7b7          	lui	a5,0x4000e
40003468:	5847a783          	lw	a5,1412(a5) # 4000e584 <_impure_ptr>
4000346c:	ff010113          	addi	sp,sp,-16
40003470:	00812423          	sw	s0,8(sp)
40003474:	00912223          	sw	s1,4(sp)
40003478:	00112623          	sw	ra,12(sp)
4000347c:	00050493          	mv	s1,a0
40003480:	00058413          	mv	s0,a1
40003484:	00078663          	beqz	a5,40003490 <__swsetup_r+0x2c>
40003488:	0387a703          	lw	a4,56(a5)
4000348c:	0c070c63          	beqz	a4,40003564 <__swsetup_r+0x100>
40003490:	00c41703          	lh	a4,12(s0)
40003494:	01071793          	slli	a5,a4,0x10
40003498:	0107d793          	srli	a5,a5,0x10
4000349c:	0087f693          	andi	a3,a5,8
400034a0:	04068063          	beqz	a3,400034e0 <__swsetup_r+0x7c>
400034a4:	01042683          	lw	a3,16(s0)
400034a8:	06068063          	beqz	a3,40003508 <__swsetup_r+0xa4>
400034ac:	0017f713          	andi	a4,a5,1
400034b0:	06070e63          	beqz	a4,4000352c <__swsetup_r+0xc8>
400034b4:	01442783          	lw	a5,20(s0)
400034b8:	00042423          	sw	zero,8(s0)
400034bc:	00000513          	li	a0,0
400034c0:	40f007b3          	neg	a5,a5
400034c4:	00f42c23          	sw	a5,24(s0)
400034c8:	08068063          	beqz	a3,40003548 <__swsetup_r+0xe4>
400034cc:	00c12083          	lw	ra,12(sp)
400034d0:	00812403          	lw	s0,8(sp)
400034d4:	00412483          	lw	s1,4(sp)
400034d8:	01010113          	addi	sp,sp,16
400034dc:	00008067          	ret
400034e0:	0107f693          	andi	a3,a5,16
400034e4:	0c068063          	beqz	a3,400035a4 <__swsetup_r+0x140>
400034e8:	0047f793          	andi	a5,a5,4
400034ec:	08079263          	bnez	a5,40003570 <__swsetup_r+0x10c>
400034f0:	01042683          	lw	a3,16(s0)
400034f4:	00876793          	ori	a5,a4,8
400034f8:	00f41623          	sh	a5,12(s0)
400034fc:	01079793          	slli	a5,a5,0x10
40003500:	0107d793          	srli	a5,a5,0x10
40003504:	fa0694e3          	bnez	a3,400034ac <__swsetup_r+0x48>
40003508:	2807f713          	andi	a4,a5,640
4000350c:	20000613          	li	a2,512
40003510:	f8c70ee3          	beq	a4,a2,400034ac <__swsetup_r+0x48>
40003514:	00040593          	mv	a1,s0
40003518:	00048513          	mv	a0,s1
4000351c:	634020ef          	jal	ra,40005b50 <__smakebuf_r>
40003520:	00c45783          	lhu	a5,12(s0)
40003524:	01042683          	lw	a3,16(s0)
40003528:	f85ff06f          	j	400034ac <__swsetup_r+0x48>
4000352c:	0027f793          	andi	a5,a5,2
40003530:	00000713          	li	a4,0
40003534:	00079463          	bnez	a5,4000353c <__swsetup_r+0xd8>
40003538:	01442703          	lw	a4,20(s0)
4000353c:	00e42423          	sw	a4,8(s0)
40003540:	00000513          	li	a0,0
40003544:	f80694e3          	bnez	a3,400034cc <__swsetup_r+0x68>
40003548:	00c41783          	lh	a5,12(s0)
4000354c:	0807f713          	andi	a4,a5,128
40003550:	f6070ee3          	beqz	a4,400034cc <__swsetup_r+0x68>
40003554:	0407e793          	ori	a5,a5,64
40003558:	00f41623          	sh	a5,12(s0)
4000355c:	fff00513          	li	a0,-1
40003560:	f6dff06f          	j	400034cc <__swsetup_r+0x68>
40003564:	00078513          	mv	a0,a5
40003568:	659010ef          	jal	ra,400053c0 <__sinit>
4000356c:	f25ff06f          	j	40003490 <__swsetup_r+0x2c>
40003570:	03042583          	lw	a1,48(s0)
40003574:	00058e63          	beqz	a1,40003590 <__swsetup_r+0x12c>
40003578:	04040793          	addi	a5,s0,64
4000357c:	00f58863          	beq	a1,a5,4000358c <__swsetup_r+0x128>
40003580:	00048513          	mv	a0,s1
40003584:	7c1010ef          	jal	ra,40005544 <_free_r>
40003588:	00c41703          	lh	a4,12(s0)
4000358c:	02042823          	sw	zero,48(s0)
40003590:	01042683          	lw	a3,16(s0)
40003594:	fdb77713          	andi	a4,a4,-37
40003598:	00042223          	sw	zero,4(s0)
4000359c:	00d42023          	sw	a3,0(s0)
400035a0:	f55ff06f          	j	400034f4 <__swsetup_r+0x90>
400035a4:	00900793          	li	a5,9
400035a8:	00f4a023          	sw	a5,0(s1)
400035ac:	04076713          	ori	a4,a4,64
400035b0:	00e41623          	sh	a4,12(s0)
400035b4:	fff00513          	li	a0,-1
400035b8:	f15ff06f          	j	400034cc <__swsetup_r+0x68>

400035bc <quorem>:
400035bc:	fb010113          	addi	sp,sp,-80
400035c0:	03712623          	sw	s7,44(sp)
400035c4:	01052783          	lw	a5,16(a0)
400035c8:	0105ab83          	lw	s7,16(a1)
400035cc:	04112623          	sw	ra,76(sp)
400035d0:	04812423          	sw	s0,72(sp)
400035d4:	04912223          	sw	s1,68(sp)
400035d8:	05212023          	sw	s2,64(sp)
400035dc:	03312e23          	sw	s3,60(sp)
400035e0:	03412c23          	sw	s4,56(sp)
400035e4:	03512a23          	sw	s5,52(sp)
400035e8:	03612823          	sw	s6,48(sp)
400035ec:	03812423          	sw	s8,40(sp)
400035f0:	03912223          	sw	s9,36(sp)
400035f4:	03a12023          	sw	s10,32(sp)
400035f8:	01b12e23          	sw	s11,28(sp)
400035fc:	1f77c863          	blt	a5,s7,400037ec <quorem+0x230>
40003600:	fffb8b93          	addi	s7,s7,-1
40003604:	002b9a93          	slli	s5,s7,0x2
40003608:	01458b13          	addi	s6,a1,20
4000360c:	01450493          	addi	s1,a0,20
40003610:	015b0c33          	add	s8,s6,s5
40003614:	015487b3          	add	a5,s1,s5
40003618:	00b12423          	sw	a1,8(sp)
4000361c:	000c2583          	lw	a1,0(s8)
40003620:	00050913          	mv	s2,a0
40003624:	0007a503          	lw	a0,0(a5)
40003628:	00158593          	addi	a1,a1,1
4000362c:	00f12623          	sw	a5,12(sp)
40003630:	0ad090ef          	jal	ra,4000cedc <__udivsi3>
40003634:	00050413          	mv	s0,a0
40003638:	0c050463          	beqz	a0,40003700 <quorem+0x144>
4000363c:	00010d37          	lui	s10,0x10
40003640:	000b0a13          	mv	s4,s6
40003644:	00048d93          	mv	s11,s1
40003648:	00000c93          	li	s9,0
4000364c:	00000993          	li	s3,0
40003650:	fffd0d13          	addi	s10,s10,-1 # ffff <_heap_size+0xdfff>
40003654:	004a0a13          	addi	s4,s4,4
40003658:	ffca2a83          	lw	s5,-4(s4)
4000365c:	00040593          	mv	a1,s0
40003660:	004d8d93          	addi	s11,s11,4
40003664:	01aaf533          	and	a0,s5,s10
40003668:	049090ef          	jal	ra,4000ceb0 <__mulsi3>
4000366c:	01950cb3          	add	s9,a0,s9
40003670:	00040593          	mv	a1,s0
40003674:	010ad513          	srli	a0,s5,0x10
40003678:	039090ef          	jal	ra,4000ceb0 <__mulsi3>
4000367c:	ffcda783          	lw	a5,-4(s11)
40003680:	010cd693          	srli	a3,s9,0x10
40003684:	01acf733          	and	a4,s9,s10
40003688:	40e98733          	sub	a4,s3,a4
4000368c:	00d50cb3          	add	s9,a0,a3
40003690:	01a7f6b3          	and	a3,a5,s10
40003694:	00d70733          	add	a4,a4,a3
40003698:	0107d793          	srli	a5,a5,0x10
4000369c:	01acf6b3          	and	a3,s9,s10
400036a0:	40d787b3          	sub	a5,a5,a3
400036a4:	41075693          	srai	a3,a4,0x10
400036a8:	00d787b3          	add	a5,a5,a3
400036ac:	01079693          	slli	a3,a5,0x10
400036b0:	01a77733          	and	a4,a4,s10
400036b4:	00e6e733          	or	a4,a3,a4
400036b8:	feedae23          	sw	a4,-4(s11)
400036bc:	010cdc93          	srli	s9,s9,0x10
400036c0:	4107d993          	srai	s3,a5,0x10
400036c4:	f94c78e3          	bleu	s4,s8,40003654 <quorem+0x98>
400036c8:	00c12703          	lw	a4,12(sp)
400036cc:	00072783          	lw	a5,0(a4)
400036d0:	02079863          	bnez	a5,40003700 <quorem+0x144>
400036d4:	ffc70793          	addi	a5,a4,-4
400036d8:	02f4f263          	bleu	a5,s1,400036fc <quorem+0x140>
400036dc:	ffc72703          	lw	a4,-4(a4)
400036e0:	00070863          	beqz	a4,400036f0 <quorem+0x134>
400036e4:	0180006f          	j	400036fc <quorem+0x140>
400036e8:	0007a703          	lw	a4,0(a5)
400036ec:	00071863          	bnez	a4,400036fc <quorem+0x140>
400036f0:	ffc78793          	addi	a5,a5,-4
400036f4:	fffb8b93          	addi	s7,s7,-1
400036f8:	fef4e8e3          	bltu	s1,a5,400036e8 <quorem+0x12c>
400036fc:	01792823          	sw	s7,16(s2)
40003700:	00812583          	lw	a1,8(sp)
40003704:	00090513          	mv	a0,s2
40003708:	068030ef          	jal	ra,40006770 <__mcmp>
4000370c:	0a054063          	bltz	a0,400037ac <quorem+0x1f0>
40003710:	00010537          	lui	a0,0x10
40003714:	00140413          	addi	s0,s0,1
40003718:	00048593          	mv	a1,s1
4000371c:	00000793          	li	a5,0
40003720:	fff50513          	addi	a0,a0,-1 # ffff <_heap_size+0xdfff>
40003724:	004b0b13          	addi	s6,s6,4
40003728:	ffcb2603          	lw	a2,-4(s6)
4000372c:	0005a703          	lw	a4,0(a1)
40003730:	00458593          	addi	a1,a1,4
40003734:	00a676b3          	and	a3,a2,a0
40003738:	40d787b3          	sub	a5,a5,a3
4000373c:	00a776b3          	and	a3,a4,a0
40003740:	00d786b3          	add	a3,a5,a3
40003744:	01065613          	srli	a2,a2,0x10
40003748:	01075793          	srli	a5,a4,0x10
4000374c:	40c787b3          	sub	a5,a5,a2
40003750:	4106d713          	srai	a4,a3,0x10
40003754:	00e787b3          	add	a5,a5,a4
40003758:	01079713          	slli	a4,a5,0x10
4000375c:	00a6f6b3          	and	a3,a3,a0
40003760:	00d766b3          	or	a3,a4,a3
40003764:	fed5ae23          	sw	a3,-4(a1)
40003768:	4107d793          	srai	a5,a5,0x10
4000376c:	fb6c7ce3          	bleu	s6,s8,40003724 <quorem+0x168>
40003770:	002b9713          	slli	a4,s7,0x2
40003774:	00e48733          	add	a4,s1,a4
40003778:	00072783          	lw	a5,0(a4)
4000377c:	02079863          	bnez	a5,400037ac <quorem+0x1f0>
40003780:	ffc70793          	addi	a5,a4,-4
40003784:	02f4f263          	bleu	a5,s1,400037a8 <quorem+0x1ec>
40003788:	ffc72703          	lw	a4,-4(a4)
4000378c:	00070863          	beqz	a4,4000379c <quorem+0x1e0>
40003790:	0180006f          	j	400037a8 <quorem+0x1ec>
40003794:	0007a703          	lw	a4,0(a5)
40003798:	00071863          	bnez	a4,400037a8 <quorem+0x1ec>
4000379c:	ffc78793          	addi	a5,a5,-4
400037a0:	fffb8b93          	addi	s7,s7,-1
400037a4:	fef4e8e3          	bltu	s1,a5,40003794 <quorem+0x1d8>
400037a8:	01792823          	sw	s7,16(s2)
400037ac:	00040513          	mv	a0,s0
400037b0:	04c12083          	lw	ra,76(sp)
400037b4:	04812403          	lw	s0,72(sp)
400037b8:	04412483          	lw	s1,68(sp)
400037bc:	04012903          	lw	s2,64(sp)
400037c0:	03c12983          	lw	s3,60(sp)
400037c4:	03812a03          	lw	s4,56(sp)
400037c8:	03412a83          	lw	s5,52(sp)
400037cc:	03012b03          	lw	s6,48(sp)
400037d0:	02c12b83          	lw	s7,44(sp)
400037d4:	02812c03          	lw	s8,40(sp)
400037d8:	02412c83          	lw	s9,36(sp)
400037dc:	02012d03          	lw	s10,32(sp)
400037e0:	01c12d83          	lw	s11,28(sp)
400037e4:	05010113          	addi	sp,sp,80
400037e8:	00008067          	ret
400037ec:	00000513          	li	a0,0
400037f0:	fc1ff06f          	j	400037b0 <quorem+0x1f4>

400037f4 <_dtoa_r>:
400037f4:	04052303          	lw	t1,64(a0)
400037f8:	f4010113          	addi	sp,sp,-192
400037fc:	0a812c23          	sw	s0,184(sp)
40003800:	0a912a23          	sw	s1,180(sp)
40003804:	0b212823          	sw	s2,176(sp)
40003808:	0b312623          	sw	s3,172(sp)
4000380c:	0b412423          	sw	s4,168(sp)
40003810:	0b612023          	sw	s6,160(sp)
40003814:	09912a23          	sw	s9,148(sp)
40003818:	09b12623          	sw	s11,140(sp)
4000381c:	0a112e23          	sw	ra,188(sp)
40003820:	0b512223          	sw	s5,164(sp)
40003824:	09712e23          	sw	s7,156(sp)
40003828:	09812c23          	sw	s8,152(sp)
4000382c:	09a12823          	sw	s10,144(sp)
40003830:	01012623          	sw	a6,12(sp)
40003834:	00050d93          	mv	s11,a0
40003838:	00060493          	mv	s1,a2
4000383c:	00068913          	mv	s2,a3
40003840:	00070c93          	mv	s9,a4
40003844:	00078b13          	mv	s6,a5
40003848:	00088993          	mv	s3,a7
4000384c:	00060a13          	mv	s4,a2
40003850:	00068413          	mv	s0,a3
40003854:	02030263          	beqz	t1,40003878 <_dtoa_r+0x84>
40003858:	04452703          	lw	a4,68(a0)
4000385c:	00100793          	li	a5,1
40003860:	00030593          	mv	a1,t1
40003864:	00e797b3          	sll	a5,a5,a4
40003868:	00e32223          	sw	a4,4(t1)
4000386c:	00f32423          	sw	a5,8(t1)
40003870:	644020ef          	jal	ra,40005eb4 <_Bfree>
40003874:	040da023          	sw	zero,64(s11)
40003878:	00090a93          	mv	s5,s2
4000387c:	0e044863          	bltz	s0,4000396c <_dtoa_r+0x178>
40003880:	0009a023          	sw	zero,0(s3)
40003884:	7ff007b7          	lui	a5,0x7ff00
40003888:	00faf733          	and	a4,s5,a5
4000388c:	08f70263          	beq	a4,a5,40003910 <_dtoa_r+0x11c>
40003890:	00048513          	mv	a0,s1
40003894:	00040593          	mv	a1,s0
40003898:	00000613          	li	a2,0
4000389c:	00000693          	li	a3,0
400038a0:	02d070ef          	jal	ra,4000b0cc <__eqdf2>
400038a4:	0e051263          	bnez	a0,40003988 <_dtoa_r+0x194>
400038a8:	00c12703          	lw	a4,12(sp)
400038ac:	00100793          	li	a5,1
400038b0:	00f72023          	sw	a5,0(a4)
400038b4:	0c012783          	lw	a5,192(sp)
400038b8:	6a078263          	beqz	a5,40003f5c <_dtoa_r+0x768>
400038bc:	0c012703          	lw	a4,192(sp)
400038c0:	4000d7b7          	lui	a5,0x4000d
400038c4:	76578793          	addi	a5,a5,1893 # 4000d765 <zeroes.4139+0x51>
400038c8:	4000d537          	lui	a0,0x4000d
400038cc:	00f72023          	sw	a5,0(a4)
400038d0:	76450513          	addi	a0,a0,1892 # 4000d764 <zeroes.4139+0x50>
400038d4:	0bc12083          	lw	ra,188(sp)
400038d8:	0b812403          	lw	s0,184(sp)
400038dc:	0b412483          	lw	s1,180(sp)
400038e0:	0b012903          	lw	s2,176(sp)
400038e4:	0ac12983          	lw	s3,172(sp)
400038e8:	0a812a03          	lw	s4,168(sp)
400038ec:	0a412a83          	lw	s5,164(sp)
400038f0:	0a012b03          	lw	s6,160(sp)
400038f4:	09c12b83          	lw	s7,156(sp)
400038f8:	09812c03          	lw	s8,152(sp)
400038fc:	09412c83          	lw	s9,148(sp)
40003900:	09012d03          	lw	s10,144(sp)
40003904:	08c12d83          	lw	s11,140(sp)
40003908:	0c010113          	addi	sp,sp,192
4000390c:	00008067          	ret
40003910:	00c12703          	lw	a4,12(sp)
40003914:	000027b7          	lui	a5,0x2
40003918:	70f78793          	addi	a5,a5,1807 # 270f <_heap_size+0x70f>
4000391c:	00f72023          	sw	a5,0(a4)
40003920:	020a1863          	bnez	s4,40003950 <_dtoa_r+0x15c>
40003924:	00ca9793          	slli	a5,s5,0xc
40003928:	02079463          	bnez	a5,40003950 <_dtoa_r+0x15c>
4000392c:	0c012783          	lw	a5,192(sp)
40003930:	4000d537          	lui	a0,0x4000d
40003934:	76850513          	addi	a0,a0,1896 # 4000d768 <zeroes.4139+0x54>
40003938:	f8078ee3          	beqz	a5,400038d4 <_dtoa_r+0xe0>
4000393c:	4000d7b7          	lui	a5,0x4000d
40003940:	77078793          	addi	a5,a5,1904 # 4000d770 <zeroes.4139+0x5c>
40003944:	0c012703          	lw	a4,192(sp)
40003948:	00f72023          	sw	a5,0(a4)
4000394c:	f89ff06f          	j	400038d4 <_dtoa_r+0xe0>
40003950:	0c012783          	lw	a5,192(sp)
40003954:	4000d537          	lui	a0,0x4000d
40003958:	77450513          	addi	a0,a0,1908 # 4000d774 <zeroes.4139+0x60>
4000395c:	f6078ce3          	beqz	a5,400038d4 <_dtoa_r+0xe0>
40003960:	4000d7b7          	lui	a5,0x4000d
40003964:	77778793          	addi	a5,a5,1911 # 4000d777 <zeroes.4139+0x63>
40003968:	fddff06f          	j	40003944 <_dtoa_r+0x150>
4000396c:	80000437          	lui	s0,0x80000
40003970:	fff44413          	not	s0,s0
40003974:	01247433          	and	s0,s0,s2
40003978:	00100793          	li	a5,1
4000397c:	00f9a023          	sw	a5,0(s3)
40003980:	00040a93          	mv	s5,s0
40003984:	f01ff06f          	j	40003884 <_dtoa_r+0x90>
40003988:	00048613          	mv	a2,s1
4000398c:	00040693          	mv	a3,s0
40003990:	07810793          	addi	a5,sp,120
40003994:	07c10713          	addi	a4,sp,124
40003998:	000d8513          	mv	a0,s11
4000399c:	1c0030ef          	jal	ra,40006b5c <__d2b>
400039a0:	014ad913          	srli	s2,s5,0x14
400039a4:	00050d13          	mv	s10,a0
400039a8:	56090463          	beqz	s2,40003f10 <_dtoa_r+0x71c>
400039ac:	001005b7          	lui	a1,0x100
400039b0:	fff58593          	addi	a1,a1,-1 # fffff <_heap_size+0xfdfff>
400039b4:	07812983          	lw	s3,120(sp)
400039b8:	0085f5b3          	and	a1,a1,s0
400039bc:	3ff00bb7          	lui	s7,0x3ff00
400039c0:	00048793          	mv	a5,s1
400039c4:	0175e5b3          	or	a1,a1,s7
400039c8:	c0190913          	addi	s2,s2,-1023
400039cc:	00000a93          	li	s5,0
400039d0:	4000e737          	lui	a4,0x4000e
400039d4:	c4872603          	lw	a2,-952(a4) # 4000dc48 <__clz_tab+0x114>
400039d8:	c4c72683          	lw	a3,-948(a4)
400039dc:	00078513          	mv	a0,a5
400039e0:	18c080ef          	jal	ra,4000bb6c <__subdf3>
400039e4:	4000e7b7          	lui	a5,0x4000e
400039e8:	c507a603          	lw	a2,-944(a5) # 4000dc50 <__clz_tab+0x11c>
400039ec:	c547a683          	lw	a3,-940(a5)
400039f0:	171070ef          	jal	ra,4000b360 <__muldf3>
400039f4:	4000e7b7          	lui	a5,0x4000e
400039f8:	c587a603          	lw	a2,-936(a5) # 4000dc58 <__clz_tab+0x124>
400039fc:	c5c7a683          	lw	a3,-932(a5)
40003a00:	428060ef          	jal	ra,40009e28 <__adddf3>
40003a04:	00a12823          	sw	a0,16(sp)
40003a08:	00090513          	mv	a0,s2
40003a0c:	00b12a23          	sw	a1,20(sp)
40003a10:	3b5080ef          	jal	ra,4000c5c4 <__floatsidf>
40003a14:	4000e7b7          	lui	a5,0x4000e
40003a18:	c607a603          	lw	a2,-928(a5) # 4000dc60 <__clz_tab+0x12c>
40003a1c:	c647a683          	lw	a3,-924(a5)
40003a20:	141070ef          	jal	ra,4000b360 <__muldf3>
40003a24:	01012803          	lw	a6,16(sp)
40003a28:	01412883          	lw	a7,20(sp)
40003a2c:	00050613          	mv	a2,a0
40003a30:	00058693          	mv	a3,a1
40003a34:	00080513          	mv	a0,a6
40003a38:	00088593          	mv	a1,a7
40003a3c:	3ec060ef          	jal	ra,40009e28 <__adddf3>
40003a40:	00b12e23          	sw	a1,28(sp)
40003a44:	00a12c23          	sw	a0,24(sp)
40003a48:	2f9080ef          	jal	ra,4000c540 <__fixdfsi>
40003a4c:	00a12823          	sw	a0,16(sp)
40003a50:	01c12583          	lw	a1,28(sp)
40003a54:	01812503          	lw	a0,24(sp)
40003a58:	00000613          	li	a2,0
40003a5c:	00000693          	li	a3,0
40003a60:	7fc070ef          	jal	ra,4000b25c <__ledf2>
40003a64:	02054ee3          	bltz	a0,400042a0 <_dtoa_r+0xaac>
40003a68:	01012b83          	lw	s7,16(sp)
40003a6c:	00100713          	li	a4,1
40003a70:	01600793          	li	a5,22
40003a74:	02e12423          	sw	a4,40(sp)
40003a78:	0377ec63          	bltu	a5,s7,40003ab0 <_dtoa_r+0x2bc>
40003a7c:	4000d737          	lui	a4,0x4000d
40003a80:	003b9793          	slli	a5,s7,0x3
40003a84:	79870713          	addi	a4,a4,1944 # 4000d798 <__mprec_tens>
40003a88:	00e787b3          	add	a5,a5,a4
40003a8c:	0007a503          	lw	a0,0(a5)
40003a90:	0047a583          	lw	a1,4(a5)
40003a94:	00048613          	mv	a2,s1
40003a98:	00040693          	mv	a3,s0
40003a9c:	6bc070ef          	jal	ra,4000b158 <__gedf2>
40003aa0:	04a05ee3          	blez	a0,400042fc <_dtoa_r+0xb08>
40003aa4:	fffb8793          	addi	a5,s7,-1 # 3fefffff <_heap_size+0x3fefdfff>
40003aa8:	00f12823          	sw	a5,16(sp)
40003aac:	02012423          	sw	zero,40(sp)
40003ab0:	41298933          	sub	s2,s3,s2
40003ab4:	fff90b93          	addi	s7,s2,-1
40003ab8:	00000c13          	li	s8,0
40003abc:	000bcae3          	bltz	s7,400042d0 <_dtoa_r+0xadc>
40003ac0:	01012783          	lw	a5,16(sp)
40003ac4:	7c07c463          	bltz	a5,4000428c <_dtoa_r+0xa98>
40003ac8:	00fb8bb3          	add	s7,s7,a5
40003acc:	02f12623          	sw	a5,44(sp)
40003ad0:	00000993          	li	s3,0
40003ad4:	00900793          	li	a5,9
40003ad8:	4997e863          	bltu	a5,s9,40003f68 <_dtoa_r+0x774>
40003adc:	00500793          	li	a5,5
40003ae0:	00100913          	li	s2,1
40003ae4:	0197d663          	ble	s9,a5,40003af0 <_dtoa_r+0x2fc>
40003ae8:	ffcc8c93          	addi	s9,s9,-4 # 7ffffffc <end+0x3ffef21c>
40003aec:	00000913          	li	s2,0
40003af0:	00300793          	li	a5,3
40003af4:	56fc8ae3          	beq	s9,a5,40004868 <_dtoa_r+0x1074>
40003af8:	4b97dee3          	ble	s9,a5,400047b4 <_dtoa_r+0xfc0>
40003afc:	00400793          	li	a5,4
40003b00:	34fc86e3          	beq	s9,a5,4000464c <_dtoa_r+0xe58>
40003b04:	00100713          	li	a4,1
40003b08:	00500793          	li	a5,5
40003b0c:	02e12223          	sw	a4,36(sp)
40003b10:	4afc98e3          	bne	s9,a5,400047c0 <_dtoa_r+0xfcc>
40003b14:	01012783          	lw	a5,16(sp)
40003b18:	016787b3          	add	a5,a5,s6
40003b1c:	02f12c23          	sw	a5,56(sp)
40003b20:	00178793          	addi	a5,a5,1
40003b24:	00f12c23          	sw	a5,24(sp)
40003b28:	00078613          	mv	a2,a5
40003b2c:	3ef058e3          	blez	a5,4000471c <_dtoa_r+0xf28>
40003b30:	01812803          	lw	a6,24(sp)
40003b34:	040da223          	sw	zero,68(s11)
40003b38:	01700793          	li	a5,23
40003b3c:	00000593          	li	a1,0
40003b40:	02c7f263          	bleu	a2,a5,40003b64 <_dtoa_r+0x370>
40003b44:	00100713          	li	a4,1
40003b48:	00400793          	li	a5,4
40003b4c:	00179793          	slli	a5,a5,0x1
40003b50:	01478693          	addi	a3,a5,20
40003b54:	00070593          	mv	a1,a4
40003b58:	00170713          	addi	a4,a4,1
40003b5c:	fed678e3          	bleu	a3,a2,40003b4c <_dtoa_r+0x358>
40003b60:	04bda223          	sw	a1,68(s11)
40003b64:	000d8513          	mv	a0,s11
40003b68:	03012823          	sw	a6,48(sp)
40003b6c:	2a4020ef          	jal	ra,40005e10 <_Balloc>
40003b70:	03012803          	lw	a6,48(sp)
40003b74:	02a12023          	sw	a0,32(sp)
40003b78:	04ada023          	sw	a0,64(s11)
40003b7c:	00e00793          	li	a5,14
40003b80:	4107ee63          	bltu	a5,a6,40003f9c <_dtoa_r+0x7a8>
40003b84:	40090c63          	beqz	s2,40003f9c <_dtoa_r+0x7a8>
40003b88:	01012703          	lw	a4,16(sp)
40003b8c:	02912e23          	sw	s1,60(sp)
40003b90:	04812423          	sw	s0,72(sp)
40003b94:	5ee050e3          	blez	a4,40004974 <_dtoa_r+0x1180>
40003b98:	00f77793          	andi	a5,a4,15
40003b9c:	40475a13          	srai	s4,a4,0x4
40003ba0:	4000d737          	lui	a4,0x4000d
40003ba4:	79870713          	addi	a4,a4,1944 # 4000d798 <__mprec_tens>
40003ba8:	00379793          	slli	a5,a5,0x3
40003bac:	00e787b3          	add	a5,a5,a4
40003bb0:	02912823          	sw	s1,48(sp)
40003bb4:	010a7713          	andi	a4,s4,16
40003bb8:	02812a23          	sw	s0,52(sp)
40003bbc:	0007a803          	lw	a6,0(a5)
40003bc0:	0047a883          	lw	a7,4(a5)
40003bc4:	00200913          	li	s2,2
40003bc8:	02070e63          	beqz	a4,40003c04 <_dtoa_r+0x410>
40003bcc:	4000e7b7          	lui	a5,0x4000e
40003bd0:	8a87a603          	lw	a2,-1880(a5) # 4000d8a8 <__mprec_bigtens+0x20>
40003bd4:	8ac7a683          	lw	a3,-1876(a5)
40003bd8:	00048513          	mv	a0,s1
40003bdc:	00040593          	mv	a1,s0
40003be0:	05012023          	sw	a6,64(sp)
40003be4:	05112223          	sw	a7,68(sp)
40003be8:	38d060ef          	jal	ra,4000a774 <__divdf3>
40003bec:	04012803          	lw	a6,64(sp)
40003bf0:	04412883          	lw	a7,68(sp)
40003bf4:	02a12823          	sw	a0,48(sp)
40003bf8:	02b12a23          	sw	a1,52(sp)
40003bfc:	00fa7a13          	andi	s4,s4,15
40003c00:	00300913          	li	s2,3
40003c04:	040a0063          	beqz	s4,40003c44 <_dtoa_r+0x450>
40003c08:	4000e437          	lui	s0,0x4000e
40003c0c:	88840413          	addi	s0,s0,-1912 # 4000d888 <__mprec_bigtens>
40003c10:	001a7793          	andi	a5,s4,1
40003c14:	00080513          	mv	a0,a6
40003c18:	401a5a13          	srai	s4,s4,0x1
40003c1c:	00088593          	mv	a1,a7
40003c20:	00078e63          	beqz	a5,40003c3c <_dtoa_r+0x448>
40003c24:	00042603          	lw	a2,0(s0)
40003c28:	00442683          	lw	a3,4(s0)
40003c2c:	00190913          	addi	s2,s2,1
40003c30:	730070ef          	jal	ra,4000b360 <__muldf3>
40003c34:	00050813          	mv	a6,a0
40003c38:	00058893          	mv	a7,a1
40003c3c:	00840413          	addi	s0,s0,8
40003c40:	fc0a18e3          	bnez	s4,40003c10 <_dtoa_r+0x41c>
40003c44:	03012503          	lw	a0,48(sp)
40003c48:	03412583          	lw	a1,52(sp)
40003c4c:	00080613          	mv	a2,a6
40003c50:	00088693          	mv	a3,a7
40003c54:	321060ef          	jal	ra,4000a774 <__divdf3>
40003c58:	02a12823          	sw	a0,48(sp)
40003c5c:	02b12a23          	sw	a1,52(sp)
40003c60:	02812783          	lw	a5,40(sp)
40003c64:	02078263          	beqz	a5,40003c88 <_dtoa_r+0x494>
40003c68:	4000e7b7          	lui	a5,0x4000e
40003c6c:	c687a603          	lw	a2,-920(a5) # 4000dc68 <__clz_tab+0x134>
40003c70:	c6c7a683          	lw	a3,-916(a5)
40003c74:	03012503          	lw	a0,48(sp)
40003c78:	03412583          	lw	a1,52(sp)
40003c7c:	5e0070ef          	jal	ra,4000b25c <__ledf2>
40003c80:	00055463          	bgez	a0,40003c88 <_dtoa_r+0x494>
40003c84:	7910006f          	j	40004c14 <_dtoa_r+0x1420>
40003c88:	00090513          	mv	a0,s2
40003c8c:	139080ef          	jal	ra,4000c5c4 <__floatsidf>
40003c90:	03012603          	lw	a2,48(sp)
40003c94:	03412683          	lw	a3,52(sp)
40003c98:	fcc004b7          	lui	s1,0xfcc00
40003c9c:	6c4070ef          	jal	ra,4000b360 <__muldf3>
40003ca0:	4000e7b7          	lui	a5,0x4000e
40003ca4:	c787a603          	lw	a2,-904(a5) # 4000dc78 <__clz_tab+0x144>
40003ca8:	c7c7a683          	lw	a3,-900(a5)
40003cac:	17c060ef          	jal	ra,40009e28 <__adddf3>
40003cb0:	01812783          	lw	a5,24(sp)
40003cb4:	00050413          	mv	s0,a0
40003cb8:	00b484b3          	add	s1,s1,a1
40003cbc:	3e0782e3          	beqz	a5,400048a0 <_dtoa_r+0x10ac>
40003cc0:	01012783          	lw	a5,16(sp)
40003cc4:	01812903          	lw	s2,24(sp)
40003cc8:	04f12623          	sw	a5,76(sp)
40003ccc:	02412783          	lw	a5,36(sp)
40003cd0:	5a0782e3          	beqz	a5,40004a74 <_dtoa_r+0x1280>
40003cd4:	fff90793          	addi	a5,s2,-1
40003cd8:	4000d737          	lui	a4,0x4000d
40003cdc:	79870713          	addi	a4,a4,1944 # 4000d798 <__mprec_tens>
40003ce0:	00379793          	slli	a5,a5,0x3
40003ce4:	00e787b3          	add	a5,a5,a4
40003ce8:	0007a603          	lw	a2,0(a5)
40003cec:	0047a683          	lw	a3,4(a5)
40003cf0:	4000e7b7          	lui	a5,0x4000e
40003cf4:	c887a503          	lw	a0,-888(a5) # 4000dc88 <__clz_tab+0x154>
40003cf8:	c8c7a583          	lw	a1,-884(a5)
40003cfc:	02012783          	lw	a5,32(sp)
40003d00:	00178a13          	addi	s4,a5,1
40003d04:	271060ef          	jal	ra,4000a774 <__divdf3>
40003d08:	00040613          	mv	a2,s0
40003d0c:	00048693          	mv	a3,s1
40003d10:	65d070ef          	jal	ra,4000bb6c <__subdf3>
40003d14:	04a12023          	sw	a0,64(sp)
40003d18:	04b12223          	sw	a1,68(sp)
40003d1c:	03012503          	lw	a0,48(sp)
40003d20:	03412583          	lw	a1,52(sp)
40003d24:	01d080ef          	jal	ra,4000c540 <__fixdfsi>
40003d28:	00050413          	mv	s0,a0
40003d2c:	099080ef          	jal	ra,4000c5c4 <__floatsidf>
40003d30:	00050613          	mv	a2,a0
40003d34:	00058693          	mv	a3,a1
40003d38:	03012503          	lw	a0,48(sp)
40003d3c:	03412583          	lw	a1,52(sp)
40003d40:	62d070ef          	jal	ra,4000bb6c <__subdf3>
40003d44:	02012783          	lw	a5,32(sp)
40003d48:	00050613          	mv	a2,a0
40003d4c:	00058693          	mv	a3,a1
40003d50:	03040713          	addi	a4,s0,48
40003d54:	04a12823          	sw	a0,80(sp)
40003d58:	04b12a23          	sw	a1,84(sp)
40003d5c:	04012503          	lw	a0,64(sp)
40003d60:	04412583          	lw	a1,68(sp)
40003d64:	0ff77413          	andi	s0,a4,255
40003d68:	00878023          	sb	s0,0(a5)
40003d6c:	3ec070ef          	jal	ra,4000b158 <__gedf2>
40003d70:	16a04263          	bgtz	a0,40003ed4 <_dtoa_r+0x6e0>
40003d74:	4000e7b7          	lui	a5,0x4000e
40003d78:	05012603          	lw	a2,80(sp)
40003d7c:	05412683          	lw	a3,84(sp)
40003d80:	c687a503          	lw	a0,-920(a5) # 4000dc68 <__clz_tab+0x134>
40003d84:	c6c7a583          	lw	a1,-916(a5)
40003d88:	02f12823          	sw	a5,48(sp)
40003d8c:	5e1070ef          	jal	ra,4000bb6c <__subdf3>
40003d90:	04012603          	lw	a2,64(sp)
40003d94:	04412683          	lw	a3,68(sp)
40003d98:	4c4070ef          	jal	ra,4000b25c <__ledf2>
40003d9c:	00055463          	bgez	a0,40003da4 <_dtoa_r+0x5b0>
40003da0:	7490006f          	j	40004ce8 <_dtoa_r+0x14f4>
40003da4:	00100713          	li	a4,1
40003da8:	03012783          	lw	a5,48(sp)
40003dac:	3ae90ee3          	beq	s2,a4,40004968 <_dtoa_r+0x1174>
40003db0:	4000e4b7          	lui	s1,0x4000e
40003db4:	c704a703          	lw	a4,-912(s1) # 4000dc70 <__clz_tab+0x13c>
40003db8:	c744a483          	lw	s1,-908(s1)
40003dbc:	05812e23          	sw	s8,92(sp)
40003dc0:	00070693          	mv	a3,a4
40003dc4:	c687a703          	lw	a4,-920(a5)
40003dc8:	c6c7a783          	lw	a5,-916(a5)
40003dcc:	07312023          	sw	s3,96(sp)
40003dd0:	02e12823          	sw	a4,48(sp)
40003dd4:	02f12a23          	sw	a5,52(sp)
40003dd8:	02012783          	lw	a5,32(sp)
40003ddc:	00068713          	mv	a4,a3
40003de0:	07712223          	sw	s7,100(sp)
40003de4:	012787b3          	add	a5,a5,s2
40003de8:	07512423          	sw	s5,104(sp)
40003dec:	05a12c23          	sw	s10,88(sp)
40003df0:	07912623          	sw	s9,108(sp)
40003df4:	04012c03          	lw	s8,64(sp)
40003df8:	00068913          	mv	s2,a3
40003dfc:	05612023          	sw	s6,64(sp)
40003e00:	00078a93          	mv	s5,a5
40003e04:	000d8b13          	mv	s6,s11
40003e08:	04412c83          	lw	s9,68(sp)
40003e0c:	05012d03          	lw	s10,80(sp)
40003e10:	05412d83          	lw	s11,84(sp)
40003e14:	00070993          	mv	s3,a4
40003e18:	00048b93          	mv	s7,s1
40003e1c:	0280006f          	j	40003e44 <_dtoa_r+0x650>
40003e20:	03012503          	lw	a0,48(sp)
40003e24:	03412583          	lw	a1,52(sp)
40003e28:	545070ef          	jal	ra,4000bb6c <__subdf3>
40003e2c:	000c0613          	mv	a2,s8
40003e30:	000c8693          	mv	a3,s9
40003e34:	428070ef          	jal	ra,4000b25c <__ledf2>
40003e38:	00055463          	bgez	a0,40003e40 <_dtoa_r+0x64c>
40003e3c:	6a50006f          	j	40004ce0 <_dtoa_r+0x14ec>
40003e40:	315a04e3          	beq	s4,s5,40004948 <_dtoa_r+0x1154>
40003e44:	00098613          	mv	a2,s3
40003e48:	00048693          	mv	a3,s1
40003e4c:	000c0513          	mv	a0,s8
40003e50:	000c8593          	mv	a1,s9
40003e54:	50c070ef          	jal	ra,4000b360 <__muldf3>
40003e58:	00090613          	mv	a2,s2
40003e5c:	000b8693          	mv	a3,s7
40003e60:	00050c13          	mv	s8,a0
40003e64:	00058c93          	mv	s9,a1
40003e68:	000d0513          	mv	a0,s10
40003e6c:	000d8593          	mv	a1,s11
40003e70:	4f0070ef          	jal	ra,4000b360 <__muldf3>
40003e74:	00058d93          	mv	s11,a1
40003e78:	00050d13          	mv	s10,a0
40003e7c:	6c4080ef          	jal	ra,4000c540 <__fixdfsi>
40003e80:	00050413          	mv	s0,a0
40003e84:	740080ef          	jal	ra,4000c5c4 <__floatsidf>
40003e88:	00050613          	mv	a2,a0
40003e8c:	00058693          	mv	a3,a1
40003e90:	000d0513          	mv	a0,s10
40003e94:	000d8593          	mv	a1,s11
40003e98:	03040413          	addi	s0,s0,48
40003e9c:	4d1070ef          	jal	ra,4000bb6c <__subdf3>
40003ea0:	001a0a13          	addi	s4,s4,1
40003ea4:	0ff47413          	andi	s0,s0,255
40003ea8:	000c0613          	mv	a2,s8
40003eac:	000c8693          	mv	a3,s9
40003eb0:	fe8a0fa3          	sb	s0,-1(s4)
40003eb4:	00050d13          	mv	s10,a0
40003eb8:	00058d93          	mv	s11,a1
40003ebc:	3a0070ef          	jal	ra,4000b25c <__ledf2>
40003ec0:	000d0613          	mv	a2,s10
40003ec4:	000d8693          	mv	a3,s11
40003ec8:	f4055ce3          	bgez	a0,40003e20 <_dtoa_r+0x62c>
40003ecc:	05812d03          	lw	s10,88(sp)
40003ed0:	000b0d93          	mv	s11,s6
40003ed4:	04c12783          	lw	a5,76(sp)
40003ed8:	00f12823          	sw	a5,16(sp)
40003edc:	000d0593          	mv	a1,s10
40003ee0:	000d8513          	mv	a0,s11
40003ee4:	7d1010ef          	jal	ra,40005eb4 <_Bfree>
40003ee8:	01012783          	lw	a5,16(sp)
40003eec:	000a0023          	sb	zero,0(s4)
40003ef0:	00178713          	addi	a4,a5,1
40003ef4:	00c12783          	lw	a5,12(sp)
40003ef8:	00e7a023          	sw	a4,0(a5)
40003efc:	0c012783          	lw	a5,192(sp)
40003f00:	1e078ee3          	beqz	a5,400048fc <_dtoa_r+0x1108>
40003f04:	0147a023          	sw	s4,0(a5)
40003f08:	02012503          	lw	a0,32(sp)
40003f0c:	9c9ff06f          	j	400038d4 <_dtoa_r+0xe0>
40003f10:	07812983          	lw	s3,120(sp)
40003f14:	07c12903          	lw	s2,124(sp)
40003f18:	02000793          	li	a5,32
40003f1c:	01298933          	add	s2,s3,s2
40003f20:	43290713          	addi	a4,s2,1074
40003f24:	3ce7d663          	ble	a4,a5,400042f0 <_dtoa_r+0xafc>
40003f28:	04000793          	li	a5,64
40003f2c:	41290513          	addi	a0,s2,1042
40003f30:	40e787b3          	sub	a5,a5,a4
40003f34:	00a4d533          	srl	a0,s1,a0
40003f38:	00fa9ab3          	sll	s5,s5,a5
40003f3c:	01556533          	or	a0,a0,s5
40003f40:	77c080ef          	jal	ra,4000c6bc <__floatunsidf>
40003f44:	fe100bb7          	lui	s7,0xfe100
40003f48:	00050793          	mv	a5,a0
40003f4c:	00bb85b3          	add	a1,s7,a1
40003f50:	fff90913          	addi	s2,s2,-1
40003f54:	00100a93          	li	s5,1
40003f58:	a79ff06f          	j	400039d0 <_dtoa_r+0x1dc>
40003f5c:	4000d537          	lui	a0,0x4000d
40003f60:	76450513          	addi	a0,a0,1892 # 4000d764 <zeroes.4139+0x50>
40003f64:	971ff06f          	j	400038d4 <_dtoa_r+0xe0>
40003f68:	040da223          	sw	zero,68(s11)
40003f6c:	00000593          	li	a1,0
40003f70:	000d8513          	mv	a0,s11
40003f74:	69d010ef          	jal	ra,40005e10 <_Balloc>
40003f78:	fff00793          	li	a5,-1
40003f7c:	02f12c23          	sw	a5,56(sp)
40003f80:	00f12c23          	sw	a5,24(sp)
40003f84:	00100793          	li	a5,1
40003f88:	02a12023          	sw	a0,32(sp)
40003f8c:	04ada023          	sw	a0,64(s11)
40003f90:	00000c93          	li	s9,0
40003f94:	00000b13          	li	s6,0
40003f98:	02f12223          	sw	a5,36(sp)
40003f9c:	07c12783          	lw	a5,124(sp)
40003fa0:	1c07cc63          	bltz	a5,40004178 <_dtoa_r+0x984>
40003fa4:	01012683          	lw	a3,16(sp)
40003fa8:	00e00713          	li	a4,14
40003fac:	1cd74663          	blt	a4,a3,40004178 <_dtoa_r+0x984>
40003fb0:	4000d737          	lui	a4,0x4000d
40003fb4:	00369793          	slli	a5,a3,0x3
40003fb8:	79870713          	addi	a4,a4,1944 # 4000d798 <__mprec_tens>
40003fbc:	00e787b3          	add	a5,a5,a4
40003fc0:	0007ac03          	lw	s8,0(a5)
40003fc4:	0047ac83          	lw	s9,4(a5)
40003fc8:	6a0b4263          	bltz	s6,4000466c <_dtoa_r+0xe78>
40003fcc:	000c0613          	mv	a2,s8
40003fd0:	000c8693          	mv	a3,s9
40003fd4:	000a0513          	mv	a0,s4
40003fd8:	00040593          	mv	a1,s0
40003fdc:	798060ef          	jal	ra,4000a774 <__divdf3>
40003fe0:	560080ef          	jal	ra,4000c540 <__fixdfsi>
40003fe4:	00050493          	mv	s1,a0
40003fe8:	5dc080ef          	jal	ra,4000c5c4 <__floatsidf>
40003fec:	000c0613          	mv	a2,s8
40003ff0:	000c8693          	mv	a3,s9
40003ff4:	36c070ef          	jal	ra,4000b360 <__muldf3>
40003ff8:	00058693          	mv	a3,a1
40003ffc:	00050613          	mv	a2,a0
40004000:	00040593          	mv	a1,s0
40004004:	000a0513          	mv	a0,s4
40004008:	365070ef          	jal	ra,4000bb6c <__subdf3>
4000400c:	02012683          	lw	a3,32(sp)
40004010:	03048793          	addi	a5,s1,48
40004014:	00100713          	li	a4,1
40004018:	00f68023          	sb	a5,0(a3)
4000401c:	01812783          	lw	a5,24(sp)
40004020:	00050813          	mv	a6,a0
40004024:	00058893          	mv	a7,a1
40004028:	00e68a33          	add	s4,a3,a4
4000402c:	0ce78463          	beq	a5,a4,400040f4 <_dtoa_r+0x900>
40004030:	4000e4b7          	lui	s1,0x4000e
40004034:	c704a603          	lw	a2,-912(s1) # 4000dc70 <__clz_tab+0x13c>
40004038:	c744a683          	lw	a3,-908(s1)
4000403c:	324070ef          	jal	ra,4000b360 <__muldf3>
40004040:	00000613          	li	a2,0
40004044:	00000693          	li	a3,0
40004048:	00050913          	mv	s2,a0
4000404c:	00058993          	mv	s3,a1
40004050:	07c070ef          	jal	ra,4000b0cc <__eqdf2>
40004054:	e80504e3          	beqz	a0,40003edc <_dtoa_r+0x6e8>
40004058:	02012783          	lw	a5,32(sp)
4000405c:	01812703          	lw	a4,24(sp)
40004060:	c704ab03          	lw	s6,-912(s1)
40004064:	c744ab83          	lw	s7,-908(s1)
40004068:	00278413          	addi	s0,a5,2
4000406c:	00e78ab3          	add	s5,a5,a4
40004070:	0240006f          	j	40004094 <_dtoa_r+0x8a0>
40004074:	2ec070ef          	jal	ra,4000b360 <__muldf3>
40004078:	00000613          	li	a2,0
4000407c:	00000693          	li	a3,0
40004080:	00050913          	mv	s2,a0
40004084:	00058993          	mv	s3,a1
40004088:	00140413          	addi	s0,s0,1
4000408c:	040070ef          	jal	ra,4000b0cc <__eqdf2>
40004090:	e40506e3          	beqz	a0,40003edc <_dtoa_r+0x6e8>
40004094:	000c0613          	mv	a2,s8
40004098:	000c8693          	mv	a3,s9
4000409c:	00090513          	mv	a0,s2
400040a0:	00098593          	mv	a1,s3
400040a4:	6d0060ef          	jal	ra,4000a774 <__divdf3>
400040a8:	498080ef          	jal	ra,4000c540 <__fixdfsi>
400040ac:	00050493          	mv	s1,a0
400040b0:	514080ef          	jal	ra,4000c5c4 <__floatsidf>
400040b4:	000c0613          	mv	a2,s8
400040b8:	000c8693          	mv	a3,s9
400040bc:	2a4070ef          	jal	ra,4000b360 <__muldf3>
400040c0:	00050613          	mv	a2,a0
400040c4:	00058693          	mv	a3,a1
400040c8:	00090513          	mv	a0,s2
400040cc:	00098593          	mv	a1,s3
400040d0:	29d070ef          	jal	ra,4000bb6c <__subdf3>
400040d4:	03048793          	addi	a5,s1,48
400040d8:	fef40fa3          	sb	a5,-1(s0)
400040dc:	00050813          	mv	a6,a0
400040e0:	00058893          	mv	a7,a1
400040e4:	000b0613          	mv	a2,s6
400040e8:	000b8693          	mv	a3,s7
400040ec:	00040a13          	mv	s4,s0
400040f0:	f88a92e3          	bne	s5,s0,40004074 <_dtoa_r+0x880>
400040f4:	00080613          	mv	a2,a6
400040f8:	00088693          	mv	a3,a7
400040fc:	00080513          	mv	a0,a6
40004100:	00088593          	mv	a1,a7
40004104:	525050ef          	jal	ra,40009e28 <__adddf3>
40004108:	00050913          	mv	s2,a0
4000410c:	00058993          	mv	s3,a1
40004110:	00050613          	mv	a2,a0
40004114:	00058693          	mv	a3,a1
40004118:	000c0513          	mv	a0,s8
4000411c:	000c8593          	mv	a1,s9
40004120:	13c070ef          	jal	ra,4000b25c <__ledf2>
40004124:	02054263          	bltz	a0,40004148 <_dtoa_r+0x954>
40004128:	00090613          	mv	a2,s2
4000412c:	00098693          	mv	a3,s3
40004130:	000c0513          	mv	a0,s8
40004134:	000c8593          	mv	a1,s9
40004138:	795060ef          	jal	ra,4000b0cc <__eqdf2>
4000413c:	da0510e3          	bnez	a0,40003edc <_dtoa_r+0x6e8>
40004140:	0014f493          	andi	s1,s1,1
40004144:	d8048ce3          	beqz	s1,40003edc <_dtoa_r+0x6e8>
40004148:	fffa4403          	lbu	s0,-1(s4)
4000414c:	03900613          	li	a2,57
40004150:	02012783          	lw	a5,32(sp)
40004154:	0100006f          	j	40004164 <_dtoa_r+0x970>
40004158:	0af68ee3          	beq	a3,a5,40004a14 <_dtoa_r+0x1220>
4000415c:	fff6c403          	lbu	s0,-1(a3)
40004160:	00068a13          	mv	s4,a3
40004164:	fffa0693          	addi	a3,s4,-1
40004168:	fec408e3          	beq	s0,a2,40004158 <_dtoa_r+0x964>
4000416c:	00140713          	addi	a4,s0,1
40004170:	00e68023          	sb	a4,0(a3)
40004174:	d69ff06f          	j	40003edc <_dtoa_r+0x6e8>
40004178:	02412703          	lw	a4,36(sp)
4000417c:	16070263          	beqz	a4,400042e0 <_dtoa_r+0xaec>
40004180:	00100713          	li	a4,1
40004184:	59975263          	ble	s9,a4,40004708 <_dtoa_r+0xf14>
40004188:	01812783          	lw	a5,24(sp)
4000418c:	fff78913          	addi	s2,a5,-1
40004190:	7729ca63          	blt	s3,s2,40004904 <_dtoa_r+0x1110>
40004194:	41298933          	sub	s2,s3,s2
40004198:	01812703          	lw	a4,24(sp)
4000419c:	000c0a93          	mv	s5,s8
400041a0:	00070793          	mv	a5,a4
400041a4:	240742e3          	bltz	a4,40004be8 <_dtoa_r+0x13f4>
400041a8:	00100593          	li	a1,1
400041ac:	000d8513          	mv	a0,s11
400041b0:	00fc0c33          	add	s8,s8,a5
400041b4:	00fb8bb3          	add	s7,s7,a5
400041b8:	0a4020ef          	jal	ra,4000625c <__i2b>
400041bc:	00050493          	mv	s1,a0
400041c0:	01505e63          	blez	s5,400041dc <_dtoa_r+0x9e8>
400041c4:	01705c63          	blez	s7,400041dc <_dtoa_r+0x9e8>
400041c8:	000a8793          	mv	a5,s5
400041cc:	455bc663          	blt	s7,s5,40004618 <_dtoa_r+0xe24>
400041d0:	40fc0c33          	sub	s8,s8,a5
400041d4:	40fa8ab3          	sub	s5,s5,a5
400041d8:	40fb8bb3          	sub	s7,s7,a5
400041dc:	04098a63          	beqz	s3,40004230 <_dtoa_r+0xa3c>
400041e0:	02412783          	lw	a5,36(sp)
400041e4:	4e078263          	beqz	a5,400046c8 <_dtoa_r+0xed4>
400041e8:	05205063          	blez	s2,40004228 <_dtoa_r+0xa34>
400041ec:	00048593          	mv	a1,s1
400041f0:	00090613          	mv	a2,s2
400041f4:	000d8513          	mv	a0,s11
400041f8:	2e8020ef          	jal	ra,400064e0 <__pow5mult>
400041fc:	000d0613          	mv	a2,s10
40004200:	00050593          	mv	a1,a0
40004204:	00050493          	mv	s1,a0
40004208:	000d8513          	mv	a0,s11
4000420c:	084020ef          	jal	ra,40006290 <__multiply>
40004210:	02a12823          	sw	a0,48(sp)
40004214:	000d0593          	mv	a1,s10
40004218:	000d8513          	mv	a0,s11
4000421c:	499010ef          	jal	ra,40005eb4 <_Bfree>
40004220:	03012783          	lw	a5,48(sp)
40004224:	00078d13          	mv	s10,a5
40004228:	41298633          	sub	a2,s3,s2
4000422c:	4a061063          	bnez	a2,400046cc <_dtoa_r+0xed8>
40004230:	00100593          	li	a1,1
40004234:	000d8513          	mv	a0,s11
40004238:	024020ef          	jal	ra,4000625c <__i2b>
4000423c:	02c12783          	lw	a5,44(sp)
40004240:	00050993          	mv	s3,a0
40004244:	0cf05063          	blez	a5,40004304 <_dtoa_r+0xb10>
40004248:	00078613          	mv	a2,a5
4000424c:	00050593          	mv	a1,a0
40004250:	000d8513          	mv	a0,s11
40004254:	28c020ef          	jal	ra,400064e0 <__pow5mult>
40004258:	00100793          	li	a5,1
4000425c:	00050993          	mv	s3,a0
40004260:	3d97d063          	ble	s9,a5,40004620 <_dtoa_r+0xe2c>
40004264:	00000913          	li	s2,0
40004268:	0109a783          	lw	a5,16(s3)
4000426c:	00378793          	addi	a5,a5,3
40004270:	00279793          	slli	a5,a5,0x2
40004274:	00f987b3          	add	a5,s3,a5
40004278:	0047a503          	lw	a0,4(a5)
4000427c:	6b1010ef          	jal	ra,4000612c <__hi0bits>
40004280:	02000793          	li	a5,32
40004284:	40a787b3          	sub	a5,a5,a0
40004288:	0940006f          	j	4000431c <_dtoa_r+0xb28>
4000428c:	01012783          	lw	a5,16(sp)
40004290:	02012623          	sw	zero,44(sp)
40004294:	40fc0c33          	sub	s8,s8,a5
40004298:	40f009b3          	neg	s3,a5
4000429c:	839ff06f          	j	40003ad4 <_dtoa_r+0x2e0>
400042a0:	01012b83          	lw	s7,16(sp)
400042a4:	000b8513          	mv	a0,s7
400042a8:	31c080ef          	jal	ra,4000c5c4 <__floatsidf>
400042ac:	00050613          	mv	a2,a0
400042b0:	00058693          	mv	a3,a1
400042b4:	01812503          	lw	a0,24(sp)
400042b8:	01c12583          	lw	a1,28(sp)
400042bc:	611060ef          	jal	ra,4000b0cc <__eqdf2>
400042c0:	00a03533          	snez	a0,a0
400042c4:	40ab87b3          	sub	a5,s7,a0
400042c8:	00f12823          	sw	a5,16(sp)
400042cc:	f9cff06f          	j	40003a68 <_dtoa_r+0x274>
400042d0:	00100c13          	li	s8,1
400042d4:	412c0c33          	sub	s8,s8,s2
400042d8:	00000b93          	li	s7,0
400042dc:	fe4ff06f          	j	40003ac0 <_dtoa_r+0x2cc>
400042e0:	00098913          	mv	s2,s3
400042e4:	000c0a93          	mv	s5,s8
400042e8:	00000493          	li	s1,0
400042ec:	ed5ff06f          	j	400041c0 <_dtoa_r+0x9cc>
400042f0:	40e787b3          	sub	a5,a5,a4
400042f4:	00f49533          	sll	a0,s1,a5
400042f8:	c49ff06f          	j	40003f40 <_dtoa_r+0x74c>
400042fc:	02012423          	sw	zero,40(sp)
40004300:	fb0ff06f          	j	40003ab0 <_dtoa_r+0x2bc>
40004304:	00100793          	li	a5,1
40004308:	00000913          	li	s2,0
4000430c:	4997d663          	ble	s9,a5,40004798 <_dtoa_r+0xfa4>
40004310:	02c12703          	lw	a4,44(sp)
40004314:	00100793          	li	a5,1
40004318:	f40718e3          	bnez	a4,40004268 <_dtoa_r+0xa74>
4000431c:	017787b3          	add	a5,a5,s7
40004320:	01f7f793          	andi	a5,a5,31
40004324:	1a078663          	beqz	a5,400044d0 <_dtoa_r+0xcdc>
40004328:	02000713          	li	a4,32
4000432c:	40f70733          	sub	a4,a4,a5
40004330:	00400693          	li	a3,4
40004334:	20e6dce3          	ble	a4,a3,40004d4c <_dtoa_r+0x1558>
40004338:	01c00713          	li	a4,28
4000433c:	40f707b3          	sub	a5,a4,a5
40004340:	00fc0c33          	add	s8,s8,a5
40004344:	00fa8ab3          	add	s5,s5,a5
40004348:	00fb8bb3          	add	s7,s7,a5
4000434c:	01805c63          	blez	s8,40004364 <_dtoa_r+0xb70>
40004350:	000d0593          	mv	a1,s10
40004354:	000c0613          	mv	a2,s8
40004358:	000d8513          	mv	a0,s11
4000435c:	2cc020ef          	jal	ra,40006628 <__lshift>
40004360:	00050d13          	mv	s10,a0
40004364:	01705c63          	blez	s7,4000437c <_dtoa_r+0xb88>
40004368:	00098593          	mv	a1,s3
4000436c:	000b8613          	mv	a2,s7
40004370:	000d8513          	mv	a0,s11
40004374:	2b4020ef          	jal	ra,40006628 <__lshift>
40004378:	00050993          	mv	s3,a0
4000437c:	02812783          	lw	a5,40(sp)
40004380:	16079263          	bnez	a5,400044e4 <_dtoa_r+0xcf0>
40004384:	01812783          	lw	a5,24(sp)
40004388:	46f05663          	blez	a5,400047f4 <_dtoa_r+0x1000>
4000438c:	02412783          	lw	a5,36(sp)
40004390:	1a078463          	beqz	a5,40004538 <_dtoa_r+0xd44>
40004394:	01505c63          	blez	s5,400043ac <_dtoa_r+0xbb8>
40004398:	00048593          	mv	a1,s1
4000439c:	000a8613          	mv	a2,s5
400043a0:	000d8513          	mv	a0,s11
400043a4:	284020ef          	jal	ra,40006628 <__lshift>
400043a8:	00050493          	mv	s1,a0
400043ac:	00048b13          	mv	s6,s1
400043b0:	68091263          	bnez	s2,40004a34 <_dtoa_r+0x1240>
400043b4:	02012783          	lw	a5,32(sp)
400043b8:	01812703          	lw	a4,24(sp)
400043bc:	00a00b93          	li	s7,10
400043c0:	00178413          	addi	s0,a5,1
400043c4:	00e787b3          	add	a5,a5,a4
400043c8:	02f12623          	sw	a5,44(sp)
400043cc:	001a7793          	andi	a5,s4,1
400043d0:	02f12223          	sw	a5,36(sp)
400043d4:	00098593          	mv	a1,s3
400043d8:	000d0513          	mv	a0,s10
400043dc:	9e0ff0ef          	jal	ra,400035bc <quorem>
400043e0:	00050c13          	mv	s8,a0
400043e4:	00048593          	mv	a1,s1
400043e8:	000d0513          	mv	a0,s10
400043ec:	384020ef          	jal	ra,40006770 <__mcmp>
400043f0:	00050913          	mv	s2,a0
400043f4:	000b0613          	mv	a2,s6
400043f8:	00098593          	mv	a1,s3
400043fc:	000d8513          	mv	a0,s11
40004400:	3c8020ef          	jal	ra,400067c8 <__mdiff>
40004404:	00c52683          	lw	a3,12(a0)
40004408:	fff40713          	addi	a4,s0,-1
4000440c:	02e12423          	sw	a4,40(sp)
40004410:	00050793          	mv	a5,a0
40004414:	030c0a93          	addi	s5,s8,48
40004418:	00100a13          	li	s4,1
4000441c:	00069e63          	bnez	a3,40004438 <_dtoa_r+0xc44>
40004420:	00050593          	mv	a1,a0
40004424:	00a12c23          	sw	a0,24(sp)
40004428:	000d0513          	mv	a0,s10
4000442c:	344020ef          	jal	ra,40006770 <__mcmp>
40004430:	01812783          	lw	a5,24(sp)
40004434:	00050a13          	mv	s4,a0
40004438:	00078593          	mv	a1,a5
4000443c:	000d8513          	mv	a0,s11
40004440:	275010ef          	jal	ra,40005eb4 <_Bfree>
40004444:	019a67b3          	or	a5,s4,s9
40004448:	00079663          	bnez	a5,40004454 <_dtoa_r+0xc60>
4000444c:	02412783          	lw	a5,36(sp)
40004450:	2c078a63          	beqz	a5,40004724 <_dtoa_r+0xf30>
40004454:	2e094c63          	bltz	s2,4000474c <_dtoa_r+0xf58>
40004458:	01996933          	or	s2,s2,s9
4000445c:	00091663          	bnez	s2,40004468 <_dtoa_r+0xc74>
40004460:	02412783          	lw	a5,36(sp)
40004464:	2e078463          	beqz	a5,4000474c <_dtoa_r+0xf58>
40004468:	77404263          	bgtz	s4,40004bcc <_dtoa_r+0x13d8>
4000446c:	02c12783          	lw	a5,44(sp)
40004470:	ff540fa3          	sb	s5,-1(s0)
40004474:	00040a13          	mv	s4,s0
40004478:	76878263          	beq	a5,s0,40004bdc <_dtoa_r+0x13e8>
4000447c:	000d0593          	mv	a1,s10
40004480:	00000693          	li	a3,0
40004484:	000b8613          	mv	a2,s7
40004488:	000d8513          	mv	a0,s11
4000448c:	24d010ef          	jal	ra,40005ed8 <__multadd>
40004490:	00050d13          	mv	s10,a0
40004494:	00000693          	li	a3,0
40004498:	000b8613          	mv	a2,s7
4000449c:	00048593          	mv	a1,s1
400044a0:	000d8513          	mv	a0,s11
400044a4:	2f648e63          	beq	s1,s6,400047a0 <_dtoa_r+0xfac>
400044a8:	231010ef          	jal	ra,40005ed8 <__multadd>
400044ac:	000b0593          	mv	a1,s6
400044b0:	00050493          	mv	s1,a0
400044b4:	00000693          	li	a3,0
400044b8:	000b8613          	mv	a2,s7
400044bc:	000d8513          	mv	a0,s11
400044c0:	219010ef          	jal	ra,40005ed8 <__multadd>
400044c4:	00050b13          	mv	s6,a0
400044c8:	00140413          	addi	s0,s0,1
400044cc:	f09ff06f          	j	400043d4 <_dtoa_r+0xbe0>
400044d0:	01c00793          	li	a5,28
400044d4:	00fc0c33          	add	s8,s8,a5
400044d8:	00fa8ab3          	add	s5,s5,a5
400044dc:	00fb8bb3          	add	s7,s7,a5
400044e0:	e6dff06f          	j	4000434c <_dtoa_r+0xb58>
400044e4:	00098593          	mv	a1,s3
400044e8:	000d0513          	mv	a0,s10
400044ec:	284020ef          	jal	ra,40006770 <__mcmp>
400044f0:	e8055ae3          	bgez	a0,40004384 <_dtoa_r+0xb90>
400044f4:	000d0593          	mv	a1,s10
400044f8:	00000693          	li	a3,0
400044fc:	00a00613          	li	a2,10
40004500:	000d8513          	mv	a0,s11
40004504:	1d5010ef          	jal	ra,40005ed8 <__multadd>
40004508:	01012783          	lw	a5,16(sp)
4000450c:	00050d13          	mv	s10,a0
40004510:	fff78793          	addi	a5,a5,-1
40004514:	00f12823          	sw	a5,16(sp)
40004518:	02412783          	lw	a5,36(sp)
4000451c:	7e079463          	bnez	a5,40004d04 <_dtoa_r+0x1510>
40004520:	03812783          	lw	a5,56(sp)
40004524:	00f04863          	bgtz	a5,40004534 <_dtoa_r+0xd40>
40004528:	00200793          	li	a5,2
4000452c:	0197cae3          	blt	a5,s9,40004d40 <_dtoa_r+0x154c>
40004530:	03812783          	lw	a5,56(sp)
40004534:	00f12c23          	sw	a5,24(sp)
40004538:	02012b03          	lw	s6,32(sp)
4000453c:	00a00913          	li	s2,10
40004540:	01812a03          	lw	s4,24(sp)
40004544:	000b0413          	mv	s0,s6
40004548:	00c0006f          	j	40004554 <_dtoa_r+0xd60>
4000454c:	18d010ef          	jal	ra,40005ed8 <__multadd>
40004550:	00050d13          	mv	s10,a0
40004554:	00098593          	mv	a1,s3
40004558:	000d0513          	mv	a0,s10
4000455c:	860ff0ef          	jal	ra,400035bc <quorem>
40004560:	00140413          	addi	s0,s0,1
40004564:	03050a93          	addi	s5,a0,48
40004568:	ff540fa3          	sb	s5,-1(s0)
4000456c:	416407b3          	sub	a5,s0,s6
40004570:	00000693          	li	a3,0
40004574:	00090613          	mv	a2,s2
40004578:	000d0593          	mv	a1,s10
4000457c:	000d8513          	mv	a0,s11
40004580:	fd47c6e3          	blt	a5,s4,4000454c <_dtoa_r+0xd58>
40004584:	01812783          	lw	a5,24(sp)
40004588:	66f05663          	blez	a5,40004bf4 <_dtoa_r+0x1400>
4000458c:	02012703          	lw	a4,32(sp)
40004590:	00000413          	li	s0,0
40004594:	00f70a33          	add	s4,a4,a5
40004598:	000d0593          	mv	a1,s10
4000459c:	00100613          	li	a2,1
400045a0:	000d8513          	mv	a0,s11
400045a4:	084020ef          	jal	ra,40006628 <__lshift>
400045a8:	00098593          	mv	a1,s3
400045ac:	00050d13          	mv	s10,a0
400045b0:	1c0020ef          	jal	ra,40006770 <__mcmp>
400045b4:	12a05663          	blez	a0,400046e0 <_dtoa_r+0xeec>
400045b8:	fffa4683          	lbu	a3,-1(s4)
400045bc:	03900613          	li	a2,57
400045c0:	02012783          	lw	a5,32(sp)
400045c4:	0100006f          	j	400045d4 <_dtoa_r+0xde0>
400045c8:	28f70263          	beq	a4,a5,4000484c <_dtoa_r+0x1058>
400045cc:	fff74683          	lbu	a3,-1(a4)
400045d0:	00070a13          	mv	s4,a4
400045d4:	fffa0713          	addi	a4,s4,-1
400045d8:	fec688e3          	beq	a3,a2,400045c8 <_dtoa_r+0xdd4>
400045dc:	00168693          	addi	a3,a3,1
400045e0:	00d70023          	sb	a3,0(a4)
400045e4:	00098593          	mv	a1,s3
400045e8:	000d8513          	mv	a0,s11
400045ec:	0c9010ef          	jal	ra,40005eb4 <_Bfree>
400045f0:	8e0486e3          	beqz	s1,40003edc <_dtoa_r+0x6e8>
400045f4:	00040a63          	beqz	s0,40004608 <_dtoa_r+0xe14>
400045f8:	00940863          	beq	s0,s1,40004608 <_dtoa_r+0xe14>
400045fc:	00040593          	mv	a1,s0
40004600:	000d8513          	mv	a0,s11
40004604:	0b1010ef          	jal	ra,40005eb4 <_Bfree>
40004608:	00048593          	mv	a1,s1
4000460c:	000d8513          	mv	a0,s11
40004610:	0a5010ef          	jal	ra,40005eb4 <_Bfree>
40004614:	8c9ff06f          	j	40003edc <_dtoa_r+0x6e8>
40004618:	000b8793          	mv	a5,s7
4000461c:	bb5ff06f          	j	400041d0 <_dtoa_r+0x9dc>
40004620:	c40a12e3          	bnez	s4,40004264 <_dtoa_r+0xa70>
40004624:	00c41793          	slli	a5,s0,0xc
40004628:	00000913          	li	s2,0
4000462c:	ce0792e3          	bnez	a5,40004310 <_dtoa_r+0xb1c>
40004630:	7ff007b7          	lui	a5,0x7ff00
40004634:	00f47433          	and	s0,s0,a5
40004638:	cc040ce3          	beqz	s0,40004310 <_dtoa_r+0xb1c>
4000463c:	001c0c13          	addi	s8,s8,1
40004640:	001b8b93          	addi	s7,s7,1 # fe100001 <end+0xbe0ef221>
40004644:	00100913          	li	s2,1
40004648:	cc9ff06f          	j	40004310 <_dtoa_r+0xb1c>
4000464c:	00100793          	li	a5,1
40004650:	02f12223          	sw	a5,36(sp)
40004654:	2d605663          	blez	s6,40004920 <_dtoa_r+0x112c>
40004658:	000b0613          	mv	a2,s6
4000465c:	000b0813          	mv	a6,s6
40004660:	03612c23          	sw	s6,56(sp)
40004664:	01612c23          	sw	s6,24(sp)
40004668:	cccff06f          	j	40003b34 <_dtoa_r+0x340>
4000466c:	01812783          	lw	a5,24(sp)
40004670:	94f04ee3          	bgtz	a5,40003fcc <_dtoa_r+0x7d8>
40004674:	26079e63          	bnez	a5,400048f0 <_dtoa_r+0x10fc>
40004678:	4000e7b7          	lui	a5,0x4000e
4000467c:	c807a603          	lw	a2,-896(a5) # 4000dc80 <__clz_tab+0x14c>
40004680:	c847a683          	lw	a3,-892(a5)
40004684:	000c0513          	mv	a0,s8
40004688:	000c8593          	mv	a1,s9
4000468c:	4d5060ef          	jal	ra,4000b360 <__muldf3>
40004690:	000a0613          	mv	a2,s4
40004694:	00040693          	mv	a3,s0
40004698:	2c1060ef          	jal	ra,4000b158 <__gedf2>
4000469c:	00000993          	li	s3,0
400046a0:	00000493          	li	s1,0
400046a4:	18054463          	bltz	a0,4000482c <_dtoa_r+0x1038>
400046a8:	02012a03          	lw	s4,32(sp)
400046ac:	fffb4793          	not	a5,s6
400046b0:	00f12823          	sw	a5,16(sp)
400046b4:	00098593          	mv	a1,s3
400046b8:	000d8513          	mv	a0,s11
400046bc:	7f8010ef          	jal	ra,40005eb4 <_Bfree>
400046c0:	80048ee3          	beqz	s1,40003edc <_dtoa_r+0x6e8>
400046c4:	f45ff06f          	j	40004608 <_dtoa_r+0xe14>
400046c8:	00098613          	mv	a2,s3
400046cc:	000d0593          	mv	a1,s10
400046d0:	000d8513          	mv	a0,s11
400046d4:	60d010ef          	jal	ra,400064e0 <__pow5mult>
400046d8:	00050d13          	mv	s10,a0
400046dc:	b55ff06f          	j	40004230 <_dtoa_r+0xa3c>
400046e0:	00051663          	bnez	a0,400046ec <_dtoa_r+0xef8>
400046e4:	001afa93          	andi	s5,s5,1
400046e8:	ec0a98e3          	bnez	s5,400045b8 <_dtoa_r+0xdc4>
400046ec:	03000613          	li	a2,48
400046f0:	0080006f          	j	400046f8 <_dtoa_r+0xf04>
400046f4:	00070a13          	mv	s4,a4
400046f8:	fffa4783          	lbu	a5,-1(s4)
400046fc:	fffa0713          	addi	a4,s4,-1
40004700:	fec78ae3          	beq	a5,a2,400046f4 <_dtoa_r+0xf00>
40004704:	ee1ff06f          	j	400045e4 <_dtoa_r+0xdf0>
40004708:	4e0a8a63          	beqz	s5,40004bfc <_dtoa_r+0x1408>
4000470c:	43378793          	addi	a5,a5,1075
40004710:	00098913          	mv	s2,s3
40004714:	000c0a93          	mv	s5,s8
40004718:	a91ff06f          	j	400041a8 <_dtoa_r+0x9b4>
4000471c:	00100613          	li	a2,1
40004720:	c10ff06f          	j	40003b30 <_dtoa_r+0x33c>
40004724:	03900793          	li	a5,57
40004728:	04fa8863          	beq	s5,a5,40004778 <_dtoa_r+0xf84>
4000472c:	01205463          	blez	s2,40004734 <_dtoa_r+0xf40>
40004730:	031c0a93          	addi	s5,s8,49
40004734:	02812783          	lw	a5,40(sp)
40004738:	00048413          	mv	s0,s1
4000473c:	000b0493          	mv	s1,s6
40004740:	00178a13          	addi	s4,a5,1
40004744:	01578023          	sb	s5,0(a5)
40004748:	e9dff06f          	j	400045e4 <_dtoa_r+0xdf0>
4000474c:	ff4054e3          	blez	s4,40004734 <_dtoa_r+0xf40>
40004750:	000d0593          	mv	a1,s10
40004754:	00100613          	li	a2,1
40004758:	000d8513          	mv	a0,s11
4000475c:	6cd010ef          	jal	ra,40006628 <__lshift>
40004760:	00098593          	mv	a1,s3
40004764:	00050d13          	mv	s10,a0
40004768:	008020ef          	jal	ra,40006770 <__mcmp>
4000476c:	58a05463          	blez	a0,40004cf4 <_dtoa_r+0x1500>
40004770:	03900793          	li	a5,57
40004774:	fafa9ee3          	bne	s5,a5,40004730 <_dtoa_r+0xf3c>
40004778:	02812783          	lw	a5,40(sp)
4000477c:	03900713          	li	a4,57
40004780:	00048413          	mv	s0,s1
40004784:	00178a13          	addi	s4,a5,1
40004788:	00e78023          	sb	a4,0(a5)
4000478c:	000b0493          	mv	s1,s6
40004790:	03900693          	li	a3,57
40004794:	e29ff06f          	j	400045bc <_dtoa_r+0xdc8>
40004798:	b60a1ce3          	bnez	s4,40004310 <_dtoa_r+0xb1c>
4000479c:	e89ff06f          	j	40004624 <_dtoa_r+0xe30>
400047a0:	738010ef          	jal	ra,40005ed8 <__multadd>
400047a4:	00050493          	mv	s1,a0
400047a8:	00050b13          	mv	s6,a0
400047ac:	00140413          	addi	s0,s0,1
400047b0:	c25ff06f          	j	400043d4 <_dtoa_r+0xbe0>
400047b4:	00200793          	li	a5,2
400047b8:	02012223          	sw	zero,36(sp)
400047bc:	e8fc8ce3          	beq	s9,a5,40004654 <_dtoa_r+0xe60>
400047c0:	040da223          	sw	zero,68(s11)
400047c4:	00000593          	li	a1,0
400047c8:	000d8513          	mv	a0,s11
400047cc:	644010ef          	jal	ra,40005e10 <_Balloc>
400047d0:	fff00793          	li	a5,-1
400047d4:	02f12c23          	sw	a5,56(sp)
400047d8:	00f12c23          	sw	a5,24(sp)
400047dc:	00100793          	li	a5,1
400047e0:	02a12023          	sw	a0,32(sp)
400047e4:	04ada023          	sw	a0,64(s11)
400047e8:	00000b13          	li	s6,0
400047ec:	02f12223          	sw	a5,36(sp)
400047f0:	facff06f          	j	40003f9c <_dtoa_r+0x7a8>
400047f4:	00200793          	li	a5,2
400047f8:	b997dae3          	ble	s9,a5,4000438c <_dtoa_r+0xb98>
400047fc:	01812783          	lw	a5,24(sp)
40004800:	ea0794e3          	bnez	a5,400046a8 <_dtoa_r+0xeb4>
40004804:	00098593          	mv	a1,s3
40004808:	00000693          	li	a3,0
4000480c:	00500613          	li	a2,5
40004810:	000d8513          	mv	a0,s11
40004814:	6c4010ef          	jal	ra,40005ed8 <__multadd>
40004818:	00050993          	mv	s3,a0
4000481c:	00050593          	mv	a1,a0
40004820:	000d0513          	mv	a0,s10
40004824:	74d010ef          	jal	ra,40006770 <__mcmp>
40004828:	e8a050e3          	blez	a0,400046a8 <_dtoa_r+0xeb4>
4000482c:	02012783          	lw	a5,32(sp)
40004830:	03100713          	li	a4,49
40004834:	00178a13          	addi	s4,a5,1
40004838:	00e78023          	sb	a4,0(a5)
4000483c:	01012783          	lw	a5,16(sp)
40004840:	00178793          	addi	a5,a5,1
40004844:	00f12823          	sw	a5,16(sp)
40004848:	e6dff06f          	j	400046b4 <_dtoa_r+0xec0>
4000484c:	01012783          	lw	a5,16(sp)
40004850:	03100713          	li	a4,49
40004854:	00178793          	addi	a5,a5,1
40004858:	00f12823          	sw	a5,16(sp)
4000485c:	02012783          	lw	a5,32(sp)
40004860:	00e78023          	sb	a4,0(a5)
40004864:	d81ff06f          	j	400045e4 <_dtoa_r+0xdf0>
40004868:	02012223          	sw	zero,36(sp)
4000486c:	aa8ff06f          	j	40003b14 <_dtoa_r+0x320>
40004870:	00090513          	mv	a0,s2
40004874:	551070ef          	jal	ra,4000c5c4 <__floatsidf>
40004878:	03012603          	lw	a2,48(sp)
4000487c:	03412683          	lw	a3,52(sp)
40004880:	fcc004b7          	lui	s1,0xfcc00
40004884:	2dd060ef          	jal	ra,4000b360 <__muldf3>
40004888:	4000e7b7          	lui	a5,0x4000e
4000488c:	c787a603          	lw	a2,-904(a5) # 4000dc78 <__clz_tab+0x144>
40004890:	c7c7a683          	lw	a3,-900(a5)
40004894:	594050ef          	jal	ra,40009e28 <__adddf3>
40004898:	00050413          	mv	s0,a0
4000489c:	00b484b3          	add	s1,s1,a1
400048a0:	4000e7b7          	lui	a5,0x4000e
400048a4:	c807a603          	lw	a2,-896(a5) # 4000dc80 <__clz_tab+0x14c>
400048a8:	c847a683          	lw	a3,-892(a5)
400048ac:	03012503          	lw	a0,48(sp)
400048b0:	03412583          	lw	a1,52(sp)
400048b4:	2b8070ef          	jal	ra,4000bb6c <__subdf3>
400048b8:	00040613          	mv	a2,s0
400048bc:	00048693          	mv	a3,s1
400048c0:	02a12823          	sw	a0,48(sp)
400048c4:	02b12a23          	sw	a1,52(sp)
400048c8:	091060ef          	jal	ra,4000b158 <__gedf2>
400048cc:	2ea04a63          	bgtz	a0,40004bc0 <_dtoa_r+0x13cc>
400048d0:	800007b7          	lui	a5,0x80000
400048d4:	03012503          	lw	a0,48(sp)
400048d8:	03412583          	lw	a1,52(sp)
400048dc:	00f4c4b3          	xor	s1,s1,a5
400048e0:	00040613          	mv	a2,s0
400048e4:	00048693          	mv	a3,s1
400048e8:	175060ef          	jal	ra,4000b25c <__ledf2>
400048ec:	06055e63          	bgez	a0,40004968 <_dtoa_r+0x1174>
400048f0:	00000993          	li	s3,0
400048f4:	00000493          	li	s1,0
400048f8:	db1ff06f          	j	400046a8 <_dtoa_r+0xeb4>
400048fc:	02012503          	lw	a0,32(sp)
40004900:	fd5fe06f          	j	400038d4 <_dtoa_r+0xe0>
40004904:	02c12783          	lw	a5,44(sp)
40004908:	413909b3          	sub	s3,s2,s3
4000490c:	013787b3          	add	a5,a5,s3
40004910:	02f12623          	sw	a5,44(sp)
40004914:	00090993          	mv	s3,s2
40004918:	00000913          	li	s2,0
4000491c:	87dff06f          	j	40004198 <_dtoa_r+0x9a4>
40004920:	040da223          	sw	zero,68(s11)
40004924:	00000593          	li	a1,0
40004928:	000d8513          	mv	a0,s11
4000492c:	4e4010ef          	jal	ra,40005e10 <_Balloc>
40004930:	00100b13          	li	s6,1
40004934:	02a12023          	sw	a0,32(sp)
40004938:	04ada023          	sw	a0,64(s11)
4000493c:	03612c23          	sw	s6,56(sp)
40004940:	01612c23          	sw	s6,24(sp)
40004944:	a40ff06f          	j	40003b84 <_dtoa_r+0x390>
40004948:	000b0d93          	mv	s11,s6
4000494c:	05c12c03          	lw	s8,92(sp)
40004950:	06012983          	lw	s3,96(sp)
40004954:	06412b83          	lw	s7,100(sp)
40004958:	06812a83          	lw	s5,104(sp)
4000495c:	05812d03          	lw	s10,88(sp)
40004960:	06c12c83          	lw	s9,108(sp)
40004964:	04012b03          	lw	s6,64(sp)
40004968:	03c12a03          	lw	s4,60(sp)
4000496c:	04812403          	lw	s0,72(sp)
40004970:	e2cff06f          	j	40003f9c <_dtoa_r+0x7a8>
40004974:	01012783          	lw	a5,16(sp)
40004978:	02912823          	sw	s1,48(sp)
4000497c:	02812a23          	sw	s0,52(sp)
40004980:	00200913          	li	s2,2
40004984:	ac078e63          	beqz	a5,40003c60 <_dtoa_r+0x46c>
40004988:	40f007b3          	neg	a5,a5
4000498c:	00f7f713          	andi	a4,a5,15
40004990:	4000d6b7          	lui	a3,0x4000d
40004994:	79868693          	addi	a3,a3,1944 # 4000d798 <__mprec_tens>
40004998:	00371713          	slli	a4,a4,0x3
4000499c:	00d70733          	add	a4,a4,a3
400049a0:	00072603          	lw	a2,0(a4)
400049a4:	00472683          	lw	a3,4(a4)
400049a8:	00040593          	mv	a1,s0
400049ac:	00048513          	mv	a0,s1
400049b0:	4047d413          	srai	s0,a5,0x4
400049b4:	1ad060ef          	jal	ra,4000b360 <__muldf3>
400049b8:	02a12823          	sw	a0,48(sp)
400049bc:	02b12a23          	sw	a1,52(sp)
400049c0:	aa040063          	beqz	s0,40003c60 <_dtoa_r+0x46c>
400049c4:	4000e4b7          	lui	s1,0x4000e
400049c8:	88848493          	addi	s1,s1,-1912 # 4000d888 <__mprec_bigtens>
400049cc:	00050613          	mv	a2,a0
400049d0:	00058693          	mv	a3,a1
400049d4:	00147793          	andi	a5,s0,1
400049d8:	00060513          	mv	a0,a2
400049dc:	40145413          	srai	s0,s0,0x1
400049e0:	00068593          	mv	a1,a3
400049e4:	00078e63          	beqz	a5,40004a00 <_dtoa_r+0x120c>
400049e8:	0004a603          	lw	a2,0(s1)
400049ec:	0044a683          	lw	a3,4(s1)
400049f0:	00190913          	addi	s2,s2,1
400049f4:	16d060ef          	jal	ra,4000b360 <__muldf3>
400049f8:	00050613          	mv	a2,a0
400049fc:	00058693          	mv	a3,a1
40004a00:	00848493          	addi	s1,s1,8
40004a04:	fc0418e3          	bnez	s0,400049d4 <_dtoa_r+0x11e0>
40004a08:	02c12823          	sw	a2,48(sp)
40004a0c:	02d12a23          	sw	a3,52(sp)
40004a10:	a50ff06f          	j	40003c60 <_dtoa_r+0x46c>
40004a14:	02012783          	lw	a5,32(sp)
40004a18:	03000713          	li	a4,48
40004a1c:	00e78023          	sb	a4,0(a5) # 80000000 <end+0x3ffef220>
40004a20:	01012783          	lw	a5,16(sp)
40004a24:	fffa4403          	lbu	s0,-1(s4)
40004a28:	00178793          	addi	a5,a5,1
40004a2c:	00f12823          	sw	a5,16(sp)
40004a30:	f3cff06f          	j	4000416c <_dtoa_r+0x978>
40004a34:	0044a583          	lw	a1,4(s1)
40004a38:	000d8513          	mv	a0,s11
40004a3c:	3d4010ef          	jal	ra,40005e10 <_Balloc>
40004a40:	0104a603          	lw	a2,16(s1)
40004a44:	00050413          	mv	s0,a0
40004a48:	00c48593          	addi	a1,s1,12
40004a4c:	00260613          	addi	a2,a2,2
40004a50:	00261613          	slli	a2,a2,0x2
40004a54:	00c50513          	addi	a0,a0,12
40004a58:	a05fc0ef          	jal	ra,4000145c <memcpy>
40004a5c:	00100613          	li	a2,1
40004a60:	00040593          	mv	a1,s0
40004a64:	000d8513          	mv	a0,s11
40004a68:	3c1010ef          	jal	ra,40006628 <__lshift>
40004a6c:	00050b13          	mv	s6,a0
40004a70:	945ff06f          	j	400043b4 <_dtoa_r+0xbc0>
40004a74:	fff90793          	addi	a5,s2,-1
40004a78:	4000d737          	lui	a4,0x4000d
40004a7c:	79870713          	addi	a4,a4,1944 # 4000d798 <__mprec_tens>
40004a80:	00379793          	slli	a5,a5,0x3
40004a84:	00e787b3          	add	a5,a5,a4
40004a88:	0007a503          	lw	a0,0(a5)
40004a8c:	0047a583          	lw	a1,4(a5)
40004a90:	00040613          	mv	a2,s0
40004a94:	00048693          	mv	a3,s1
40004a98:	0c9060ef          	jal	ra,4000b360 <__muldf3>
40004a9c:	04a12023          	sw	a0,64(sp)
40004aa0:	04b12223          	sw	a1,68(sp)
40004aa4:	03012503          	lw	a0,48(sp)
40004aa8:	03412583          	lw	a1,52(sp)
40004aac:	4000e4b7          	lui	s1,0x4000e
40004ab0:	291070ef          	jal	ra,4000c540 <__fixdfsi>
40004ab4:	00050413          	mv	s0,a0
40004ab8:	30d070ef          	jal	ra,4000c5c4 <__floatsidf>
40004abc:	00050613          	mv	a2,a0
40004ac0:	00058693          	mv	a3,a1
40004ac4:	03012503          	lw	a0,48(sp)
40004ac8:	03412583          	lw	a1,52(sp)
40004acc:	03040413          	addi	s0,s0,48
40004ad0:	09c070ef          	jal	ra,4000bb6c <__subdf3>
40004ad4:	02012783          	lw	a5,32(sp)
40004ad8:	00100713          	li	a4,1
40004adc:	00050813          	mv	a6,a0
40004ae0:	00878023          	sb	s0,0(a5)
40004ae4:	00058893          	mv	a7,a1
40004ae8:	00e78a33          	add	s4,a5,a4
40004aec:	01278433          	add	s0,a5,s2
40004af0:	08e90063          	beq	s2,a4,40004b70 <_dtoa_r+0x137c>
40004af4:	c704a703          	lw	a4,-912(s1) # 4000dc70 <__clz_tab+0x13c>
40004af8:	c744a783          	lw	a5,-908(s1)
40004afc:	05612823          	sw	s6,80(sp)
40004b00:	02e12823          	sw	a4,48(sp)
40004b04:	000a8b13          	mv	s6,s5
40004b08:	02f12a23          	sw	a5,52(sp)
40004b0c:	00098a93          	mv	s5,s3
40004b10:	03012603          	lw	a2,48(sp)
40004b14:	03412683          	lw	a3,52(sp)
40004b18:	00080513          	mv	a0,a6
40004b1c:	00088593          	mv	a1,a7
40004b20:	041060ef          	jal	ra,4000b360 <__muldf3>
40004b24:	00058993          	mv	s3,a1
40004b28:	00050913          	mv	s2,a0
40004b2c:	215070ef          	jal	ra,4000c540 <__fixdfsi>
40004b30:	00050493          	mv	s1,a0
40004b34:	291070ef          	jal	ra,4000c5c4 <__floatsidf>
40004b38:	00050613          	mv	a2,a0
40004b3c:	00058693          	mv	a3,a1
40004b40:	00090513          	mv	a0,s2
40004b44:	00098593          	mv	a1,s3
40004b48:	001a0a13          	addi	s4,s4,1
40004b4c:	03048493          	addi	s1,s1,48
40004b50:	01c070ef          	jal	ra,4000bb6c <__subdf3>
40004b54:	fe9a0fa3          	sb	s1,-1(s4)
40004b58:	00050813          	mv	a6,a0
40004b5c:	00058893          	mv	a7,a1
40004b60:	fa8a18e3          	bne	s4,s0,40004b10 <_dtoa_r+0x131c>
40004b64:	000a8993          	mv	s3,s5
40004b68:	000b0a93          	mv	s5,s6
40004b6c:	05012b03          	lw	s6,80(sp)
40004b70:	4000e437          	lui	s0,0x4000e
40004b74:	c8842603          	lw	a2,-888(s0) # 4000dc88 <__clz_tab+0x154>
40004b78:	c8c42683          	lw	a3,-884(s0)
40004b7c:	04012503          	lw	a0,64(sp)
40004b80:	04412583          	lw	a1,68(sp)
40004b84:	03012823          	sw	a6,48(sp)
40004b88:	03112a23          	sw	a7,52(sp)
40004b8c:	29c050ef          	jal	ra,40009e28 <__adddf3>
40004b90:	03012803          	lw	a6,48(sp)
40004b94:	03412883          	lw	a7,52(sp)
40004b98:	00080613          	mv	a2,a6
40004b9c:	00088693          	mv	a3,a7
40004ba0:	6bc060ef          	jal	ra,4000b25c <__ledf2>
40004ba4:	03012803          	lw	a6,48(sp)
40004ba8:	03412883          	lw	a7,52(sp)
40004bac:	0e055263          	bgez	a0,40004c90 <_dtoa_r+0x149c>
40004bb0:	04c12783          	lw	a5,76(sp)
40004bb4:	fffa4403          	lbu	s0,-1(s4)
40004bb8:	00f12823          	sw	a5,16(sp)
40004bbc:	d90ff06f          	j	4000414c <_dtoa_r+0x958>
40004bc0:	00000993          	li	s3,0
40004bc4:	00000493          	li	s1,0
40004bc8:	c65ff06f          	j	4000482c <_dtoa_r+0x1038>
40004bcc:	03900793          	li	a5,57
40004bd0:	bafa84e3          	beq	s5,a5,40004778 <_dtoa_r+0xf84>
40004bd4:	001a8a93          	addi	s5,s5,1
40004bd8:	b5dff06f          	j	40004734 <_dtoa_r+0xf40>
40004bdc:	00048413          	mv	s0,s1
40004be0:	000b0493          	mv	s1,s6
40004be4:	9b5ff06f          	j	40004598 <_dtoa_r+0xda4>
40004be8:	40ec0ab3          	sub	s5,s8,a4
40004bec:	00000793          	li	a5,0
40004bf0:	db8ff06f          	j	400041a8 <_dtoa_r+0x9b4>
40004bf4:	00100793          	li	a5,1
40004bf8:	995ff06f          	j	4000458c <_dtoa_r+0xd98>
40004bfc:	07812703          	lw	a4,120(sp)
40004c00:	03600793          	li	a5,54
40004c04:	00098913          	mv	s2,s3
40004c08:	40e787b3          	sub	a5,a5,a4
40004c0c:	000c0a93          	mv	s5,s8
40004c10:	d98ff06f          	j	400041a8 <_dtoa_r+0x9b4>
40004c14:	01812783          	lw	a5,24(sp)
40004c18:	c4078ce3          	beqz	a5,40004870 <_dtoa_r+0x107c>
40004c1c:	03812a03          	lw	s4,56(sp)
40004c20:	d54054e3          	blez	s4,40004968 <_dtoa_r+0x1174>
40004c24:	4000e4b7          	lui	s1,0x4000e
40004c28:	01012783          	lw	a5,16(sp)
40004c2c:	c704a603          	lw	a2,-912(s1) # 4000dc70 <__clz_tab+0x13c>
40004c30:	c744a683          	lw	a3,-908(s1)
40004c34:	03012503          	lw	a0,48(sp)
40004c38:	03412583          	lw	a1,52(sp)
40004c3c:	fff78793          	addi	a5,a5,-1
40004c40:	04f12623          	sw	a5,76(sp)
40004c44:	71c060ef          	jal	ra,4000b360 <__muldf3>
40004c48:	00050413          	mv	s0,a0
40004c4c:	02a12823          	sw	a0,48(sp)
40004c50:	00190513          	addi	a0,s2,1
40004c54:	00058493          	mv	s1,a1
40004c58:	02b12a23          	sw	a1,52(sp)
40004c5c:	169070ef          	jal	ra,4000c5c4 <__floatsidf>
40004c60:	00040613          	mv	a2,s0
40004c64:	00048693          	mv	a3,s1
40004c68:	6f8060ef          	jal	ra,4000b360 <__muldf3>
40004c6c:	4000e7b7          	lui	a5,0x4000e
40004c70:	c787a603          	lw	a2,-904(a5) # 4000dc78 <__clz_tab+0x144>
40004c74:	c7c7a683          	lw	a3,-900(a5)
40004c78:	fcc004b7          	lui	s1,0xfcc00
40004c7c:	000a0913          	mv	s2,s4
40004c80:	1a8050ef          	jal	ra,40009e28 <__adddf3>
40004c84:	00050413          	mv	s0,a0
40004c88:	00b484b3          	add	s1,s1,a1
40004c8c:	840ff06f          	j	40003ccc <_dtoa_r+0x4d8>
40004c90:	04012603          	lw	a2,64(sp)
40004c94:	04412683          	lw	a3,68(sp)
40004c98:	c8842503          	lw	a0,-888(s0)
40004c9c:	c8c42583          	lw	a1,-884(s0)
40004ca0:	03012823          	sw	a6,48(sp)
