
build/machineCsr.elf:     file format elf32-littleriscv


Disassembly of section .yolo:

00000000 <trap_entry-0x20>:
  j _start
   0:	0900006f          	j	90 <_start>
  nop
   4:	00000013          	nop
  nop
   8:	00000013          	nop
  nop
   c:	00000013          	nop
  nop
  10:	00000013          	nop
  nop
  14:	00000013          	nop
  nop
  18:	00000013          	nop
  nop
  1c:	00000013          	nop

00000020 <trap_entry>:

.global  trap_entry
trap_entry:
  csrr x28, mcause
  20:	34202e73          	csrr	t3,mcause

  bnez x28, notICmdAlignementException  
  24:	000e1e63          	bnez	t3,40 <notICmdAlignementException>
  li   x30, 0xFFFFFFFC  
  28:	ffc00f13          	li	t5,-4
  csrr x29, mepc
  2c:	34102ef3          	csrr	t4,mepc
  and  x29,x29,x30
  30:	01eefeb3          	and	t4,t4,t5
  addi x29, x29, 4
  34:	004e8e93          	addi	t4,t4,4
  csrw mepc, x29
  38:	341e9073          	csrw	mepc,t4
  j mepcFixed
  3c:	01c0006f          	j	58 <mepcFixed>

00000040 <notICmdAlignementException>:

notICmdAlignementException:
  li   x29, 0x80000000
  40:	80000eb7          	lui	t4,0x80000
  and  x30, x28, x29
  44:	01de7f33          	and	t5,t3,t4
  bnez x30, mepcFixed
  48:	000f1863          	bnez	t5,58 <mepcFixed>
  csrr x29, mepc
  4c:	34102ef3          	csrr	t4,mepc
  addi x29, x29, 4
  50:	004e8e93          	addi	t4,t4,4 # 80000004 <_bss_end+0x3fff397c>
  csrw mepc, x29
  54:	341e9073          	csrw	mepc,t4

00000058 <mepcFixed>:
mepcFixed:


  li   x29, 0x80000003u
  58:	80000eb7          	lui	t4,0x80000
  5c:	003e8e93          	addi	t4,t4,3 # 80000003 <_bss_end+0x3fff397b>
  bne  x29, x28, noSoftwareInterrupt
  60:	01ce9663          	bne	t4,t3,6c <noSoftwareInterrupt>
  li x29, 0x008
  64:	00800e93          	li	t4,8
  csrc mip, x29
  68:	344eb073          	csrc	mip,t4

0000006c <noSoftwareInterrupt>:

noSoftwareInterrupt:

  li   x29, 0x80000007u
  6c:	80000eb7          	lui	t4,0x80000
  70:	007e8e93          	addi	t4,t4,7 # 80000007 <_bss_end+0x3fff397f>
  bne  x29, x28, noTimerInterrupt
  74:	01ce9463          	bne	t4,t3,7c <noTimerInterrupt>
  csrw mie, 0
  78:	30405073          	csrwi	mie,0

0000007c <noTimerInterrupt>:
noTimerInterrupt:

  li   x29, 0x8000000bu
  7c:	80000eb7          	lui	t4,0x80000
  80:	00be8e93          	addi	t4,t4,11 # 8000000b <_bss_end+0x3fff3983>
  bne  x29, x28, noExernalInterrupt
  84:	01ce9463          	bne	t4,t3,8c <noExernalInterrupt>
  csrw mie, 0
  88:	30405073          	csrwi	mie,0

0000008c <noExernalInterrupt>:
noExernalInterrupt:

  mret
  8c:	30200073          	mret

00000090 <_start>:
  
  
  .text
  .globl _start
_start:
  li x28, 1
  90:	00100e13          	li	t3,1
  scall
  94:	00000073          	ecall

  li x28, 2
  98:	00200e13          	li	t3,2
  li t0, 0x008
  9c:	00800293          	li	t0,8
  csrs mstatus,t0
  a0:	3002a073          	csrs	mstatus,t0
  li t0, 0x008
  a4:	00800293          	li	t0,8
  csrw mie,t0
  a8:	30429073          	csrw	mie,t0
  li t0, 0x008
  ac:	00800293          	li	t0,8
  csrs mip,t0
  b0:	3442a073          	csrs	mip,t0
  nop
  b4:	00000013          	nop
  nop
  b8:	00000013          	nop
  nop
  bc:	00000013          	nop
  nop
  c0:	00000013          	nop
  nop
  c4:	00000013          	nop
  nop
  c8:	00000013          	nop
  nop
  cc:	00000013          	nop
  nop
  d0:	00000013          	nop
  nop
  d4:	00000013          	nop
  nop
  d8:	00000013          	nop
  nop
  dc:	00000013          	nop
  nop
  e0:	00000013          	nop


  li x28, 3
  e4:	00300e13          	li	t3,3
  li t0, 0x080
  e8:	08000293          	li	t0,128
  csrw mie,t0
  ec:	30429073          	csrw	mie,t0
  nop
  f0:	00000013          	nop
  nop
  f4:	00000013          	nop
  nop
  f8:	00000013          	nop
  nop
  fc:	00000013          	nop
  nop
 100:	00000013          	nop
  nop
 104:	00000013          	nop
  nop
 108:	00000013          	nop

  li x28, 4
 10c:	00400e13          	li	t3,4
  li t0, 0x800
 110:	000012b7          	lui	t0,0x1
 114:	80028293          	addi	t0,t0,-2048 # 800 <_stack_size>
  csrw mie,t0
 118:	30429073          	csrw	mie,t0
  nop
 11c:	00000013          	nop
  nop
 120:	00000013          	nop
  nop
 124:	00000013          	nop
  nop
 128:	00000013          	nop
  nop
 12c:	00000013          	nop
  nop
 130:	00000013          	nop
  nop
 134:	00000013          	nop

  li x28, 5
 138:	00500e13          	li	t3,5
  li x3, 0xF00FFF40
 13c:	f01001b7          	lui	gp,0xf0100
 140:	f4018193          	addi	gp,gp,-192 # f00fff40 <_bss_end+0xb00f38b8>
  lw x4, 0(x3)
 144:	0001a203          	lw	tp,0(gp)
  lw x5, 4(x3)
 148:	0041a283          	lw	t0,4(gp)
  addi x4, x4, 1023
 14c:	3ff20213          	addi	tp,tp,1023 # 3ff <unalignedPcA+0x263>
  sw x4, 8(x3)
 150:	0041a423          	sw	tp,8(gp)
  sw x5, 12(x3)
 154:	0051a623          	sw	t0,12(gp)
  li x28, 6
 158:	00600e13          	li	t3,6
  li x4, 0x080
 15c:	08000213          	li	tp,128
  csrw mie,x4
 160:	30421073          	csrw	mie,tp
  li x28, 7
 164:	00700e13          	li	t3,7
  wfi
 168:	10500073          	wfi


  li x28, 8
 16c:	00800e13          	li	t3,8
  li x3, 1
 170:	00100193          	li	gp,1
  sw x4,0(x3)
 174:	0041a023          	sw	tp,0(gp)
  li x28, 9
 178:	00900e13          	li	t3,9
  sh x4,0(x3)
 17c:	00419023          	sh	tp,0(gp)
  li x28, 10
 180:	00a00e13          	li	t3,10
  lw x4,0(x3)
 184:	0001a203          	lw	tp,0(gp)
  li x28, 11
 188:	00b00e13          	li	t3,11
  lh x4,0(x3)
 18c:	00019203          	lh	tp,0(gp)
  li x28, 12
 190:	00c00e13          	li	t3,12



  li x28, 13
 194:	00d00e13          	li	t3,13
  lw x1,0(x0)
 198:	00002083          	lw	ra,0(zero) # 0 <trap_entry-0x20>

0000019c <unalignedPcA>:
unalignedPcA:
  j unalignedPcA+2
 19c:	0020006f          	j	19e <unalignedPcA+0x2>
  lw x1,0(x0)
 1a0:	00002083          	lw	ra,0(zero) # 0 <trap_entry-0x20>

  li x28, 14
 1a4:	00e00e13          	li	t3,14
  hret  
 1a8:	20200073          	hret
  li x28, 15
 1ac:	00f00e13          	li	t3,15


  li x1, 0xF00FFF60
 1b0:	f01000b7          	lui	ra,0xf0100
 1b4:	f6008093          	addi	ra,ra,-160 # f00fff60 <_bss_end+0xb00f38d8>
  lw x2, 0(x1)
 1b8:	0000a103          	lw	sp,0(ra)
  li x28, 16
 1bc:	01000e13          	li	t3,16
  sw x2, 0(x1)
 1c0:	0020a023          	sw	sp,0(ra)
  li x28, 17
 1c4:	01100e13          	li	t3,17
  jr  x1
 1c8:	00008067          	ret

Disassembly of section .text:

40000000 <fstat>:
	return 0;
}

int fstat(int fd, struct _stat *buffer) {
	return 0;
}
40000000:	00000513          	li	a0,0
40000004:	00008067          	ret

40000008 <isatty>:

int isatty(int fd) {
	return 0;
}
40000008:	00000513          	li	a0,0
4000000c:	00008067          	ret

40000010 <close>:
40000010:	00000297          	auipc	t0,0x0
40000014:	ff828067          	jr	-8(t0) # 40000008 <isatty>

40000018 <lseek>:

long lseek(int fd, long offset, int origin) {
	return 0;
}
40000018:	00000513          	li	a0,0
4000001c:	00008067          	ret

40000020 <read>:

int read(int fd, void *buffer, unsigned int count) {
	return 0;
}
40000020:	00000513          	li	a0,0
40000024:	00008067          	ret

40000028 <writeChar>:

extern UartCtrl *uartStdio;
void writeChar(char value) {
	TEST_COM_BASE[0] = value;
40000028:	f01007b7          	lui	a5,0xf0100
4000002c:	f0a7a023          	sw	a0,-256(a5) # f00fff00 <_bss_end+0xb00f3878>
40000030:	00008067          	ret

40000034 <writeChars>:
}

void writeChars(char* value) {
40000034:	ff010113          	addi	sp,sp,-16
40000038:	00812423          	sw	s0,8(sp)
4000003c:	00112623          	sw	ra,12(sp)
40000040:	00050413          	mv	s0,a0
	while (*value) {
40000044:	00054503          	lbu	a0,0(a0)
40000048:	00050c63          	beqz	a0,40000060 <writeChars+0x2c>
		writeChar(*(value++));
4000004c:	00140413          	addi	s0,s0,1
40000050:	00000297          	auipc	t0,0x0
40000054:	fd8280e7          	jalr	-40(t0) # 40000028 <writeChar>
	while (*value) {
40000058:	00044503          	lbu	a0,0(s0)
4000005c:	fe0518e3          	bnez	a0,4000004c <writeChars+0x18>
	}
}
40000060:	00c12083          	lw	ra,12(sp)
40000064:	00812403          	lw	s0,8(sp)
40000068:	01010113          	addi	sp,sp,16
4000006c:	00008067          	ret

40000070 <write>:

int write(int fd, const void *buffer, unsigned int count) {
40000070:	ff010113          	addi	sp,sp,-16
40000074:	00912223          	sw	s1,4(sp)
40000078:	01212023          	sw	s2,0(sp)
4000007c:	00112623          	sw	ra,12(sp)
40000080:	00812423          	sw	s0,8(sp)
40000084:	00060913          	mv	s2,a2
40000088:	00c584b3          	add	s1,a1,a2
	for (int idx = 0; idx < count; idx++) {
4000008c:	00060e63          	beqz	a2,400000a8 <write+0x38>
40000090:	00058413          	mv	s0,a1
		writeChar(((char*) buffer)[idx]);
40000094:	00044503          	lbu	a0,0(s0)
40000098:	00140413          	addi	s0,s0,1
4000009c:	00000297          	auipc	t0,0x0
400000a0:	f8c280e7          	jalr	-116(t0) # 40000028 <writeChar>
	for (int idx = 0; idx < count; idx++) {
400000a4:	fe8498e3          	bne	s1,s0,40000094 <write+0x24>
	}
	return count;
}
400000a8:	00c12083          	lw	ra,12(sp)
400000ac:	00090513          	mv	a0,s2
400000b0:	00812403          	lw	s0,8(sp)
400000b4:	00412483          	lw	s1,4(sp)
400000b8:	00012903          	lw	s2,0(sp)
400000bc:	01010113          	addi	sp,sp,16
400000c0:	00008067          	ret

400000c4 <irqCpp>:
	printf("Miaou !!");
	TEST_COM_BASE[8] = 0;
}


void irqCpp(uint32_t irq){
400000c4:	00008067          	ret

400000c8 <main>:
	printf("Miaou !!");
400000c8:	4000b537          	lui	a0,0x4000b
int main() {
400000cc:	ff010113          	addi	sp,sp,-16
	printf("Miaou !!");
400000d0:	61050513          	addi	a0,a0,1552 # 4000b610 <__clzsi2+0x70>
int main() {
400000d4:	00112623          	sw	ra,12(sp)
	printf("Miaou !!");
400000d8:	00000297          	auipc	t0,0x0
400000dc:	064280e7          	jalr	100(t0) # 4000013c <printf>
}
400000e0:	00c12083          	lw	ra,12(sp)
	TEST_COM_BASE[8] = 0;
400000e4:	f01007b7          	lui	a5,0xf0100
}
400000e8:	00000513          	li	a0,0
	TEST_COM_BASE[8] = 0;
400000ec:	f207a023          	sw	zero,-224(a5) # f00fff20 <_bss_end+0xb00f3898>
}
400000f0:	01010113          	addi	sp,sp,16
400000f4:	00008067          	ret

400000f8 <_printf_r>:
400000f8:	fc010113          	addi	sp,sp,-64
400000fc:	02c12423          	sw	a2,40(sp)
40000100:	02d12623          	sw	a3,44(sp)
40000104:	02f12a23          	sw	a5,52(sp)
40000108:	02e12823          	sw	a4,48(sp)
4000010c:	03012c23          	sw	a6,56(sp)
40000110:	03112e23          	sw	a7,60(sp)
40000114:	00058613          	mv	a2,a1
40000118:	00852583          	lw	a1,8(a0)
4000011c:	02810793          	addi	a5,sp,40
40000120:	00078693          	mv	a3,a5
40000124:	00112e23          	sw	ra,28(sp)
40000128:	00f12623          	sw	a5,12(sp)
4000012c:	064000ef          	jal	ra,40000190 <_vfprintf_r>
40000130:	01c12083          	lw	ra,28(sp)
40000134:	04010113          	addi	sp,sp,64
40000138:	00008067          	ret

4000013c <printf>:
4000013c:	4000c337          	lui	t1,0x4000c
40000140:	62c32303          	lw	t1,1580(t1) # 4000c62c <_impure_ptr>
40000144:	fc010113          	addi	sp,sp,-64
40000148:	02c12423          	sw	a2,40(sp)
4000014c:	02d12623          	sw	a3,44(sp)
40000150:	02f12a23          	sw	a5,52(sp)
40000154:	02b12223          	sw	a1,36(sp)
40000158:	02e12823          	sw	a4,48(sp)
4000015c:	03012c23          	sw	a6,56(sp)
40000160:	03112e23          	sw	a7,60(sp)
40000164:	00832583          	lw	a1,8(t1)
40000168:	02410793          	addi	a5,sp,36
4000016c:	00050613          	mv	a2,a0
40000170:	00078693          	mv	a3,a5
40000174:	00030513          	mv	a0,t1
40000178:	00112e23          	sw	ra,28(sp)
4000017c:	00f12623          	sw	a5,12(sp)
40000180:	010000ef          	jal	ra,40000190 <_vfprintf_r>
40000184:	01c12083          	lw	ra,28(sp)
40000188:	04010113          	addi	sp,sp,64
4000018c:	00008067          	ret

40000190 <_vfprintf_r>:
40000190:	eb010113          	addi	sp,sp,-336
40000194:	14112623          	sw	ra,332(sp)
40000198:	14812423          	sw	s0,328(sp)
4000019c:	13412c23          	sw	s4,312(sp)
400001a0:	13512a23          	sw	s5,308(sp)
400001a4:	00058a13          	mv	s4,a1
400001a8:	00060413          	mv	s0,a2
400001ac:	02d12023          	sw	a3,32(sp)
400001b0:	14912223          	sw	s1,324(sp)
400001b4:	15212023          	sw	s2,320(sp)
400001b8:	13312e23          	sw	s3,316(sp)
400001bc:	13612823          	sw	s6,304(sp)
400001c0:	13712623          	sw	s7,300(sp)
400001c4:	13812423          	sw	s8,296(sp)
400001c8:	13912223          	sw	s9,292(sp)
400001cc:	13a12023          	sw	s10,288(sp)
400001d0:	11b12e23          	sw	s11,284(sp)
400001d4:	00050a93          	mv	s5,a0
400001d8:	1bc040ef          	jal	ra,40004394 <_localeconv_r>
400001dc:	00052783          	lw	a5,0(a0)
400001e0:	00078513          	mv	a0,a5
400001e4:	04f12423          	sw	a5,72(sp)
400001e8:	12c060ef          	jal	ra,40006314 <strlen>
400001ec:	04a12023          	sw	a0,64(sp)
400001f0:	000a8663          	beqz	s5,400001fc <_vfprintf_r+0x6c>
400001f4:	038aa783          	lw	a5,56(s5)
400001f8:	220784e3          	beqz	a5,40000c20 <_vfprintf_r+0xa90>
400001fc:	00ca1703          	lh	a4,12(s4)
40000200:	01071793          	slli	a5,a4,0x10
40000204:	0107d793          	srli	a5,a5,0x10
40000208:	01279693          	slli	a3,a5,0x12
4000020c:	0206c663          	bltz	a3,40000238 <_vfprintf_r+0xa8>
40000210:	064a2683          	lw	a3,100(s4)
40000214:	000027b7          	lui	a5,0x2
40000218:	00f767b3          	or	a5,a4,a5
4000021c:	ffffe737          	lui	a4,0xffffe
40000220:	fff70713          	addi	a4,a4,-1 # ffffdfff <_bss_end+0xbfff1977>
40000224:	00e6f733          	and	a4,a3,a4
40000228:	00fa1623          	sh	a5,12(s4)
4000022c:	01079793          	slli	a5,a5,0x10
40000230:	06ea2223          	sw	a4,100(s4)
40000234:	0107d793          	srli	a5,a5,0x10
40000238:	0087f713          	andi	a4,a5,8
4000023c:	7a070c63          	beqz	a4,400009f4 <_vfprintf_r+0x864>
40000240:	010a2703          	lw	a4,16(s4)
40000244:	7a070863          	beqz	a4,400009f4 <_vfprintf_r+0x864>
40000248:	01a7f793          	andi	a5,a5,26
4000024c:	00a00713          	li	a4,10
40000250:	7ce78263          	beq	a5,a4,40000a14 <_vfprintf_r+0x884>
40000254:	4000c7b7          	lui	a5,0x4000c
40000258:	c387a703          	lw	a4,-968(a5) # 4000bc38 <__clz_tab+0x104>
4000025c:	c3c7a783          	lw	a5,-964(a5)
40000260:	0d010c13          	addi	s8,sp,208
40000264:	04e12823          	sw	a4,80(sp)
40000268:	00078693          	mv	a3,a5
4000026c:	04f12a23          	sw	a5,84(sp)
40000270:	4000b7b7          	lui	a5,0x4000b
40000274:	61c78793          	addi	a5,a5,1564 # 4000b61c <__clzsi2+0x7c>
40000278:	09812e23          	sw	s8,156(sp)
4000027c:	0a012223          	sw	zero,164(sp)
40000280:	0a012023          	sw	zero,160(sp)
40000284:	02012a23          	sw	zero,52(sp)
40000288:	02012c23          	sw	zero,56(sp)
4000028c:	02012e23          	sw	zero,60(sp)
40000290:	000c0313          	mv	t1,s8
40000294:	04012223          	sw	zero,68(sp)
40000298:	04012623          	sw	zero,76(sp)
4000029c:	00012c23          	sw	zero,24(sp)
400002a0:	02f12223          	sw	a5,36(sp)
400002a4:	04e12c23          	sw	a4,88(sp)
400002a8:	04d12e23          	sw	a3,92(sp)
400002ac:	00044783          	lbu	a5,0(s0)
400002b0:	4e078e63          	beqz	a5,400007ac <_vfprintf_r+0x61c>
400002b4:	02500713          	li	a4,37
400002b8:	00040493          	mv	s1,s0
400002bc:	00e79663          	bne	a5,a4,400002c8 <_vfprintf_r+0x138>
400002c0:	0540006f          	j	40000314 <_vfprintf_r+0x184>
400002c4:	00e78863          	beq	a5,a4,400002d4 <_vfprintf_r+0x144>
400002c8:	00148493          	addi	s1,s1,1
400002cc:	0004c783          	lbu	a5,0(s1)
400002d0:	fe079ae3          	bnez	a5,400002c4 <_vfprintf_r+0x134>
400002d4:	40848933          	sub	s2,s1,s0
400002d8:	02090e63          	beqz	s2,40000314 <_vfprintf_r+0x184>
400002dc:	0a412703          	lw	a4,164(sp)
400002e0:	0a012783          	lw	a5,160(sp)
400002e4:	00832023          	sw	s0,0(t1)
400002e8:	01270733          	add	a4,a4,s2
400002ec:	00178793          	addi	a5,a5,1
400002f0:	01232223          	sw	s2,4(t1)
400002f4:	0ae12223          	sw	a4,164(sp)
400002f8:	0af12023          	sw	a5,160(sp)
400002fc:	00700713          	li	a4,7
40000300:	00830313          	addi	t1,t1,8
40000304:	06f744e3          	blt	a4,a5,40000b6c <_vfprintf_r+0x9dc>
40000308:	01812783          	lw	a5,24(sp)
4000030c:	012787b3          	add	a5,a5,s2
40000310:	00f12c23          	sw	a5,24(sp)
40000314:	0004c783          	lbu	a5,0(s1)
40000318:	52078663          	beqz	a5,40000844 <_vfprintf_r+0x6b4>
4000031c:	fff00c93          	li	s9,-1
40000320:	00148413          	addi	s0,s1,1
40000324:	06010fa3          	sb	zero,127(sp)
40000328:	00000613          	li	a2,0
4000032c:	00000593          	li	a1,0
40000330:	00000493          	li	s1,0
40000334:	00000d93          	li	s11,0
40000338:	05800713          	li	a4,88
4000033c:	00900693          	li	a3,9
40000340:	02a00893          	li	a7,42
40000344:	000c8f13          	mv	t5,s9
40000348:	00100513          	li	a0,1
4000034c:	02000e93          	li	t4,32
40000350:	02b00813          	li	a6,43
40000354:	00044983          	lbu	s3,0(s0)
40000358:	00140413          	addi	s0,s0,1
4000035c:	fe098793          	addi	a5,s3,-32
40000360:	56f768e3          	bltu	a4,a5,400010d0 <_vfprintf_r+0xf40>
40000364:	02412e03          	lw	t3,36(sp)
40000368:	00279793          	slli	a5,a5,0x2
4000036c:	01c787b3          	add	a5,a5,t3
40000370:	0007a783          	lw	a5,0(a5)
40000374:	00078067          	jr	a5
40000378:	010ded93          	ori	s11,s11,16
4000037c:	fd9ff06f          	j	40000354 <_vfprintf_r+0x1c4>
40000380:	010ded93          	ori	s11,s11,16
40000384:	010df793          	andi	a5,s11,16
40000388:	00078463          	beqz	a5,40000390 <_vfprintf_r+0x200>
4000038c:	0980106f          	j	40001424 <_vfprintf_r+0x1294>
40000390:	040df793          	andi	a5,s11,64
40000394:	02012683          	lw	a3,32(sp)
40000398:	520792e3          	bnez	a5,400010bc <_vfprintf_r+0xf2c>
4000039c:	0006a783          	lw	a5,0(a3)
400003a0:	00468693          	addi	a3,a3,4
400003a4:	00000713          	li	a4,0
400003a8:	02d12023          	sw	a3,32(sp)
400003ac:	06010fa3          	sb	zero,127(sp)
400003b0:	00000613          	li	a2,0
400003b4:	fff00693          	li	a3,-1
400003b8:	08dc8e63          	beq	s9,a3,40000454 <_vfprintf_r+0x2c4>
400003bc:	f7fdf693          	andi	a3,s11,-129
400003c0:	00d12823          	sw	a3,16(sp)
400003c4:	08079c63          	bnez	a5,4000045c <_vfprintf_r+0x2cc>
400003c8:	780c9263          	bnez	s9,40000b4c <_vfprintf_r+0x9bc>
400003cc:	120710e3          	bnez	a4,40000cec <_vfprintf_r+0xb5c>
400003d0:	001df793          	andi	a5,s11,1
400003d4:	00f12e23          	sw	a5,28(sp)
400003d8:	000c0913          	mv	s2,s8
400003dc:	0a078e63          	beqz	a5,40000498 <_vfprintf_r+0x308>
400003e0:	03000793          	li	a5,48
400003e4:	0cf107a3          	sb	a5,207(sp)
400003e8:	0cf10913          	addi	s2,sp,207
400003ec:	0ac0006f          	j	40000498 <_vfprintf_r+0x308>
400003f0:	010ded93          	ori	s11,s11,16
400003f4:	010df793          	andi	a5,s11,16
400003f8:	04079263          	bnez	a5,4000043c <_vfprintf_r+0x2ac>
400003fc:	040df793          	andi	a5,s11,64
40000400:	02012683          	lw	a3,32(sp)
40000404:	02078e63          	beqz	a5,40000440 <_vfprintf_r+0x2b0>
40000408:	0006d783          	lhu	a5,0(a3)
4000040c:	00468693          	addi	a3,a3,4
40000410:	00100713          	li	a4,1
40000414:	02d12023          	sw	a3,32(sp)
40000418:	f95ff06f          	j	400003ac <_vfprintf_r+0x21c>
4000041c:	02012783          	lw	a5,32(sp)
40000420:	0007a483          	lw	s1,0(a5)
40000424:	00478793          	addi	a5,a5,4
40000428:	02f12023          	sw	a5,32(sp)
4000042c:	f204d4e3          	bgez	s1,40000354 <_vfprintf_r+0x1c4>
40000430:	409004b3          	neg	s1,s1
40000434:	004ded93          	ori	s11,s11,4
40000438:	f1dff06f          	j	40000354 <_vfprintf_r+0x1c4>
4000043c:	02012683          	lw	a3,32(sp)
40000440:	0006a783          	lw	a5,0(a3)
40000444:	00468693          	addi	a3,a3,4
40000448:	00100713          	li	a4,1
4000044c:	02d12023          	sw	a3,32(sp)
40000450:	f5dff06f          	j	400003ac <_vfprintf_r+0x21c>
40000454:	6e078e63          	beqz	a5,40000b50 <_vfprintf_r+0x9c0>
40000458:	01b12823          	sw	s11,16(sp)
4000045c:	00100693          	li	a3,1
40000460:	48d704e3          	beq	a4,a3,400010e8 <_vfprintf_r+0xf58>
40000464:	00200693          	li	a3,2
40000468:	76d71463          	bne	a4,a3,40000bd0 <_vfprintf_r+0xa40>
4000046c:	04412683          	lw	a3,68(sp)
40000470:	000c0913          	mv	s2,s8
40000474:	00f7f713          	andi	a4,a5,15
40000478:	00e68733          	add	a4,a3,a4
4000047c:	00074703          	lbu	a4,0(a4)
40000480:	fff90913          	addi	s2,s2,-1
40000484:	0047d793          	srli	a5,a5,0x4
40000488:	00e90023          	sb	a4,0(s2)
4000048c:	fe0794e3          	bnez	a5,40000474 <_vfprintf_r+0x2e4>
40000490:	412c07b3          	sub	a5,s8,s2
40000494:	00f12e23          	sw	a5,28(sp)
40000498:	01c12783          	lw	a5,28(sp)
4000049c:	000c8b93          	mv	s7,s9
400004a0:	00fcd463          	ble	a5,s9,400004a8 <_vfprintf_r+0x318>
400004a4:	00078b93          	mv	s7,a5
400004a8:	02012823          	sw	zero,48(sp)
400004ac:	30061c63          	bnez	a2,400007c4 <_vfprintf_r+0x634>
400004b0:	01012783          	lw	a5,16(sp)
400004b4:	0027f793          	andi	a5,a5,2
400004b8:	02f12423          	sw	a5,40(sp)
400004bc:	00078463          	beqz	a5,400004c4 <_vfprintf_r+0x334>
400004c0:	002b8b93          	addi	s7,s7,2
400004c4:	01012783          	lw	a5,16(sp)
400004c8:	0847f793          	andi	a5,a5,132
400004cc:	02f12623          	sw	a5,44(sp)
400004d0:	2e079e63          	bnez	a5,400007cc <_vfprintf_r+0x63c>
400004d4:	41748b33          	sub	s6,s1,s7
400004d8:	2f605a63          	blez	s6,400007cc <_vfprintf_r+0x63c>
400004dc:	4000b6b7          	lui	a3,0x4000b
400004e0:	01000813          	li	a6,16
400004e4:	0a412783          	lw	a5,164(sp)
400004e8:	0a012703          	lw	a4,160(sp)
400004ec:	78068d13          	addi	s10,a3,1920 # 4000b780 <blanks.4138>
400004f0:	07685263          	ble	s6,a6,40000554 <_vfprintf_r+0x3c4>
400004f4:	00700d93          	li	s11,7
400004f8:	00c0006f          	j	40000504 <_vfprintf_r+0x374>
400004fc:	ff0b0b13          	addi	s6,s6,-16
40000500:	05685a63          	ble	s6,a6,40000554 <_vfprintf_r+0x3c4>
40000504:	01078793          	addi	a5,a5,16
40000508:	00170713          	addi	a4,a4,1
4000050c:	01a32023          	sw	s10,0(t1)
40000510:	01032223          	sw	a6,4(t1)
40000514:	0af12223          	sw	a5,164(sp)
40000518:	0ae12023          	sw	a4,160(sp)
4000051c:	00830313          	addi	t1,t1,8
40000520:	fceddee3          	ble	a4,s11,400004fc <_vfprintf_r+0x36c>
40000524:	09c10613          	addi	a2,sp,156
40000528:	000a0593          	mv	a1,s4
4000052c:	000a8513          	mv	a0,s5
40000530:	01012a23          	sw	a6,20(sp)
40000534:	769050ef          	jal	ra,4000649c <__sprint_r>
40000538:	32051263          	bnez	a0,4000085c <_vfprintf_r+0x6cc>
4000053c:	01412803          	lw	a6,20(sp)
40000540:	ff0b0b13          	addi	s6,s6,-16
40000544:	0a412783          	lw	a5,164(sp)
40000548:	0a012703          	lw	a4,160(sp)
4000054c:	000c0313          	mv	t1,s8
40000550:	fb684ae3          	blt	a6,s6,40000504 <_vfprintf_r+0x374>
40000554:	00fb07b3          	add	a5,s6,a5
40000558:	00170713          	addi	a4,a4,1
4000055c:	01a32023          	sw	s10,0(t1)
40000560:	01632223          	sw	s6,4(t1)
40000564:	0af12223          	sw	a5,164(sp)
40000568:	0ae12023          	sw	a4,160(sp)
4000056c:	00700693          	li	a3,7
40000570:	3ae6c2e3          	blt	a3,a4,40001114 <_vfprintf_r+0xf84>
40000574:	07f14603          	lbu	a2,127(sp)
40000578:	00830313          	addi	t1,t1,8
4000057c:	02060a63          	beqz	a2,400005b0 <_vfprintf_r+0x420>
40000580:	0a012703          	lw	a4,160(sp)
40000584:	07f10693          	addi	a3,sp,127
40000588:	00d32023          	sw	a3,0(t1)
4000058c:	00178793          	addi	a5,a5,1
40000590:	00100693          	li	a3,1
40000594:	00170713          	addi	a4,a4,1
40000598:	00d32223          	sw	a3,4(t1)
4000059c:	0af12223          	sw	a5,164(sp)
400005a0:	0ae12023          	sw	a4,160(sp)
400005a4:	00700693          	li	a3,7
400005a8:	00830313          	addi	t1,t1,8
400005ac:	5ce6ce63          	blt	a3,a4,40000b88 <_vfprintf_r+0x9f8>
400005b0:	02812703          	lw	a4,40(sp)
400005b4:	02070a63          	beqz	a4,400005e8 <_vfprintf_r+0x458>
400005b8:	0a012703          	lw	a4,160(sp)
400005bc:	08010693          	addi	a3,sp,128
400005c0:	00d32023          	sw	a3,0(t1)
400005c4:	00278793          	addi	a5,a5,2
400005c8:	00200693          	li	a3,2
400005cc:	00170713          	addi	a4,a4,1
400005d0:	00d32223          	sw	a3,4(t1)
400005d4:	0af12223          	sw	a5,164(sp)
400005d8:	0ae12023          	sw	a4,160(sp)
400005dc:	00700693          	li	a3,7
400005e0:	00830313          	addi	t1,t1,8
400005e4:	5ce6c263          	blt	a3,a4,40000ba8 <_vfprintf_r+0xa18>
400005e8:	02c12683          	lw	a3,44(sp)
400005ec:	08000713          	li	a4,128
400005f0:	34e68263          	beq	a3,a4,40000934 <_vfprintf_r+0x7a4>
400005f4:	01c12703          	lw	a4,28(sp)
400005f8:	40ec8cb3          	sub	s9,s9,a4
400005fc:	0b905863          	blez	s9,400006ac <_vfprintf_r+0x51c>
40000600:	4000b6b7          	lui	a3,0x4000b
40000604:	01000d93          	li	s11,16
40000608:	0a012703          	lw	a4,160(sp)
4000060c:	79068b13          	addi	s6,a3,1936 # 4000b790 <zeroes.4139>
40000610:	059dde63          	ble	s9,s11,4000066c <_vfprintf_r+0x4dc>
40000614:	00700d13          	li	s10,7
40000618:	00c0006f          	j	40000624 <_vfprintf_r+0x494>
4000061c:	ff0c8c93          	addi	s9,s9,-16
40000620:	059dd663          	ble	s9,s11,4000066c <_vfprintf_r+0x4dc>
40000624:	01078793          	addi	a5,a5,16
40000628:	00170713          	addi	a4,a4,1
4000062c:	01632023          	sw	s6,0(t1)
40000630:	01b32223          	sw	s11,4(t1)
40000634:	0af12223          	sw	a5,164(sp)
40000638:	0ae12023          	sw	a4,160(sp)
4000063c:	00830313          	addi	t1,t1,8
40000640:	fced5ee3          	ble	a4,s10,4000061c <_vfprintf_r+0x48c>
40000644:	09c10613          	addi	a2,sp,156
40000648:	000a0593          	mv	a1,s4
4000064c:	000a8513          	mv	a0,s5
40000650:	64d050ef          	jal	ra,4000649c <__sprint_r>
40000654:	20051463          	bnez	a0,4000085c <_vfprintf_r+0x6cc>
40000658:	ff0c8c93          	addi	s9,s9,-16
4000065c:	0a412783          	lw	a5,164(sp)
40000660:	0a012703          	lw	a4,160(sp)
40000664:	000c0313          	mv	t1,s8
40000668:	fb9dcee3          	blt	s11,s9,40000624 <_vfprintf_r+0x494>
4000066c:	019787b3          	add	a5,a5,s9
40000670:	00170713          	addi	a4,a4,1
40000674:	01632023          	sw	s6,0(t1)
40000678:	01932223          	sw	s9,4(t1)
4000067c:	0af12223          	sw	a5,164(sp)
40000680:	0ae12023          	sw	a4,160(sp)
40000684:	00700693          	li	a3,7
40000688:	00830313          	addi	t1,t1,8
4000068c:	02e6d063          	ble	a4,a3,400006ac <_vfprintf_r+0x51c>
40000690:	09c10613          	addi	a2,sp,156
40000694:	000a0593          	mv	a1,s4
40000698:	000a8513          	mv	a0,s5
4000069c:	601050ef          	jal	ra,4000649c <__sprint_r>
400006a0:	1a051e63          	bnez	a0,4000085c <_vfprintf_r+0x6cc>
400006a4:	0a412783          	lw	a5,164(sp)
400006a8:	000c0313          	mv	t1,s8
400006ac:	01012703          	lw	a4,16(sp)
400006b0:	10077713          	andi	a4,a4,256
400006b4:	1e071a63          	bnez	a4,400008a8 <_vfprintf_r+0x718>
400006b8:	01c12683          	lw	a3,28(sp)
400006bc:	0a012703          	lw	a4,160(sp)
400006c0:	01232023          	sw	s2,0(t1)
400006c4:	00d787b3          	add	a5,a5,a3
400006c8:	00170713          	addi	a4,a4,1
400006cc:	00d32223          	sw	a3,4(t1)
400006d0:	0af12223          	sw	a5,164(sp)
400006d4:	0ae12023          	sw	a4,160(sp)
400006d8:	00700693          	li	a3,7
400006dc:	14e6c463          	blt	a3,a4,40000824 <_vfprintf_r+0x694>
400006e0:	00830313          	addi	t1,t1,8
400006e4:	01012703          	lw	a4,16(sp)
400006e8:	00477b13          	andi	s6,a4,4
400006ec:	080b0c63          	beqz	s6,40000784 <_vfprintf_r+0x5f4>
400006f0:	41748933          	sub	s2,s1,s7
400006f4:	09205863          	blez	s2,40000784 <_vfprintf_r+0x5f4>
400006f8:	4000b6b7          	lui	a3,0x4000b
400006fc:	01000993          	li	s3,16
40000700:	0a012703          	lw	a4,160(sp)
40000704:	78068d13          	addi	s10,a3,1920 # 4000b780 <blanks.4138>
40000708:	0529de63          	ble	s2,s3,40000764 <_vfprintf_r+0x5d4>
4000070c:	00700b13          	li	s6,7
40000710:	00c0006f          	j	4000071c <_vfprintf_r+0x58c>
40000714:	ff090913          	addi	s2,s2,-16
40000718:	0529d663          	ble	s2,s3,40000764 <_vfprintf_r+0x5d4>
4000071c:	01078793          	addi	a5,a5,16
40000720:	00170713          	addi	a4,a4,1
40000724:	01a32023          	sw	s10,0(t1)
40000728:	01332223          	sw	s3,4(t1)
4000072c:	0af12223          	sw	a5,164(sp)
40000730:	0ae12023          	sw	a4,160(sp)
40000734:	00830313          	addi	t1,t1,8
40000738:	fceb5ee3          	ble	a4,s6,40000714 <_vfprintf_r+0x584>
4000073c:	09c10613          	addi	a2,sp,156
40000740:	000a0593          	mv	a1,s4
40000744:	000a8513          	mv	a0,s5
40000748:	555050ef          	jal	ra,4000649c <__sprint_r>
4000074c:	10051863          	bnez	a0,4000085c <_vfprintf_r+0x6cc>
40000750:	ff090913          	addi	s2,s2,-16
40000754:	0a412783          	lw	a5,164(sp)
40000758:	0a012703          	lw	a4,160(sp)
4000075c:	000c0313          	mv	t1,s8
40000760:	fb29cee3          	blt	s3,s2,4000071c <_vfprintf_r+0x58c>
40000764:	012787b3          	add	a5,a5,s2
40000768:	00170713          	addi	a4,a4,1
4000076c:	01a32023          	sw	s10,0(t1)
40000770:	01232223          	sw	s2,4(t1)
40000774:	0af12223          	sw	a5,164(sp)
40000778:	0ae12023          	sw	a4,160(sp)
4000077c:	00700693          	li	a3,7
40000780:	12e6c0e3          	blt	a3,a4,400010a0 <_vfprintf_r+0xf10>
40000784:	0174d463          	ble	s7,s1,4000078c <_vfprintf_r+0x5fc>
40000788:	000b8493          	mv	s1,s7
4000078c:	01812703          	lw	a4,24(sp)
40000790:	00970733          	add	a4,a4,s1
40000794:	00e12c23          	sw	a4,24(sp)
40000798:	38079e63          	bnez	a5,40000b34 <_vfprintf_r+0x9a4>
4000079c:	00044783          	lbu	a5,0(s0)
400007a0:	0a012023          	sw	zero,160(sp)
400007a4:	000c0313          	mv	t1,s8
400007a8:	b00796e3          	bnez	a5,400002b4 <_vfprintf_r+0x124>
400007ac:	00040493          	mv	s1,s0
400007b0:	b65ff06f          	j	40000314 <_vfprintf_r+0x184>
400007b4:	02d00793          	li	a5,45
400007b8:	06f10fa3          	sb	a5,127(sp)
400007bc:	02d00613          	li	a2,45
400007c0:	00000c93          	li	s9,0
400007c4:	001b8b93          	addi	s7,s7,1
400007c8:	ce9ff06f          	j	400004b0 <_vfprintf_r+0x320>
400007cc:	0a412783          	lw	a5,164(sp)
400007d0:	dadff06f          	j	4000057c <_vfprintf_r+0x3ec>
400007d4:	012787b3          	add	a5,a5,s2
400007d8:	00198993          	addi	s3,s3,1
400007dc:	016ca023          	sw	s6,0(s9)
400007e0:	012ca223          	sw	s2,4(s9)
400007e4:	0af12223          	sw	a5,164(sp)
400007e8:	0b312023          	sw	s3,160(sp)
400007ec:	00700713          	li	a4,7
400007f0:	53374863          	blt	a4,s3,40000d20 <_vfprintf_r+0xb90>
400007f4:	008c8c93          	addi	s9,s9,8
400007f8:	04c12683          	lw	a3,76(sp)
400007fc:	08c10713          	addi	a4,sp,140
40000800:	00198993          	addi	s3,s3,1
40000804:	00f687b3          	add	a5,a3,a5
40000808:	00eca023          	sw	a4,0(s9)
4000080c:	00dca223          	sw	a3,4(s9)
40000810:	0af12223          	sw	a5,164(sp)
40000814:	0b312023          	sw	s3,160(sp)
40000818:	00700713          	li	a4,7
4000081c:	008c8313          	addi	t1,s9,8
40000820:	ed3752e3          	ble	s3,a4,400006e4 <_vfprintf_r+0x554>
40000824:	09c10613          	addi	a2,sp,156
40000828:	000a0593          	mv	a1,s4
4000082c:	000a8513          	mv	a0,s5
40000830:	46d050ef          	jal	ra,4000649c <__sprint_r>
40000834:	02051463          	bnez	a0,4000085c <_vfprintf_r+0x6cc>
40000838:	0a412783          	lw	a5,164(sp)
4000083c:	000c0313          	mv	t1,s8
40000840:	ea5ff06f          	j	400006e4 <_vfprintf_r+0x554>
40000844:	0a412783          	lw	a5,164(sp)
40000848:	00078a63          	beqz	a5,4000085c <_vfprintf_r+0x6cc>
4000084c:	09c10613          	addi	a2,sp,156
40000850:	000a0593          	mv	a1,s4
40000854:	000a8513          	mv	a0,s5
40000858:	445050ef          	jal	ra,4000649c <__sprint_r>
4000085c:	00ca5783          	lhu	a5,12(s4)
40000860:	0407f793          	andi	a5,a5,64
40000864:	680794e3          	bnez	a5,400016ec <_vfprintf_r+0x155c>
40000868:	14c12083          	lw	ra,332(sp)
4000086c:	01812503          	lw	a0,24(sp)
40000870:	14812403          	lw	s0,328(sp)
40000874:	14412483          	lw	s1,324(sp)
40000878:	14012903          	lw	s2,320(sp)
4000087c:	13c12983          	lw	s3,316(sp)
40000880:	13812a03          	lw	s4,312(sp)
40000884:	13412a83          	lw	s5,308(sp)
40000888:	13012b03          	lw	s6,304(sp)
4000088c:	12c12b83          	lw	s7,300(sp)
40000890:	12812c03          	lw	s8,296(sp)
40000894:	12412c83          	lw	s9,292(sp)
40000898:	12012d03          	lw	s10,288(sp)
4000089c:	11c12d83          	lw	s11,284(sp)
400008a0:	15010113          	addi	sp,sp,336
400008a4:	00008067          	ret
400008a8:	06500713          	li	a4,101
400008ac:	19375663          	ble	s3,a4,40000a38 <_vfprintf_r+0x8a8>
400008b0:	03812683          	lw	a3,56(sp)
400008b4:	03c12703          	lw	a4,60(sp)
400008b8:	00000613          	li	a2,0
400008bc:	00068513          	mv	a0,a3
400008c0:	00070593          	mv	a1,a4
400008c4:	00000693          	li	a3,0
400008c8:	00612e23          	sw	t1,28(sp)
400008cc:	00f12a23          	sw	a5,20(sp)
400008d0:	354090ef          	jal	ra,40009c24 <__eqdf2>
400008d4:	01412783          	lw	a5,20(sp)
400008d8:	01c12303          	lw	t1,28(sp)
400008dc:	34051863          	bnez	a0,40000c2c <_vfprintf_r+0xa9c>
400008e0:	0a012703          	lw	a4,160(sp)
400008e4:	4000b6b7          	lui	a3,0x4000b
400008e8:	7e068693          	addi	a3,a3,2016 # 4000b7e0 <zeroes.4139+0x50>
400008ec:	00178793          	addi	a5,a5,1
400008f0:	00d32023          	sw	a3,0(t1)
400008f4:	00170713          	addi	a4,a4,1
400008f8:	00100693          	li	a3,1
400008fc:	00d32223          	sw	a3,4(t1)
40000900:	0af12223          	sw	a5,164(sp)
40000904:	0ae12023          	sw	a4,160(sp)
40000908:	00700793          	li	a5,7
4000090c:	00830313          	addi	t1,t1,8
40000910:	52e7c4e3          	blt	a5,a4,40001638 <_vfprintf_r+0x14a8>
40000914:	08412783          	lw	a5,132(sp)
40000918:	03412703          	lw	a4,52(sp)
4000091c:	00e7cee3          	blt	a5,a4,40001138 <_vfprintf_r+0xfa8>
40000920:	01012783          	lw	a5,16(sp)
40000924:	0017f793          	andi	a5,a5,1
40000928:	000798e3          	bnez	a5,40001138 <_vfprintf_r+0xfa8>
4000092c:	0a412783          	lw	a5,164(sp)
40000930:	db5ff06f          	j	400006e4 <_vfprintf_r+0x554>
40000934:	41748d33          	sub	s10,s1,s7
40000938:	cba05ee3          	blez	s10,400005f4 <_vfprintf_r+0x464>
4000093c:	4000b6b7          	lui	a3,0x4000b
40000940:	01000d93          	li	s11,16
40000944:	0a012703          	lw	a4,160(sp)
40000948:	79068b13          	addi	s6,a3,1936 # 4000b790 <zeroes.4139>
4000094c:	07add263          	ble	s10,s11,400009b0 <_vfprintf_r+0x820>
40000950:	00700813          	li	a6,7
40000954:	00c0006f          	j	40000960 <_vfprintf_r+0x7d0>
40000958:	ff0d0d13          	addi	s10,s10,-16
4000095c:	05adda63          	ble	s10,s11,400009b0 <_vfprintf_r+0x820>
40000960:	01078793          	addi	a5,a5,16
40000964:	00170713          	addi	a4,a4,1
40000968:	01632023          	sw	s6,0(t1)
4000096c:	01b32223          	sw	s11,4(t1)
40000970:	0af12223          	sw	a5,164(sp)
40000974:	0ae12023          	sw	a4,160(sp)
40000978:	00830313          	addi	t1,t1,8
4000097c:	fce85ee3          	ble	a4,a6,40000958 <_vfprintf_r+0x7c8>
40000980:	09c10613          	addi	a2,sp,156
40000984:	000a0593          	mv	a1,s4
40000988:	000a8513          	mv	a0,s5
4000098c:	01012a23          	sw	a6,20(sp)
40000990:	30d050ef          	jal	ra,4000649c <__sprint_r>
40000994:	ec0514e3          	bnez	a0,4000085c <_vfprintf_r+0x6cc>
40000998:	ff0d0d13          	addi	s10,s10,-16
4000099c:	0a412783          	lw	a5,164(sp)
400009a0:	0a012703          	lw	a4,160(sp)
400009a4:	000c0313          	mv	t1,s8
400009a8:	01412803          	lw	a6,20(sp)
400009ac:	fbadcae3          	blt	s11,s10,40000960 <_vfprintf_r+0x7d0>
400009b0:	01a787b3          	add	a5,a5,s10
400009b4:	00170713          	addi	a4,a4,1
400009b8:	01632023          	sw	s6,0(t1)
400009bc:	01a32223          	sw	s10,4(t1)
400009c0:	0af12223          	sw	a5,164(sp)
400009c4:	0ae12023          	sw	a4,160(sp)
400009c8:	00700693          	li	a3,7
400009cc:	00830313          	addi	t1,t1,8
400009d0:	c2e6d2e3          	ble	a4,a3,400005f4 <_vfprintf_r+0x464>
400009d4:	09c10613          	addi	a2,sp,156
400009d8:	000a0593          	mv	a1,s4
400009dc:	000a8513          	mv	a0,s5
400009e0:	2bd050ef          	jal	ra,4000649c <__sprint_r>
400009e4:	e6051ce3          	bnez	a0,4000085c <_vfprintf_r+0x6cc>
400009e8:	0a412783          	lw	a5,164(sp)
400009ec:	000c0313          	mv	t1,s8
400009f0:	c05ff06f          	j	400005f4 <_vfprintf_r+0x464>
400009f4:	000a0593          	mv	a1,s4
400009f8:	000a8513          	mv	a0,s5
400009fc:	404010ef          	jal	ra,40001e00 <__swsetup_r>
40000a00:	4e0516e3          	bnez	a0,400016ec <_vfprintf_r+0x155c>
40000a04:	00ca5783          	lhu	a5,12(s4)
40000a08:	00a00713          	li	a4,10
40000a0c:	01a7f793          	andi	a5,a5,26
40000a10:	84e792e3          	bne	a5,a4,40000254 <_vfprintf_r+0xc4>
40000a14:	00ea1783          	lh	a5,14(s4)
40000a18:	8207cee3          	bltz	a5,40000254 <_vfprintf_r+0xc4>
40000a1c:	02012683          	lw	a3,32(sp)
40000a20:	00040613          	mv	a2,s0
40000a24:	000a0593          	mv	a1,s4
40000a28:	000a8513          	mv	a0,s5
40000a2c:	314010ef          	jal	ra,40001d40 <__sbprintf>
40000a30:	00a12c23          	sw	a0,24(sp)
40000a34:	e35ff06f          	j	40000868 <_vfprintf_r+0x6d8>
40000a38:	03412683          	lw	a3,52(sp)
40000a3c:	00100713          	li	a4,1
40000a40:	00178793          	addi	a5,a5,1
40000a44:	18d754e3          	ble	a3,a4,400013cc <_vfprintf_r+0x123c>
40000a48:	0a012983          	lw	s3,160(sp)
40000a4c:	00100713          	li	a4,1
40000a50:	00e32223          	sw	a4,4(t1)
40000a54:	00198993          	addi	s3,s3,1
40000a58:	01232023          	sw	s2,0(t1)
40000a5c:	0af12223          	sw	a5,164(sp)
40000a60:	0b312023          	sw	s3,160(sp)
40000a64:	00700713          	li	a4,7
40000a68:	00830313          	addi	t1,t1,8
40000a6c:	19374ae3          	blt	a4,s3,40001400 <_vfprintf_r+0x1270>
40000a70:	04012703          	lw	a4,64(sp)
40000a74:	04812683          	lw	a3,72(sp)
40000a78:	00198993          	addi	s3,s3,1
40000a7c:	00f707b3          	add	a5,a4,a5
40000a80:	00e32223          	sw	a4,4(t1)
40000a84:	00d32023          	sw	a3,0(t1)
40000a88:	0af12223          	sw	a5,164(sp)
40000a8c:	0b312023          	sw	s3,160(sp)
40000a90:	00700713          	li	a4,7
40000a94:	00830c93          	addi	s9,t1,8
40000a98:	19374ae3          	blt	a4,s3,4000142c <_vfprintf_r+0x129c>
40000a9c:	03c12703          	lw	a4,60(sp)
40000aa0:	03812683          	lw	a3,56(sp)
40000aa4:	00000613          	li	a2,0
40000aa8:	00070593          	mv	a1,a4
40000aac:	00068513          	mv	a0,a3
40000ab0:	00000693          	li	a3,0
40000ab4:	00f12a23          	sw	a5,20(sp)
40000ab8:	16c090ef          	jal	ra,40009c24 <__eqdf2>
40000abc:	01412783          	lw	a5,20(sp)
40000ac0:	03412703          	lw	a4,52(sp)
40000ac4:	22051a63          	bnez	a0,40000cf8 <_vfprintf_r+0xb68>
40000ac8:	fff70913          	addi	s2,a4,-1
40000acc:	d32056e3          	blez	s2,400007f8 <_vfprintf_r+0x668>
40000ad0:	4000b6b7          	lui	a3,0x4000b
40000ad4:	01000d13          	li	s10,16
40000ad8:	79068b13          	addi	s6,a3,1936 # 4000b790 <zeroes.4139>
40000adc:	cf2d5ce3          	ble	s2,s10,400007d4 <_vfprintf_r+0x644>
40000ae0:	00700d93          	li	s11,7
40000ae4:	00c0006f          	j	40000af0 <_vfprintf_r+0x960>
40000ae8:	ff090913          	addi	s2,s2,-16
40000aec:	cf2d54e3          	ble	s2,s10,400007d4 <_vfprintf_r+0x644>
40000af0:	01078793          	addi	a5,a5,16
40000af4:	00198993          	addi	s3,s3,1
40000af8:	016ca023          	sw	s6,0(s9)
40000afc:	01aca223          	sw	s10,4(s9)
40000b00:	0af12223          	sw	a5,164(sp)
40000b04:	0b312023          	sw	s3,160(sp)
40000b08:	008c8c93          	addi	s9,s9,8
40000b0c:	fd3ddee3          	ble	s3,s11,40000ae8 <_vfprintf_r+0x958>
40000b10:	09c10613          	addi	a2,sp,156
40000b14:	000a0593          	mv	a1,s4
40000b18:	000a8513          	mv	a0,s5
40000b1c:	181050ef          	jal	ra,4000649c <__sprint_r>
40000b20:	d2051ee3          	bnez	a0,4000085c <_vfprintf_r+0x6cc>
40000b24:	0a412783          	lw	a5,164(sp)
40000b28:	0a012983          	lw	s3,160(sp)
40000b2c:	000c0c93          	mv	s9,s8
40000b30:	fb9ff06f          	j	40000ae8 <_vfprintf_r+0x958>
40000b34:	09c10613          	addi	a2,sp,156
40000b38:	000a0593          	mv	a1,s4
40000b3c:	000a8513          	mv	a0,s5
40000b40:	15d050ef          	jal	ra,4000649c <__sprint_r>
40000b44:	c4050ce3          	beqz	a0,4000079c <_vfprintf_r+0x60c>
40000b48:	d15ff06f          	j	4000085c <_vfprintf_r+0x6cc>
40000b4c:	01012d83          	lw	s11,16(sp)
40000b50:	00100693          	li	a3,1
40000b54:	6ad70a63          	beq	a4,a3,40001208 <_vfprintf_r+0x1078>
40000b58:	00200793          	li	a5,2
40000b5c:	06f71663          	bne	a4,a5,40000bc8 <_vfprintf_r+0xa38>
40000b60:	01b12823          	sw	s11,16(sp)
40000b64:	00000793          	li	a5,0
40000b68:	905ff06f          	j	4000046c <_vfprintf_r+0x2dc>
40000b6c:	09c10613          	addi	a2,sp,156
40000b70:	000a0593          	mv	a1,s4
40000b74:	000a8513          	mv	a0,s5
40000b78:	125050ef          	jal	ra,4000649c <__sprint_r>
40000b7c:	ce0510e3          	bnez	a0,4000085c <_vfprintf_r+0x6cc>
40000b80:	000c0313          	mv	t1,s8
40000b84:	f84ff06f          	j	40000308 <_vfprintf_r+0x178>
40000b88:	09c10613          	addi	a2,sp,156
40000b8c:	000a0593          	mv	a1,s4
40000b90:	000a8513          	mv	a0,s5
40000b94:	109050ef          	jal	ra,4000649c <__sprint_r>
40000b98:	cc0512e3          	bnez	a0,4000085c <_vfprintf_r+0x6cc>
40000b9c:	0a412783          	lw	a5,164(sp)
40000ba0:	000c0313          	mv	t1,s8
40000ba4:	a0dff06f          	j	400005b0 <_vfprintf_r+0x420>
40000ba8:	09c10613          	addi	a2,sp,156
40000bac:	000a0593          	mv	a1,s4
40000bb0:	000a8513          	mv	a0,s5
40000bb4:	0e9050ef          	jal	ra,4000649c <__sprint_r>
40000bb8:	ca0512e3          	bnez	a0,4000085c <_vfprintf_r+0x6cc>
40000bbc:	0a412783          	lw	a5,164(sp)
40000bc0:	000c0313          	mv	t1,s8
40000bc4:	a25ff06f          	j	400005e8 <_vfprintf_r+0x458>
40000bc8:	01b12823          	sw	s11,16(sp)
40000bcc:	00000793          	li	a5,0
40000bd0:	000c0693          	mv	a3,s8
40000bd4:	0080006f          	j	40000bdc <_vfprintf_r+0xa4c>
40000bd8:	00090693          	mv	a3,s2
40000bdc:	0077f713          	andi	a4,a5,7
40000be0:	03070713          	addi	a4,a4,48
40000be4:	fee68fa3          	sb	a4,-1(a3)
40000be8:	0037d793          	srli	a5,a5,0x3
40000bec:	fff68913          	addi	s2,a3,-1
40000bf0:	fe0794e3          	bnez	a5,40000bd8 <_vfprintf_r+0xa48>
40000bf4:	01012783          	lw	a5,16(sp)
40000bf8:	0017f793          	andi	a5,a5,1
40000bfc:	88078ae3          	beqz	a5,40000490 <_vfprintf_r+0x300>
40000c00:	03000793          	li	a5,48
40000c04:	88f706e3          	beq	a4,a5,40000490 <_vfprintf_r+0x300>
40000c08:	ffe68693          	addi	a3,a3,-2
40000c0c:	fef90fa3          	sb	a5,-1(s2)
40000c10:	40dc07b3          	sub	a5,s8,a3
40000c14:	00f12e23          	sw	a5,28(sp)
40000c18:	00068913          	mv	s2,a3
40000c1c:	87dff06f          	j	40000498 <_vfprintf_r+0x308>
40000c20:	000a8513          	mv	a0,s5
40000c24:	0dc030ef          	jal	ra,40003d00 <__sinit>
40000c28:	dd4ff06f          	j	400001fc <_vfprintf_r+0x6c>
40000c2c:	08412683          	lw	a3,132(sp)
40000c30:	22d052e3          	blez	a3,40001654 <_vfprintf_r+0x14c4>
40000c34:	03012703          	lw	a4,48(sp)
40000c38:	03412683          	lw	a3,52(sp)
40000c3c:	00070993          	mv	s3,a4
40000c40:	00e6d463          	ble	a4,a3,40000c48 <_vfprintf_r+0xab8>
40000c44:	00068993          	mv	s3,a3
40000c48:	03305663          	blez	s3,40000c74 <_vfprintf_r+0xae4>
40000c4c:	0a012703          	lw	a4,160(sp)
40000c50:	013787b3          	add	a5,a5,s3
40000c54:	01232023          	sw	s2,0(t1)
40000c58:	00170713          	addi	a4,a4,1
40000c5c:	01332223          	sw	s3,4(t1)
40000c60:	0af12223          	sw	a5,164(sp)
40000c64:	0ae12023          	sw	a4,160(sp)
40000c68:	00700693          	li	a3,7
40000c6c:	00830313          	addi	t1,t1,8
40000c70:	28e6cae3          	blt	a3,a4,40001704 <_vfprintf_r+0x1574>
40000c74:	5009cee3          	bltz	s3,40001990 <_vfprintf_r+0x1800>
40000c78:	03012703          	lw	a4,48(sp)
40000c7c:	413709b3          	sub	s3,a4,s3
40000c80:	5f305263          	blez	s3,40001264 <_vfprintf_r+0x10d4>
40000c84:	4000b6b7          	lui	a3,0x4000b
40000c88:	01000c93          	li	s9,16
40000c8c:	0a012703          	lw	a4,160(sp)
40000c90:	79068b13          	addi	s6,a3,1936 # 4000b790 <zeroes.4139>
40000c94:	593cd863          	ble	s3,s9,40001224 <_vfprintf_r+0x1094>
40000c98:	00700d13          	li	s10,7
40000c9c:	00c0006f          	j	40000ca8 <_vfprintf_r+0xb18>
40000ca0:	ff098993          	addi	s3,s3,-16
40000ca4:	593cd063          	ble	s3,s9,40001224 <_vfprintf_r+0x1094>
40000ca8:	01078793          	addi	a5,a5,16
40000cac:	00170713          	addi	a4,a4,1
40000cb0:	01632023          	sw	s6,0(t1)
40000cb4:	01932223          	sw	s9,4(t1)
40000cb8:	0af12223          	sw	a5,164(sp)
40000cbc:	0ae12023          	sw	a4,160(sp)
40000cc0:	00830313          	addi	t1,t1,8
40000cc4:	fced5ee3          	ble	a4,s10,40000ca0 <_vfprintf_r+0xb10>
40000cc8:	09c10613          	addi	a2,sp,156
40000ccc:	000a0593          	mv	a1,s4
40000cd0:	000a8513          	mv	a0,s5
40000cd4:	7c8050ef          	jal	ra,4000649c <__sprint_r>
40000cd8:	b80512e3          	bnez	a0,4000085c <_vfprintf_r+0x6cc>
40000cdc:	0a412783          	lw	a5,164(sp)
40000ce0:	0a012703          	lw	a4,160(sp)
40000ce4:	000c0313          	mv	t1,s8
40000ce8:	fb9ff06f          	j	40000ca0 <_vfprintf_r+0xb10>
40000cec:	00012e23          	sw	zero,28(sp)
40000cf0:	000c0913          	mv	s2,s8
40000cf4:	fa4ff06f          	j	40000498 <_vfprintf_r+0x308>
40000cf8:	fff70713          	addi	a4,a4,-1
40000cfc:	00e787b3          	add	a5,a5,a4
40000d00:	00190913          	addi	s2,s2,1
40000d04:	00198993          	addi	s3,s3,1
40000d08:	00eca223          	sw	a4,4(s9)
40000d0c:	012ca023          	sw	s2,0(s9)
40000d10:	0af12223          	sw	a5,164(sp)
40000d14:	0b312023          	sw	s3,160(sp)
40000d18:	00700713          	li	a4,7
40000d1c:	ad375ce3          	ble	s3,a4,400007f4 <_vfprintf_r+0x664>
40000d20:	09c10613          	addi	a2,sp,156
40000d24:	000a0593          	mv	a1,s4
40000d28:	000a8513          	mv	a0,s5
40000d2c:	770050ef          	jal	ra,4000649c <__sprint_r>
40000d30:	b20516e3          	bnez	a0,4000085c <_vfprintf_r+0x6cc>
40000d34:	0a412783          	lw	a5,164(sp)
40000d38:	0a012983          	lw	s3,160(sp)
40000d3c:	000c0c93          	mv	s9,s8
40000d40:	ab9ff06f          	j	400007f8 <_vfprintf_r+0x668>
40000d44:	00050613          	mv	a2,a0
40000d48:	00080593          	mv	a1,a6
40000d4c:	e08ff06f          	j	40000354 <_vfprintf_r+0x1c4>
40000d50:	00060463          	beqz	a2,40000d58 <_vfprintf_r+0xbc8>
40000d54:	7a50006f          	j	40001cf8 <_vfprintf_r+0x1b68>
40000d58:	010df793          	andi	a5,s11,16
40000d5c:	64079a63          	bnez	a5,400013b0 <_vfprintf_r+0x1220>
40000d60:	040dfd93          	andi	s11,s11,64
40000d64:	640d8663          	beqz	s11,400013b0 <_vfprintf_r+0x1220>
40000d68:	02012703          	lw	a4,32(sp)
40000d6c:	00072783          	lw	a5,0(a4)
40000d70:	00470713          	addi	a4,a4,4
40000d74:	02e12023          	sw	a4,32(sp)
40000d78:	01815703          	lhu	a4,24(sp)
40000d7c:	00e79023          	sh	a4,0(a5)
40000d80:	d2cff06f          	j	400002ac <_vfprintf_r+0x11c>
40000d84:	02012783          	lw	a5,32(sp)
40000d88:	06010fa3          	sb	zero,127(sp)
40000d8c:	0007a903          	lw	s2,0(a5)
40000d90:	00478b13          	addi	s6,a5,4
40000d94:	400902e3          	beqz	s2,40001998 <_vfprintf_r+0x1808>
40000d98:	fff00793          	li	a5,-1
40000d9c:	00612823          	sw	t1,16(sp)
40000da0:	2cfc8ae3          	beq	s9,a5,40001874 <_vfprintf_r+0x16e4>
40000da4:	000c8613          	mv	a2,s9
40000da8:	00000593          	li	a1,0
40000dac:	00090513          	mv	a0,s2
40000db0:	735030ef          	jal	ra,40004ce4 <memchr>
40000db4:	01012303          	lw	t1,16(sp)
40000db8:	52050ae3          	beqz	a0,40001aec <_vfprintf_r+0x195c>
40000dbc:	412507b3          	sub	a5,a0,s2
40000dc0:	00f12e23          	sw	a5,28(sp)
40000dc4:	00078b93          	mv	s7,a5
40000dc8:	2c07c2e3          	bltz	a5,4000188c <_vfprintf_r+0x16fc>
40000dcc:	07f14603          	lbu	a2,127(sp)
40000dd0:	03612023          	sw	s6,32(sp)
40000dd4:	01b12823          	sw	s11,16(sp)
40000dd8:	02012823          	sw	zero,48(sp)
40000ddc:	00000c93          	li	s9,0
40000de0:	ec060863          	beqz	a2,400004b0 <_vfprintf_r+0x320>
40000de4:	9e1ff06f          	j	400007c4 <_vfprintf_r+0x634>
40000de8:	720610e3          	bnez	a2,40001d08 <_vfprintf_r+0x1b78>
40000dec:	010ded93          	ori	s11,s11,16
40000df0:	010df793          	andi	a5,s11,16
40000df4:	64079e63          	bnez	a5,40001450 <_vfprintf_r+0x12c0>
40000df8:	040df793          	andi	a5,s11,64
40000dfc:	02012703          	lw	a4,32(sp)
40000e00:	58078863          	beqz	a5,40001390 <_vfprintf_r+0x1200>
40000e04:	00071783          	lh	a5,0(a4)
40000e08:	00470713          	addi	a4,a4,4
40000e0c:	02e12023          	sw	a4,32(sp)
40000e10:	6607c463          	bltz	a5,40001478 <_vfprintf_r+0x12e8>
40000e14:	07f14603          	lbu	a2,127(sp)
40000e18:	00100713          	li	a4,1
40000e1c:	d98ff06f          	j	400003b4 <_vfprintf_r+0x224>
40000e20:	6e0610e3          	bnez	a2,40001d00 <_vfprintf_r+0x1b70>
40000e24:	008df793          	andi	a5,s11,8
40000e28:	7e078463          	beqz	a5,40001610 <_vfprintf_r+0x1480>
40000e2c:	02012703          	lw	a4,32(sp)
40000e30:	06010513          	addi	a0,sp,96
40000e34:	00612823          	sw	t1,16(sp)
40000e38:	00072783          	lw	a5,0(a4)
40000e3c:	00470693          	addi	a3,a4,4
40000e40:	02d12023          	sw	a3,32(sp)
40000e44:	0007a703          	lw	a4,0(a5)
40000e48:	06e12023          	sw	a4,96(sp)
40000e4c:	0047a703          	lw	a4,4(a5)
40000e50:	06e12223          	sw	a4,100(sp)
40000e54:	0087a703          	lw	a4,8(a5)
40000e58:	06e12423          	sw	a4,104(sp)
40000e5c:	00c7a783          	lw	a5,12(a5)
40000e60:	06f12623          	sw	a5,108(sp)
40000e64:	33c0a0ef          	jal	ra,4000b1a0 <__trunctfdf2>
40000e68:	01012303          	lw	t1,16(sp)
40000e6c:	02a12c23          	sw	a0,56(sp)
40000e70:	02b12e23          	sw	a1,60(sp)
40000e74:	03c12783          	lw	a5,60(sp)
40000e78:	80000937          	lui	s2,0x80000
40000e7c:	03812b03          	lw	s6,56(sp)
40000e80:	fff94913          	not	s2,s2
40000e84:	05012603          	lw	a2,80(sp)
40000e88:	05412683          	lw	a3,84(sp)
40000e8c:	0127f933          	and	s2,a5,s2
40000e90:	000b0513          	mv	a0,s6
40000e94:	00090593          	mv	a1,s2
40000e98:	00612823          	sw	t1,16(sp)
40000e9c:	06c0a0ef          	jal	ra,4000af08 <__unorddf2>
40000ea0:	01012303          	lw	t1,16(sp)
40000ea4:	5e051663          	bnez	a0,40001490 <_vfprintf_r+0x1300>
40000ea8:	05812603          	lw	a2,88(sp)
40000eac:	05c12683          	lw	a3,92(sp)
40000eb0:	000b0513          	mv	a0,s6
40000eb4:	00090593          	mv	a1,s2
40000eb8:	6fd080ef          	jal	ra,40009db4 <__ledf2>
40000ebc:	01012303          	lw	t1,16(sp)
40000ec0:	5ca05863          	blez	a0,40001490 <_vfprintf_r+0x1300>
40000ec4:	03812703          	lw	a4,56(sp)
40000ec8:	03c12783          	lw	a5,60(sp)
40000ecc:	00000613          	li	a2,0
40000ed0:	00070513          	mv	a0,a4
40000ed4:	00078593          	mv	a1,a5
40000ed8:	00000693          	li	a3,0
40000edc:	00612823          	sw	t1,16(sp)
40000ee0:	6d5080ef          	jal	ra,40009db4 <__ledf2>
40000ee4:	01012303          	lw	t1,16(sp)
40000ee8:	2e0546e3          	bltz	a0,400019d4 <_vfprintf_r+0x1844>
40000eec:	07f14603          	lbu	a2,127(sp)
40000ef0:	04700793          	li	a5,71
40000ef4:	0137d2e3          	ble	s3,a5,400016f8 <_vfprintf_r+0x1568>
40000ef8:	4000b937          	lui	s2,0x4000b
40000efc:	7a490913          	addi	s2,s2,1956 # 4000b7a4 <zeroes.4139+0x14>
40000f00:	00300b93          	li	s7,3
40000f04:	f7fdf793          	andi	a5,s11,-129
40000f08:	00f12823          	sw	a5,16(sp)
40000f0c:	01712e23          	sw	s7,28(sp)
40000f10:	02012823          	sw	zero,48(sp)
40000f14:	00000c93          	li	s9,0
40000f18:	d8060c63          	beqz	a2,400004b0 <_vfprintf_r+0x320>
40000f1c:	8a9ff06f          	j	400007c4 <_vfprintf_r+0x634>
40000f20:	008ded93          	ori	s11,s11,8
40000f24:	c30ff06f          	j	40000354 <_vfprintf_r+0x1c4>
40000f28:	00044983          	lbu	s3,0(s0)
40000f2c:	00140413          	addi	s0,s0,1
40000f30:	59198ae3          	beq	s3,a7,40001cc4 <_vfprintf_r+0x1b34>
40000f34:	fd098e13          	addi	t3,s3,-48
40000f38:	00000c93          	li	s9,0
40000f3c:	c3c6e063          	bltu	a3,t3,4000035c <_vfprintf_r+0x1cc>
40000f40:	00140413          	addi	s0,s0,1
40000f44:	002c9793          	slli	a5,s9,0x2
40000f48:	fff44983          	lbu	s3,-1(s0)
40000f4c:	019787b3          	add	a5,a5,s9
40000f50:	00179793          	slli	a5,a5,0x1
40000f54:	01c78cb3          	add	s9,a5,t3
40000f58:	fd098e13          	addi	t3,s3,-48
40000f5c:	ffc6f2e3          	bleu	t3,a3,40000f40 <_vfprintf_r+0xdb0>
40000f60:	bfcff06f          	j	4000035c <_vfprintf_r+0x1cc>
40000f64:	080ded93          	ori	s11,s11,128
40000f68:	becff06f          	j	40000354 <_vfprintf_r+0x1c4>
40000f6c:	02012683          	lw	a3,32(sp)
40000f70:	03000713          	li	a4,48
40000f74:	08e10023          	sb	a4,128(sp)
40000f78:	07800713          	li	a4,120
40000f7c:	08e100a3          	sb	a4,129(sp)
40000f80:	00468713          	addi	a4,a3,4
40000f84:	02e12023          	sw	a4,32(sp)
40000f88:	4000b737          	lui	a4,0x4000b
40000f8c:	7c470713          	addi	a4,a4,1988 # 4000b7c4 <zeroes.4139+0x34>
40000f90:	04e12223          	sw	a4,68(sp)
40000f94:	0006a783          	lw	a5,0(a3)
40000f98:	002ded93          	ori	s11,s11,2
40000f9c:	00200713          	li	a4,2
40000fa0:	07800993          	li	s3,120
40000fa4:	c08ff06f          	j	400003ac <_vfprintf_r+0x21c>
40000fa8:	00000493          	li	s1,0
40000fac:	fd098e13          	addi	t3,s3,-48
40000fb0:	00140413          	addi	s0,s0,1
40000fb4:	00249793          	slli	a5,s1,0x2
40000fb8:	fff44983          	lbu	s3,-1(s0)
40000fbc:	009787b3          	add	a5,a5,s1
40000fc0:	00179793          	slli	a5,a5,0x1
40000fc4:	00fe04b3          	add	s1,t3,a5
40000fc8:	fd098e13          	addi	t3,s3,-48
40000fcc:	ffc6f2e3          	bleu	t3,a3,40000fb0 <_vfprintf_r+0xe20>
40000fd0:	b8cff06f          	j	4000035c <_vfprintf_r+0x1cc>
40000fd4:	001ded93          	ori	s11,s11,1
40000fd8:	b7cff06f          	j	40000354 <_vfprintf_r+0x1c4>
40000fdc:	b6059c63          	bnez	a1,40000354 <_vfprintf_r+0x1c4>
40000fe0:	00050613          	mv	a2,a0
40000fe4:	000e8593          	mv	a1,t4
40000fe8:	b6cff06f          	j	40000354 <_vfprintf_r+0x1c4>
40000fec:	040ded93          	ori	s11,s11,64
40000ff0:	b64ff06f          	j	40000354 <_vfprintf_r+0x1c4>
40000ff4:	520616e3          	bnez	a2,40001d20 <_vfprintf_r+0x1b90>
40000ff8:	4000b7b7          	lui	a5,0x4000b
40000ffc:	7c478793          	addi	a5,a5,1988 # 4000b7c4 <zeroes.4139+0x34>
40001000:	04f12223          	sw	a5,68(sp)
40001004:	010df793          	andi	a5,s11,16
40001008:	44079e63          	bnez	a5,40001464 <_vfprintf_r+0x12d4>
4000100c:	040df793          	andi	a5,s11,64
40001010:	02012703          	lw	a4,32(sp)
40001014:	38078663          	beqz	a5,400013a0 <_vfprintf_r+0x1210>
40001018:	00075783          	lhu	a5,0(a4)
4000101c:	00470713          	addi	a4,a4,4
40001020:	02e12023          	sw	a4,32(sp)
40001024:	001df693          	andi	a3,s11,1
40001028:	00200713          	li	a4,2
4000102c:	b8068063          	beqz	a3,400003ac <_vfprintf_r+0x21c>
40001030:	b6078e63          	beqz	a5,400003ac <_vfprintf_r+0x21c>
40001034:	03000693          	li	a3,48
40001038:	08d10023          	sb	a3,128(sp)
4000103c:	093100a3          	sb	s3,129(sp)
40001040:	00ededb3          	or	s11,s11,a4
40001044:	b68ff06f          	j	400003ac <_vfprintf_r+0x21c>
40001048:	4c0618e3          	bnez	a2,40001d18 <_vfprintf_r+0x1b88>
4000104c:	4000b7b7          	lui	a5,0x4000b
40001050:	7b078793          	addi	a5,a5,1968 # 4000b7b0 <zeroes.4139+0x20>
40001054:	04f12223          	sw	a5,68(sp)
40001058:	fadff06f          	j	40001004 <_vfprintf_r+0xe74>
4000105c:	02012703          	lw	a4,32(sp)
40001060:	00100b93          	li	s7,1
40001064:	06010fa3          	sb	zero,127(sp)
40001068:	00072783          	lw	a5,0(a4)
4000106c:	0af10423          	sb	a5,168(sp)
40001070:	00470793          	addi	a5,a4,4
40001074:	02f12023          	sw	a5,32(sp)
40001078:	01b12823          	sw	s11,16(sp)
4000107c:	00000613          	li	a2,0
40001080:	01712e23          	sw	s7,28(sp)
40001084:	00000c93          	li	s9,0
40001088:	02012823          	sw	zero,48(sp)
4000108c:	0a810913          	addi	s2,sp,168
40001090:	c20ff06f          	j	400004b0 <_vfprintf_r+0x320>
40001094:	d4060ee3          	beqz	a2,40000df0 <_vfprintf_r+0xc60>
40001098:	06b10fa3          	sb	a1,127(sp)
4000109c:	d55ff06f          	j	40000df0 <_vfprintf_r+0xc60>
400010a0:	09c10613          	addi	a2,sp,156
400010a4:	000a0593          	mv	a1,s4
400010a8:	000a8513          	mv	a0,s5
400010ac:	3f0050ef          	jal	ra,4000649c <__sprint_r>
400010b0:	fa051663          	bnez	a0,4000085c <_vfprintf_r+0x6cc>
400010b4:	0a412783          	lw	a5,164(sp)
400010b8:	eccff06f          	j	40000784 <_vfprintf_r+0x5f4>
400010bc:	0006d783          	lhu	a5,0(a3)
400010c0:	00468693          	addi	a3,a3,4
400010c4:	00000713          	li	a4,0
400010c8:	02d12023          	sw	a3,32(sp)
400010cc:	ae0ff06f          	j	400003ac <_vfprintf_r+0x21c>
400010d0:	440610e3          	bnez	a2,40001d10 <_vfprintf_r+0x1b80>
400010d4:	f6098863          	beqz	s3,40000844 <_vfprintf_r+0x6b4>
400010d8:	00100b93          	li	s7,1
400010dc:	0b310423          	sb	s3,168(sp)
400010e0:	06010fa3          	sb	zero,127(sp)
400010e4:	f95ff06f          	j	40001078 <_vfprintf_r+0xee8>
400010e8:	00900713          	li	a4,9
400010ec:	000c0913          	mv	s2,s8
400010f0:	00a00693          	li	a3,10
400010f4:	10f77863          	bleu	a5,a4,40001204 <_vfprintf_r+0x1074>
400010f8:	02d7f733          	remu	a4,a5,a3
400010fc:	fff90913          	addi	s2,s2,-1
40001100:	02d7d7b3          	divu	a5,a5,a3
40001104:	03070713          	addi	a4,a4,48
40001108:	00e90023          	sb	a4,0(s2)
4000110c:	fe0796e3          	bnez	a5,400010f8 <_vfprintf_r+0xf68>
40001110:	b80ff06f          	j	40000490 <_vfprintf_r+0x300>
40001114:	09c10613          	addi	a2,sp,156
40001118:	000a0593          	mv	a1,s4
4000111c:	000a8513          	mv	a0,s5
40001120:	37c050ef          	jal	ra,4000649c <__sprint_r>
40001124:	f2051c63          	bnez	a0,4000085c <_vfprintf_r+0x6cc>
40001128:	07f14603          	lbu	a2,127(sp)
4000112c:	0a412783          	lw	a5,164(sp)
40001130:	000c0313          	mv	t1,s8
40001134:	c48ff06f          	j	4000057c <_vfprintf_r+0x3ec>
40001138:	04812783          	lw	a5,72(sp)
4000113c:	04012683          	lw	a3,64(sp)
40001140:	0a012703          	lw	a4,160(sp)
40001144:	00f32023          	sw	a5,0(t1)
40001148:	0a412783          	lw	a5,164(sp)
4000114c:	00170713          	addi	a4,a4,1
40001150:	00d32223          	sw	a3,4(t1)
40001154:	00f687b3          	add	a5,a3,a5
40001158:	0af12223          	sw	a5,164(sp)
4000115c:	0ae12023          	sw	a4,160(sp)
40001160:	00700693          	li	a3,7
40001164:	00830313          	addi	t1,t1,8
40001168:	6ee6c463          	blt	a3,a4,40001850 <_vfprintf_r+0x16c0>
4000116c:	03412703          	lw	a4,52(sp)
40001170:	fff70913          	addi	s2,a4,-1
40001174:	d7205863          	blez	s2,400006e4 <_vfprintf_r+0x554>
40001178:	4000b6b7          	lui	a3,0x4000b
4000117c:	01000993          	li	s3,16
40001180:	0a012703          	lw	a4,160(sp)
40001184:	79068b13          	addi	s6,a3,1936 # 4000b790 <zeroes.4139>
40001188:	0529dc63          	ble	s2,s3,400011e0 <_vfprintf_r+0x1050>
4000118c:	00700c93          	li	s9,7
40001190:	00c0006f          	j	4000119c <_vfprintf_r+0x100c>
40001194:	ff090913          	addi	s2,s2,-16
40001198:	0529d463          	ble	s2,s3,400011e0 <_vfprintf_r+0x1050>
4000119c:	01078793          	addi	a5,a5,16
400011a0:	00170713          	addi	a4,a4,1
400011a4:	01632023          	sw	s6,0(t1)
400011a8:	01332223          	sw	s3,4(t1)
400011ac:	0af12223          	sw	a5,164(sp)
400011b0:	0ae12023          	sw	a4,160(sp)
400011b4:	00830313          	addi	t1,t1,8
400011b8:	fcecdee3          	ble	a4,s9,40001194 <_vfprintf_r+0x1004>
400011bc:	09c10613          	addi	a2,sp,156
400011c0:	000a0593          	mv	a1,s4
400011c4:	000a8513          	mv	a0,s5
400011c8:	2d4050ef          	jal	ra,4000649c <__sprint_r>
400011cc:	e8051863          	bnez	a0,4000085c <_vfprintf_r+0x6cc>
400011d0:	0a412783          	lw	a5,164(sp)
400011d4:	0a012703          	lw	a4,160(sp)
400011d8:	000c0313          	mv	t1,s8
400011dc:	fb9ff06f          	j	40001194 <_vfprintf_r+0x1004>
400011e0:	01632023          	sw	s6,0(t1)
400011e4:	01232223          	sw	s2,4(t1)
400011e8:	012787b3          	add	a5,a5,s2
400011ec:	00170713          	addi	a4,a4,1
400011f0:	0af12223          	sw	a5,164(sp)
400011f4:	0ae12023          	sw	a4,160(sp)
400011f8:	00700693          	li	a3,7
400011fc:	cee6d263          	ble	a4,a3,400006e0 <_vfprintf_r+0x550>
40001200:	e24ff06f          	j	40000824 <_vfprintf_r+0x694>
40001204:	01012d83          	lw	s11,16(sp)
40001208:	03078793          	addi	a5,a5,48
4000120c:	0cf107a3          	sb	a5,207(sp)
40001210:	00100793          	li	a5,1
40001214:	01b12823          	sw	s11,16(sp)
40001218:	00f12e23          	sw	a5,28(sp)
4000121c:	0cf10913          	addi	s2,sp,207
40001220:	a78ff06f          	j	40000498 <_vfprintf_r+0x308>
40001224:	013787b3          	add	a5,a5,s3
40001228:	00170713          	addi	a4,a4,1
4000122c:	01632023          	sw	s6,0(t1)
40001230:	01332223          	sw	s3,4(t1)
40001234:	0af12223          	sw	a5,164(sp)
40001238:	0ae12023          	sw	a4,160(sp)
4000123c:	00700693          	li	a3,7
40001240:	00830313          	addi	t1,t1,8
40001244:	02e6d063          	ble	a4,a3,40001264 <_vfprintf_r+0x10d4>
40001248:	09c10613          	addi	a2,sp,156
4000124c:	000a0593          	mv	a1,s4
40001250:	000a8513          	mv	a0,s5
40001254:	248050ef          	jal	ra,4000649c <__sprint_r>
40001258:	e0051263          	bnez	a0,4000085c <_vfprintf_r+0x6cc>
4000125c:	0a412783          	lw	a5,164(sp)
40001260:	000c0313          	mv	t1,s8
40001264:	08412703          	lw	a4,132(sp)
40001268:	03412683          	lw	a3,52(sp)
4000126c:	0cd74863          	blt	a4,a3,4000133c <_vfprintf_r+0x11ac>
40001270:	01012683          	lw	a3,16(sp)
40001274:	0016f693          	andi	a3,a3,1
40001278:	0c069263          	bnez	a3,4000133c <_vfprintf_r+0x11ac>
4000127c:	03412683          	lw	a3,52(sp)
40001280:	03012603          	lw	a2,48(sp)
40001284:	40e68733          	sub	a4,a3,a4
40001288:	40c689b3          	sub	s3,a3,a2
4000128c:	01375463          	ble	s3,a4,40001294 <_vfprintf_r+0x1104>
40001290:	00070993          	mv	s3,a4
40001294:	03305a63          	blez	s3,400012c8 <_vfprintf_r+0x1138>
40001298:	0a012603          	lw	a2,160(sp)
4000129c:	03012683          	lw	a3,48(sp)
400012a0:	013787b3          	add	a5,a5,s3
400012a4:	00160613          	addi	a2,a2,1
400012a8:	00d906b3          	add	a3,s2,a3
400012ac:	00d32023          	sw	a3,0(t1)
400012b0:	01332223          	sw	s3,4(t1)
400012b4:	0af12223          	sw	a5,164(sp)
400012b8:	0ac12023          	sw	a2,160(sp)
400012bc:	00700693          	li	a3,7
400012c0:	00830313          	addi	t1,t1,8
400012c4:	46c6c063          	blt	a3,a2,40001724 <_vfprintf_r+0x1594>
400012c8:	7009c263          	bltz	s3,400019cc <_vfprintf_r+0x183c>
400012cc:	41370933          	sub	s2,a4,s3
400012d0:	c1205a63          	blez	s2,400006e4 <_vfprintf_r+0x554>
400012d4:	4000b6b7          	lui	a3,0x4000b
400012d8:	01000993          	li	s3,16
400012dc:	0a012703          	lw	a4,160(sp)
400012e0:	79068b13          	addi	s6,a3,1936 # 4000b790 <zeroes.4139>
400012e4:	ef29dee3          	ble	s2,s3,400011e0 <_vfprintf_r+0x1050>
400012e8:	00700c93          	li	s9,7
400012ec:	00c0006f          	j	400012f8 <_vfprintf_r+0x1168>
400012f0:	ff090913          	addi	s2,s2,-16
400012f4:	ef29d6e3          	ble	s2,s3,400011e0 <_vfprintf_r+0x1050>
400012f8:	01078793          	addi	a5,a5,16
400012fc:	00170713          	addi	a4,a4,1
40001300:	01632023          	sw	s6,0(t1)
40001304:	01332223          	sw	s3,4(t1)
40001308:	0af12223          	sw	a5,164(sp)
4000130c:	0ae12023          	sw	a4,160(sp)
40001310:	00830313          	addi	t1,t1,8
40001314:	fcecdee3          	ble	a4,s9,400012f0 <_vfprintf_r+0x1160>
40001318:	09c10613          	addi	a2,sp,156
4000131c:	000a0593          	mv	a1,s4
40001320:	000a8513          	mv	a0,s5
40001324:	178050ef          	jal	ra,4000649c <__sprint_r>
40001328:	d2051a63          	bnez	a0,4000085c <_vfprintf_r+0x6cc>
4000132c:	0a412783          	lw	a5,164(sp)
40001330:	0a012703          	lw	a4,160(sp)
40001334:	000c0313          	mv	t1,s8
40001338:	fb9ff06f          	j	400012f0 <_vfprintf_r+0x1160>
4000133c:	04812683          	lw	a3,72(sp)
40001340:	04012603          	lw	a2,64(sp)
40001344:	00830313          	addi	t1,t1,8
40001348:	fed32c23          	sw	a3,-8(t1)
4000134c:	0a012683          	lw	a3,160(sp)
40001350:	00c787b3          	add	a5,a5,a2
40001354:	fec32e23          	sw	a2,-4(t1)
40001358:	00168693          	addi	a3,a3,1
4000135c:	0af12223          	sw	a5,164(sp)
40001360:	0ad12023          	sw	a3,160(sp)
40001364:	00700613          	li	a2,7
40001368:	f0d65ae3          	ble	a3,a2,4000127c <_vfprintf_r+0x10ec>
4000136c:	09c10613          	addi	a2,sp,156
40001370:	000a0593          	mv	a1,s4
40001374:	000a8513          	mv	a0,s5
40001378:	124050ef          	jal	ra,4000649c <__sprint_r>
4000137c:	ce051063          	bnez	a0,4000085c <_vfprintf_r+0x6cc>
40001380:	08412703          	lw	a4,132(sp)
40001384:	0a412783          	lw	a5,164(sp)
40001388:	000c0313          	mv	t1,s8
4000138c:	ef1ff06f          	j	4000127c <_vfprintf_r+0x10ec>
40001390:	00072783          	lw	a5,0(a4)
40001394:	00470713          	addi	a4,a4,4
40001398:	02e12023          	sw	a4,32(sp)
4000139c:	a75ff06f          	j	40000e10 <_vfprintf_r+0xc80>
400013a0:	00072783          	lw	a5,0(a4)
400013a4:	00470713          	addi	a4,a4,4
400013a8:	02e12023          	sw	a4,32(sp)
400013ac:	c79ff06f          	j	40001024 <_vfprintf_r+0xe94>
400013b0:	02012703          	lw	a4,32(sp)
400013b4:	00072783          	lw	a5,0(a4)
400013b8:	00470713          	addi	a4,a4,4
400013bc:	02e12023          	sw	a4,32(sp)
400013c0:	01812703          	lw	a4,24(sp)
400013c4:	00e7a023          	sw	a4,0(a5)
400013c8:	ee5fe06f          	j	400002ac <_vfprintf_r+0x11c>
400013cc:	01012683          	lw	a3,16(sp)
400013d0:	00e6f6b3          	and	a3,a3,a4
400013d4:	e6069a63          	bnez	a3,40000a48 <_vfprintf_r+0x8b8>
400013d8:	0a012983          	lw	s3,160(sp)
400013dc:	00e32223          	sw	a4,4(t1)
400013e0:	01232023          	sw	s2,0(t1)
400013e4:	00198993          	addi	s3,s3,1
400013e8:	0af12223          	sw	a5,164(sp)
400013ec:	0b312023          	sw	s3,160(sp)
400013f0:	00700713          	li	a4,7
400013f4:	00830c93          	addi	s9,t1,8
400013f8:	c1375063          	ble	s3,a4,400007f8 <_vfprintf_r+0x668>
400013fc:	925ff06f          	j	40000d20 <_vfprintf_r+0xb90>
40001400:	09c10613          	addi	a2,sp,156
40001404:	000a0593          	mv	a1,s4
40001408:	000a8513          	mv	a0,s5
4000140c:	090050ef          	jal	ra,4000649c <__sprint_r>
40001410:	c4051663          	bnez	a0,4000085c <_vfprintf_r+0x6cc>
40001414:	0a412783          	lw	a5,164(sp)
40001418:	0a012983          	lw	s3,160(sp)
4000141c:	000c0313          	mv	t1,s8
40001420:	e50ff06f          	j	40000a70 <_vfprintf_r+0x8e0>
40001424:	02012683          	lw	a3,32(sp)
40001428:	f75fe06f          	j	4000039c <_vfprintf_r+0x20c>
4000142c:	09c10613          	addi	a2,sp,156
40001430:	000a0593          	mv	a1,s4
40001434:	000a8513          	mv	a0,s5
40001438:	064050ef          	jal	ra,4000649c <__sprint_r>
4000143c:	c2051063          	bnez	a0,4000085c <_vfprintf_r+0x6cc>
40001440:	0a412783          	lw	a5,164(sp)
40001444:	0a012983          	lw	s3,160(sp)
40001448:	000c0c93          	mv	s9,s8
4000144c:	e50ff06f          	j	40000a9c <_vfprintf_r+0x90c>
40001450:	02012703          	lw	a4,32(sp)
40001454:	00072783          	lw	a5,0(a4)
40001458:	00470713          	addi	a4,a4,4
4000145c:	02e12023          	sw	a4,32(sp)
40001460:	9b1ff06f          	j	40000e10 <_vfprintf_r+0xc80>
40001464:	02012703          	lw	a4,32(sp)
40001468:	00072783          	lw	a5,0(a4)
4000146c:	00470713          	addi	a4,a4,4
40001470:	02e12023          	sw	a4,32(sp)
40001474:	bb1ff06f          	j	40001024 <_vfprintf_r+0xe94>
40001478:	02d00713          	li	a4,45
4000147c:	06e10fa3          	sb	a4,127(sp)
40001480:	40f007b3          	neg	a5,a5
40001484:	02d00613          	li	a2,45
40001488:	00100713          	li	a4,1
4000148c:	f29fe06f          	j	400003b4 <_vfprintf_r+0x224>
40001490:	03812803          	lw	a6,56(sp)
40001494:	03c12583          	lw	a1,60(sp)
40001498:	00612823          	sw	t1,16(sp)
4000149c:	00080613          	mv	a2,a6
400014a0:	00080513          	mv	a0,a6
400014a4:	00058693          	mv	a3,a1
400014a8:	261090ef          	jal	ra,4000af08 <__unorddf2>
400014ac:	01012303          	lw	t1,16(sp)
400014b0:	72051663          	bnez	a0,40001bdc <_vfprintf_r+0x1a4c>
400014b4:	fff00793          	li	a5,-1
400014b8:	52fc8663          	beq	s9,a5,400019e4 <_vfprintf_r+0x1854>
400014bc:	fdf9f793          	andi	a5,s3,-33
400014c0:	00078713          	mv	a4,a5
400014c4:	00f12a23          	sw	a5,20(sp)
400014c8:	04700793          	li	a5,71
400014cc:	32f70c63          	beq	a4,a5,40001804 <_vfprintf_r+0x1674>
400014d0:	100de793          	ori	a5,s11,256
400014d4:	00f12823          	sw	a5,16(sp)
400014d8:	03c12783          	lw	a5,60(sp)
400014dc:	00000b13          	li	s6,0
400014e0:	00078b93          	mv	s7,a5
400014e4:	5407ca63          	bltz	a5,40001a38 <_vfprintf_r+0x18a8>
400014e8:	06600793          	li	a5,102
400014ec:	50f98463          	beq	s3,a5,400019f4 <_vfprintf_r+0x1864>
400014f0:	04600793          	li	a5,70
400014f4:	28f98263          	beq	s3,a5,40001778 <_vfprintf_r+0x15e8>
400014f8:	01412783          	lw	a5,20(sp)
400014fc:	03812703          	lw	a4,56(sp)
40001500:	000b8693          	mv	a3,s7
40001504:	fbb78f13          	addi	t5,a5,-69
40001508:	001f3f13          	seqz	t5,t5
4000150c:	01ec8f33          	add	t5,s9,t5
40001510:	09410793          	addi	a5,sp,148
40001514:	00070613          	mv	a2,a4
40001518:	00f12023          	sw	a5,0(sp)
4000151c:	08810893          	addi	a7,sp,136
40001520:	000f0793          	mv	a5,t5
40001524:	08410813          	addi	a6,sp,132
40001528:	00200713          	li	a4,2
4000152c:	000a8513          	mv	a0,s5
40001530:	02612423          	sw	t1,40(sp)
40001534:	01e12e23          	sw	t5,28(sp)
40001538:	409000ef          	jal	ra,40002140 <_dtoa_r>
4000153c:	06700793          	li	a5,103
40001540:	00050913          	mv	s2,a0
40001544:	01c12f03          	lw	t5,28(sp)
40001548:	02812303          	lw	t1,40(sp)
4000154c:	56f99663          	bne	s3,a5,40001ab8 <_vfprintf_r+0x1928>
40001550:	001df793          	andi	a5,s11,1
40001554:	01e50d33          	add	s10,a0,t5
40001558:	66078263          	beqz	a5,40001bbc <_vfprintf_r+0x1a2c>
4000155c:	03812783          	lw	a5,56(sp)
40001560:	000b8593          	mv	a1,s7
40001564:	00000613          	li	a2,0
40001568:	00078513          	mv	a0,a5
4000156c:	00000693          	li	a3,0
40001570:	00612e23          	sw	t1,28(sp)
40001574:	6b0080ef          	jal	ra,40009c24 <__eqdf2>
40001578:	000d0793          	mv	a5,s10
4000157c:	01c12303          	lw	t1,28(sp)
40001580:	02050263          	beqz	a0,400015a4 <_vfprintf_r+0x1414>
40001584:	09412783          	lw	a5,148(sp)
40001588:	01a7fe63          	bleu	s10,a5,400015a4 <_vfprintf_r+0x1414>
4000158c:	03000693          	li	a3,48
40001590:	00178713          	addi	a4,a5,1
40001594:	08e12a23          	sw	a4,148(sp)
40001598:	00d78023          	sb	a3,0(a5)
4000159c:	09412783          	lw	a5,148(sp)
400015a0:	ffa7e8e3          	bltu	a5,s10,40001590 <_vfprintf_r+0x1400>
400015a4:	412787b3          	sub	a5,a5,s2
400015a8:	02f12a23          	sw	a5,52(sp)
400015ac:	01412783          	lw	a5,20(sp)
400015b0:	04700713          	li	a4,71
400015b4:	2ee78063          	beq	a5,a4,40001894 <_vfprintf_r+0x1704>
400015b8:	06500793          	li	a5,101
400015bc:	5337d263          	ble	s3,a5,40001ae0 <_vfprintf_r+0x1950>
400015c0:	06600793          	li	a5,102
400015c4:	4cf98863          	beq	s3,a5,40001a94 <_vfprintf_r+0x1904>
400015c8:	08412783          	lw	a5,132(sp)
400015cc:	02f12823          	sw	a5,48(sp)
400015d0:	03412703          	lw	a4,52(sp)
400015d4:	03012783          	lw	a5,48(sp)
400015d8:	46e7c863          	blt	a5,a4,40001a48 <_vfprintf_r+0x18b8>
400015dc:	001dfd93          	andi	s11,s11,1
400015e0:	480d9863          	bnez	s11,40001a70 <_vfprintf_r+0x18e0>
400015e4:	00078b93          	mv	s7,a5
400015e8:	6e07ca63          	bltz	a5,40001cdc <_vfprintf_r+0x1b4c>
400015ec:	03012783          	lw	a5,48(sp)
400015f0:	06700993          	li	s3,103
400015f4:	00f12e23          	sw	a5,28(sp)
400015f8:	9a0b1e63          	bnez	s6,400007b4 <_vfprintf_r+0x624>
400015fc:	07f14603          	lbu	a2,127(sp)
40001600:	00000c93          	li	s9,0
40001604:	00061463          	bnez	a2,4000160c <_vfprintf_r+0x147c>
40001608:	ea9fe06f          	j	400004b0 <_vfprintf_r+0x320>
4000160c:	9b8ff06f          	j	400007c4 <_vfprintf_r+0x634>
40001610:	02012783          	lw	a5,32(sp)
40001614:	00778793          	addi	a5,a5,7
40001618:	ff87f793          	andi	a5,a5,-8
4000161c:	0007a703          	lw	a4,0(a5)
40001620:	00878793          	addi	a5,a5,8
40001624:	02e12c23          	sw	a4,56(sp)
40001628:	ffc7a703          	lw	a4,-4(a5)
4000162c:	02f12023          	sw	a5,32(sp)
40001630:	02e12e23          	sw	a4,60(sp)
40001634:	841ff06f          	j	40000e74 <_vfprintf_r+0xce4>
40001638:	09c10613          	addi	a2,sp,156
4000163c:	000a0593          	mv	a1,s4
40001640:	000a8513          	mv	a0,s5
40001644:	659040ef          	jal	ra,4000649c <__sprint_r>
40001648:	a0051a63          	bnez	a0,4000085c <_vfprintf_r+0x6cc>
4000164c:	000c0313          	mv	t1,s8
40001650:	ac4ff06f          	j	40000914 <_vfprintf_r+0x784>
40001654:	0a012703          	lw	a4,160(sp)
40001658:	4000b637          	lui	a2,0x4000b
4000165c:	7e060613          	addi	a2,a2,2016 # 4000b7e0 <zeroes.4139+0x50>
40001660:	00c32023          	sw	a2,0(t1)
40001664:	00178793          	addi	a5,a5,1
40001668:	00100613          	li	a2,1
4000166c:	00170713          	addi	a4,a4,1
40001670:	00c32223          	sw	a2,4(t1)
40001674:	0af12223          	sw	a5,164(sp)
40001678:	0ae12023          	sw	a4,160(sp)
4000167c:	00700613          	li	a2,7
40001680:	00830313          	addi	t1,t1,8
40001684:	0ce64663          	blt	a2,a4,40001750 <_vfprintf_r+0x15c0>
40001688:	00069e63          	bnez	a3,400016a4 <_vfprintf_r+0x1514>
4000168c:	03412703          	lw	a4,52(sp)
40001690:	00071a63          	bnez	a4,400016a4 <_vfprintf_r+0x1514>
40001694:	01012703          	lw	a4,16(sp)
40001698:	00177713          	andi	a4,a4,1
4000169c:	00071463          	bnez	a4,400016a4 <_vfprintf_r+0x1514>
400016a0:	844ff06f          	j	400006e4 <_vfprintf_r+0x554>
400016a4:	04812703          	lw	a4,72(sp)
400016a8:	04012603          	lw	a2,64(sp)
400016ac:	00830313          	addi	t1,t1,8
400016b0:	fee32c23          	sw	a4,-8(t1)
400016b4:	0a012703          	lw	a4,160(sp)
400016b8:	00f607b3          	add	a5,a2,a5
400016bc:	fec32e23          	sw	a2,-4(t1)
400016c0:	00170713          	addi	a4,a4,1
400016c4:	0af12223          	sw	a5,164(sp)
400016c8:	0ae12023          	sw	a4,160(sp)
400016cc:	00700613          	li	a2,7
400016d0:	10e64463          	blt	a2,a4,400017d8 <_vfprintf_r+0x1648>
400016d4:	4206c263          	bltz	a3,40001af8 <_vfprintf_r+0x1968>
400016d8:	03412683          	lw	a3,52(sp)
400016dc:	00170713          	addi	a4,a4,1
400016e0:	01232023          	sw	s2,0(t1)
400016e4:	00f687b3          	add	a5,a3,a5
400016e8:	fe5fe06f          	j	400006cc <_vfprintf_r+0x53c>
400016ec:	fff00793          	li	a5,-1
400016f0:	00f12c23          	sw	a5,24(sp)
400016f4:	974ff06f          	j	40000868 <_vfprintf_r+0x6d8>
400016f8:	4000b937          	lui	s2,0x4000b
400016fc:	7a090913          	addi	s2,s2,1952 # 4000b7a0 <zeroes.4139+0x10>
40001700:	801ff06f          	j	40000f00 <_vfprintf_r+0xd70>
40001704:	09c10613          	addi	a2,sp,156
40001708:	000a0593          	mv	a1,s4
4000170c:	000a8513          	mv	a0,s5
40001710:	58d040ef          	jal	ra,4000649c <__sprint_r>
40001714:	94051463          	bnez	a0,4000085c <_vfprintf_r+0x6cc>
40001718:	0a412783          	lw	a5,164(sp)
4000171c:	000c0313          	mv	t1,s8
40001720:	d54ff06f          	j	40000c74 <_vfprintf_r+0xae4>
40001724:	09c10613          	addi	a2,sp,156
40001728:	000a0593          	mv	a1,s4
4000172c:	000a8513          	mv	a0,s5
40001730:	56d040ef          	jal	ra,4000649c <__sprint_r>
40001734:	92051463          	bnez	a0,4000085c <_vfprintf_r+0x6cc>
40001738:	08412703          	lw	a4,132(sp)
4000173c:	03412683          	lw	a3,52(sp)
40001740:	0a412783          	lw	a5,164(sp)
40001744:	000c0313          	mv	t1,s8
40001748:	40e68733          	sub	a4,a3,a4
4000174c:	b7dff06f          	j	400012c8 <_vfprintf_r+0x1138>
40001750:	09c10613          	addi	a2,sp,156
40001754:	000a0593          	mv	a1,s4
40001758:	000a8513          	mv	a0,s5
4000175c:	541040ef          	jal	ra,4000649c <__sprint_r>
40001760:	8e051e63          	bnez	a0,4000085c <_vfprintf_r+0x6cc>
40001764:	08412683          	lw	a3,132(sp)
40001768:	0a412783          	lw	a5,164(sp)
4000176c:	000c0313          	mv	t1,s8
40001770:	f2069ae3          	bnez	a3,400016a4 <_vfprintf_r+0x1514>
40001774:	f19ff06f          	j	4000168c <_vfprintf_r+0x14fc>
40001778:	03812703          	lw	a4,56(sp)
4000177c:	09410793          	addi	a5,sp,148
40001780:	00f12023          	sw	a5,0(sp)
40001784:	00070613          	mv	a2,a4
40001788:	000b8693          	mv	a3,s7
4000178c:	08810893          	addi	a7,sp,136
40001790:	08410813          	addi	a6,sp,132
40001794:	000c8793          	mv	a5,s9
40001798:	00300713          	li	a4,3
4000179c:	000a8513          	mv	a0,s5
400017a0:	00612e23          	sw	t1,28(sp)
400017a4:	19d000ef          	jal	ra,40002140 <_dtoa_r>
400017a8:	01c12303          	lw	t1,28(sp)
400017ac:	00050913          	mv	s2,a0
400017b0:	000c8f13          	mv	t5,s9
400017b4:	04600793          	li	a5,70
400017b8:	01e90d33          	add	s10,s2,t5
400017bc:	daf990e3          	bne	s3,a5,4000155c <_vfprintf_r+0x13cc>
400017c0:	00094703          	lbu	a4,0(s2)
400017c4:	03000793          	li	a5,48
400017c8:	04f70463          	beq	a4,a5,40001810 <_vfprintf_r+0x1680>
400017cc:	08412f03          	lw	t5,132(sp)
400017d0:	01ed0d33          	add	s10,s10,t5
400017d4:	d89ff06f          	j	4000155c <_vfprintf_r+0x13cc>
400017d8:	09c10613          	addi	a2,sp,156
400017dc:	000a0593          	mv	a1,s4
400017e0:	000a8513          	mv	a0,s5
400017e4:	4b9040ef          	jal	ra,4000649c <__sprint_r>
400017e8:	00050463          	beqz	a0,400017f0 <_vfprintf_r+0x1660>
400017ec:	870ff06f          	j	4000085c <_vfprintf_r+0x6cc>
400017f0:	08412683          	lw	a3,132(sp)
400017f4:	0a412783          	lw	a5,164(sp)
400017f8:	0a012703          	lw	a4,160(sp)
400017fc:	000c0313          	mv	t1,s8
40001800:	ed5ff06f          	j	400016d4 <_vfprintf_r+0x1544>
40001804:	cc0c96e3          	bnez	s9,400014d0 <_vfprintf_r+0x1340>
40001808:	00100c93          	li	s9,1
4000180c:	cc5ff06f          	j	400014d0 <_vfprintf_r+0x1340>
40001810:	03812703          	lw	a4,56(sp)
40001814:	000b8593          	mv	a1,s7
40001818:	00000613          	li	a2,0
4000181c:	00070513          	mv	a0,a4
40001820:	00000693          	li	a3,0
40001824:	02612423          	sw	t1,40(sp)
40001828:	01e12e23          	sw	t5,28(sp)
4000182c:	3f8080ef          	jal	ra,40009c24 <__eqdf2>
40001830:	02812303          	lw	t1,40(sp)
40001834:	f8050ce3          	beqz	a0,400017cc <_vfprintf_r+0x163c>
40001838:	01c12f03          	lw	t5,28(sp)
4000183c:	00100793          	li	a5,1
40001840:	41e78f33          	sub	t5,a5,t5
40001844:	09e12223          	sw	t5,132(sp)
40001848:	01ed0d33          	add	s10,s10,t5
4000184c:	d11ff06f          	j	4000155c <_vfprintf_r+0x13cc>
40001850:	09c10613          	addi	a2,sp,156
40001854:	000a0593          	mv	a1,s4
40001858:	000a8513          	mv	a0,s5
4000185c:	441040ef          	jal	ra,4000649c <__sprint_r>
40001860:	00050463          	beqz	a0,40001868 <_vfprintf_r+0x16d8>
40001864:	ff9fe06f          	j	4000085c <_vfprintf_r+0x6cc>
40001868:	0a412783          	lw	a5,164(sp)
4000186c:	000c0313          	mv	t1,s8
40001870:	8fdff06f          	j	4000116c <_vfprintf_r+0xfdc>
40001874:	00090513          	mv	a0,s2
40001878:	29d040ef          	jal	ra,40006314 <strlen>
4000187c:	00a12e23          	sw	a0,28(sp)
40001880:	00050b93          	mv	s7,a0
40001884:	01012303          	lw	t1,16(sp)
40001888:	d4055263          	bgez	a0,40000dcc <_vfprintf_r+0xc3c>
4000188c:	00000b93          	li	s7,0
40001890:	d3cff06f          	j	40000dcc <_vfprintf_r+0xc3c>
40001894:	08412783          	lw	a5,132(sp)
40001898:	00078713          	mv	a4,a5
4000189c:	02f12823          	sw	a5,48(sp)
400018a0:	ffd00793          	li	a5,-3
400018a4:	00f74463          	blt	a4,a5,400018ac <_vfprintf_r+0x171c>
400018a8:	d2ecd4e3          	ble	a4,s9,400015d0 <_vfprintf_r+0x1440>
400018ac:	ffe98993          	addi	s3,s3,-2
400018b0:	03012783          	lw	a5,48(sp)
400018b4:	09310623          	sb	s3,140(sp)
400018b8:	fff78793          	addi	a5,a5,-1
400018bc:	08f12223          	sw	a5,132(sp)
400018c0:	3a07c663          	bltz	a5,40001c6c <_vfprintf_r+0x1adc>
400018c4:	02b00713          	li	a4,43
400018c8:	08e106a3          	sb	a4,141(sp)
400018cc:	00900513          	li	a0,9
400018d0:	2ef55a63          	ble	a5,a0,40001bc4 <_vfprintf_r+0x1a34>
400018d4:	09b10813          	addi	a6,sp,155
400018d8:	00080713          	mv	a4,a6
400018dc:	00a00593          	li	a1,10
400018e0:	0080006f          	j	400018e8 <_vfprintf_r+0x1758>
400018e4:	00060713          	mv	a4,a2
400018e8:	02b7e6b3          	rem	a3,a5,a1
400018ec:	fff70613          	addi	a2,a4,-1
400018f0:	02b7c7b3          	div	a5,a5,a1
400018f4:	03068693          	addi	a3,a3,48
400018f8:	fed70fa3          	sb	a3,-1(a4)
400018fc:	fef544e3          	blt	a0,a5,400018e4 <_vfprintf_r+0x1754>
40001900:	03078793          	addi	a5,a5,48
40001904:	0ff7f793          	andi	a5,a5,255
40001908:	ffe70713          	addi	a4,a4,-2
4000190c:	fef60fa3          	sb	a5,-1(a2)
40001910:	3d077a63          	bleu	a6,a4,40001ce4 <_vfprintf_r+0x1b54>
40001914:	08e10693          	addi	a3,sp,142
40001918:	0080006f          	j	40001920 <_vfprintf_r+0x1790>
4000191c:	00074783          	lbu	a5,0(a4)
40001920:	00168693          	addi	a3,a3,1
40001924:	00170713          	addi	a4,a4,1
40001928:	fef68fa3          	sb	a5,-1(a3)
4000192c:	ff0718e3          	bne	a4,a6,4000191c <_vfprintf_r+0x178c>
40001930:	09c10793          	addi	a5,sp,156
40001934:	40c787b3          	sub	a5,a5,a2
40001938:	08e10713          	addi	a4,sp,142
4000193c:	00f707b3          	add	a5,a4,a5
40001940:	08c10713          	addi	a4,sp,140
40001944:	03412683          	lw	a3,52(sp)
40001948:	40e787b3          	sub	a5,a5,a4
4000194c:	00078713          	mv	a4,a5
40001950:	00e68733          	add	a4,a3,a4
40001954:	04f12623          	sw	a5,76(sp)
40001958:	00e12e23          	sw	a4,28(sp)
4000195c:	00100793          	li	a5,1
40001960:	2ed7d863          	ble	a3,a5,40001c50 <_vfprintf_r+0x1ac0>
40001964:	01c12783          	lw	a5,28(sp)
40001968:	04012703          	lw	a4,64(sp)
4000196c:	00e787b3          	add	a5,a5,a4
40001970:	00f12e23          	sw	a5,28(sp)
40001974:	00078b93          	mv	s7,a5
40001978:	0007c663          	bltz	a5,40001984 <_vfprintf_r+0x17f4>
4000197c:	02012823          	sw	zero,48(sp)
40001980:	c79ff06f          	j	400015f8 <_vfprintf_r+0x1468>
40001984:	00000b93          	li	s7,0
40001988:	02012823          	sw	zero,48(sp)
4000198c:	c6dff06f          	j	400015f8 <_vfprintf_r+0x1468>
40001990:	00000993          	li	s3,0
40001994:	ae4ff06f          	j	40000c78 <_vfprintf_r+0xae8>
40001998:	00600793          	li	a5,6
4000199c:	000c8b93          	mv	s7,s9
400019a0:	0197f463          	bleu	s9,a5,400019a8 <_vfprintf_r+0x1818>
400019a4:	00078b93          	mv	s7,a5
400019a8:	4000b937          	lui	s2,0x4000b
400019ac:	03612023          	sw	s6,32(sp)
400019b0:	01712e23          	sw	s7,28(sp)
400019b4:	01b12823          	sw	s11,16(sp)
400019b8:	00000613          	li	a2,0
400019bc:	00000c93          	li	s9,0
400019c0:	02012823          	sw	zero,48(sp)
400019c4:	7d890913          	addi	s2,s2,2008 # 4000b7d8 <zeroes.4139+0x48>
400019c8:	ae9fe06f          	j	400004b0 <_vfprintf_r+0x320>
400019cc:	00000993          	li	s3,0
400019d0:	8fdff06f          	j	400012cc <_vfprintf_r+0x113c>
400019d4:	02d00793          	li	a5,45
400019d8:	06f10fa3          	sb	a5,127(sp)
400019dc:	02d00613          	li	a2,45
400019e0:	d10ff06f          	j	40000ef0 <_vfprintf_r+0xd60>
400019e4:	fdf9f793          	andi	a5,s3,-33
400019e8:	00f12a23          	sw	a5,20(sp)
400019ec:	00600c93          	li	s9,6
400019f0:	ae1ff06f          	j	400014d0 <_vfprintf_r+0x1340>
400019f4:	03812703          	lw	a4,56(sp)
400019f8:	09410793          	addi	a5,sp,148
400019fc:	00f12023          	sw	a5,0(sp)
40001a00:	00070613          	mv	a2,a4
40001a04:	000b8693          	mv	a3,s7
40001a08:	08810893          	addi	a7,sp,136
40001a0c:	08410813          	addi	a6,sp,132
40001a10:	000c8793          	mv	a5,s9
40001a14:	00300713          	li	a4,3
40001a18:	000a8513          	mv	a0,s5
40001a1c:	00612e23          	sw	t1,28(sp)
40001a20:	720000ef          	jal	ra,40002140 <_dtoa_r>
40001a24:	00050913          	mv	s2,a0
40001a28:	01950d33          	add	s10,a0,s9
40001a2c:	000c8f13          	mv	t5,s9
40001a30:	01c12303          	lw	t1,28(sp)
40001a34:	d8dff06f          	j	400017c0 <_vfprintf_r+0x1630>
40001a38:	80000eb7          	lui	t4,0x80000
40001a3c:	01d7cbb3          	xor	s7,a5,t4
40001a40:	02d00b13          	li	s6,45
40001a44:	aa5ff06f          	j	400014e8 <_vfprintf_r+0x1358>
40001a48:	04012703          	lw	a4,64(sp)
40001a4c:	03412783          	lw	a5,52(sp)
40001a50:	00e787b3          	add	a5,a5,a4
40001a54:	03012703          	lw	a4,48(sp)
40001a58:	00f12e23          	sw	a5,28(sp)
40001a5c:	1ce05e63          	blez	a4,40001c38 <_vfprintf_r+0x1aa8>
40001a60:	00078b93          	mv	s7,a5
40001a64:	0207c263          	bltz	a5,40001a88 <_vfprintf_r+0x18f8>
40001a68:	06700993          	li	s3,103
40001a6c:	b8dff06f          	j	400015f8 <_vfprintf_r+0x1468>
40001a70:	03012783          	lw	a5,48(sp)
40001a74:	04012703          	lw	a4,64(sp)
40001a78:	00e787b3          	add	a5,a5,a4
40001a7c:	00f12e23          	sw	a5,28(sp)
40001a80:	00078b93          	mv	s7,a5
40001a84:	fe07d2e3          	bgez	a5,40001a68 <_vfprintf_r+0x18d8>
40001a88:	00000b93          	li	s7,0
40001a8c:	06700993          	li	s3,103
40001a90:	b69ff06f          	j	400015f8 <_vfprintf_r+0x1468>
40001a94:	08412783          	lw	a5,132(sp)
40001a98:	02f12823          	sw	a5,48(sp)
40001a9c:	1ef05a63          	blez	a5,40001c90 <_vfprintf_r+0x1b00>
40001aa0:	160c9a63          	bnez	s9,40001c14 <_vfprintf_r+0x1a84>
40001aa4:	001dfd93          	andi	s11,s11,1
40001aa8:	160d9663          	bnez	s11,40001c14 <_vfprintf_r+0x1a84>
40001aac:	00078b93          	mv	s7,a5
40001ab0:	00f12e23          	sw	a5,28(sp)
40001ab4:	b45ff06f          	j	400015f8 <_vfprintf_r+0x1468>
40001ab8:	04700793          	li	a5,71
40001abc:	01e50d33          	add	s10,a0,t5
40001ac0:	a8f99ee3          	bne	s3,a5,4000155c <_vfprintf_r+0x13cc>
40001ac4:	001df793          	andi	a5,s11,1
40001ac8:	ce0796e3          	bnez	a5,400017b4 <_vfprintf_r+0x1624>
40001acc:	09412783          	lw	a5,148(sp)
40001ad0:	412787b3          	sub	a5,a5,s2
40001ad4:	02f12a23          	sw	a5,52(sp)
40001ad8:	01412783          	lw	a5,20(sp)
40001adc:	db378ce3          	beq	a5,s3,40001894 <_vfprintf_r+0x1704>
40001ae0:	08412783          	lw	a5,132(sp)
40001ae4:	02f12823          	sw	a5,48(sp)
40001ae8:	dc9ff06f          	j	400018b0 <_vfprintf_r+0x1720>
40001aec:	000c8b93          	mv	s7,s9
40001af0:	01912e23          	sw	s9,28(sp)
40001af4:	ad8ff06f          	j	40000dcc <_vfprintf_r+0xc3c>
40001af8:	ff000613          	li	a2,-16
40001afc:	40d009b3          	neg	s3,a3
40001b00:	06c6d463          	ble	a2,a3,40001b68 <_vfprintf_r+0x19d8>
40001b04:	4000b6b7          	lui	a3,0x4000b
40001b08:	79068b13          	addi	s6,a3,1936 # 4000b790 <zeroes.4139>
40001b0c:	01000c93          	li	s9,16
40001b10:	00700d13          	li	s10,7
40001b14:	00c0006f          	j	40001b20 <_vfprintf_r+0x1990>
40001b18:	ff098993          	addi	s3,s3,-16
40001b1c:	053cda63          	ble	s3,s9,40001b70 <_vfprintf_r+0x19e0>
40001b20:	01078793          	addi	a5,a5,16
40001b24:	00170713          	addi	a4,a4,1
40001b28:	01632023          	sw	s6,0(t1)
40001b2c:	01932223          	sw	s9,4(t1)
40001b30:	0af12223          	sw	a5,164(sp)
40001b34:	0ae12023          	sw	a4,160(sp)
40001b38:	00830313          	addi	t1,t1,8
40001b3c:	fced5ee3          	ble	a4,s10,40001b18 <_vfprintf_r+0x1988>
40001b40:	09c10613          	addi	a2,sp,156
40001b44:	000a0593          	mv	a1,s4
40001b48:	000a8513          	mv	a0,s5
40001b4c:	151040ef          	jal	ra,4000649c <__sprint_r>
40001b50:	00050463          	beqz	a0,40001b58 <_vfprintf_r+0x19c8>
40001b54:	d09fe06f          	j	4000085c <_vfprintf_r+0x6cc>
40001b58:	0a412783          	lw	a5,164(sp)
40001b5c:	0a012703          	lw	a4,160(sp)
40001b60:	000c0313          	mv	t1,s8
40001b64:	fb5ff06f          	j	40001b18 <_vfprintf_r+0x1988>
40001b68:	4000b6b7          	lui	a3,0x4000b
40001b6c:	79068b13          	addi	s6,a3,1936 # 4000b790 <zeroes.4139>
40001b70:	013787b3          	add	a5,a5,s3
40001b74:	00170713          	addi	a4,a4,1
40001b78:	01632023          	sw	s6,0(t1)
40001b7c:	01332223          	sw	s3,4(t1)
40001b80:	0af12223          	sw	a5,164(sp)
40001b84:	0ae12023          	sw	a4,160(sp)
40001b88:	00700693          	li	a3,7
40001b8c:	00830313          	addi	t1,t1,8
40001b90:	b4e6d4e3          	ble	a4,a3,400016d8 <_vfprintf_r+0x1548>
40001b94:	09c10613          	addi	a2,sp,156
40001b98:	000a0593          	mv	a1,s4
40001b9c:	000a8513          	mv	a0,s5
40001ba0:	0fd040ef          	jal	ra,4000649c <__sprint_r>
40001ba4:	00050463          	beqz	a0,40001bac <_vfprintf_r+0x1a1c>
40001ba8:	cb5fe06f          	j	4000085c <_vfprintf_r+0x6cc>
40001bac:	0a412783          	lw	a5,164(sp)
40001bb0:	0a012703          	lw	a4,160(sp)
40001bb4:	000c0313          	mv	t1,s8
40001bb8:	b21ff06f          	j	400016d8 <_vfprintf_r+0x1548>
40001bbc:	09412783          	lw	a5,148(sp)
40001bc0:	9e5ff06f          	j	400015a4 <_vfprintf_r+0x1414>
40001bc4:	03078793          	addi	a5,a5,48
40001bc8:	03000713          	li	a4,48
40001bcc:	08f107a3          	sb	a5,143(sp)
40001bd0:	08e10723          	sb	a4,142(sp)
40001bd4:	09010793          	addi	a5,sp,144
40001bd8:	d69ff06f          	j	40001940 <_vfprintf_r+0x17b0>
40001bdc:	04700793          	li	a5,71
40001be0:	0b37c263          	blt	a5,s3,40001c84 <_vfprintf_r+0x1af4>
40001be4:	4000b937          	lui	s2,0x4000b
40001be8:	7a890913          	addi	s2,s2,1960 # 4000b7a8 <zeroes.4139+0x18>
40001bec:	07f14603          	lbu	a2,127(sp)
40001bf0:	00300b93          	li	s7,3
40001bf4:	f7fdf793          	andi	a5,s11,-129
40001bf8:	00f12823          	sw	a5,16(sp)
40001bfc:	01712e23          	sw	s7,28(sp)
40001c00:	02012823          	sw	zero,48(sp)
40001c04:	00000c93          	li	s9,0
40001c08:	00061463          	bnez	a2,40001c10 <_vfprintf_r+0x1a80>
40001c0c:	8a5fe06f          	j	400004b0 <_vfprintf_r+0x320>
40001c10:	bb5fe06f          	j	400007c4 <_vfprintf_r+0x634>
40001c14:	03012783          	lw	a5,48(sp)
40001c18:	04012703          	lw	a4,64(sp)
40001c1c:	00e787b3          	add	a5,a5,a4
40001c20:	019787b3          	add	a5,a5,s9
40001c24:	00f12e23          	sw	a5,28(sp)
40001c28:	00078b93          	mv	s7,a5
40001c2c:	9c07d6e3          	bgez	a5,400015f8 <_vfprintf_r+0x1468>
40001c30:	00000b93          	li	s7,0
40001c34:	9c5ff06f          	j	400015f8 <_vfprintf_r+0x1468>
40001c38:	01c12783          	lw	a5,28(sp)
40001c3c:	03012703          	lw	a4,48(sp)
40001c40:	40e78cb3          	sub	s9,a5,a4
40001c44:	001c8793          	addi	a5,s9,1
40001c48:	00f12e23          	sw	a5,28(sp)
40001c4c:	e15ff06f          	j	40001a60 <_vfprintf_r+0x18d0>
40001c50:	00fdf7b3          	and	a5,s11,a5
40001c54:	02f12823          	sw	a5,48(sp)
40001c58:	d00796e3          	bnez	a5,40001964 <_vfprintf_r+0x17d4>
40001c5c:	00070b93          	mv	s7,a4
40001c60:	98075ce3          	bgez	a4,400015f8 <_vfprintf_r+0x1468>
40001c64:	00000b93          	li	s7,0
40001c68:	991ff06f          	j	400015f8 <_vfprintf_r+0x1468>
40001c6c:	03012703          	lw	a4,48(sp)
40001c70:	00100793          	li	a5,1
40001c74:	40e787b3          	sub	a5,a5,a4
40001c78:	02d00713          	li	a4,45
40001c7c:	08e106a3          	sb	a4,141(sp)
40001c80:	c4dff06f          	j	400018cc <_vfprintf_r+0x173c>
40001c84:	4000b937          	lui	s2,0x4000b
40001c88:	7ac90913          	addi	s2,s2,1964 # 4000b7ac <zeroes.4139+0x1c>
40001c8c:	f61ff06f          	j	40001bec <_vfprintf_r+0x1a5c>
40001c90:	000c9a63          	bnez	s9,40001ca4 <_vfprintf_r+0x1b14>
40001c94:	00100b93          	li	s7,1
40001c98:	017dfdb3          	and	s11,s11,s7
40001c9c:	01712e23          	sw	s7,28(sp)
40001ca0:	940d8ce3          	beqz	s11,400015f8 <_vfprintf_r+0x1468>
40001ca4:	04012783          	lw	a5,64(sp)
40001ca8:	00178793          	addi	a5,a5,1
40001cac:	019787b3          	add	a5,a5,s9
40001cb0:	00f12e23          	sw	a5,28(sp)
40001cb4:	00078b93          	mv	s7,a5
40001cb8:	9407d0e3          	bgez	a5,400015f8 <_vfprintf_r+0x1468>
40001cbc:	00000b93          	li	s7,0
40001cc0:	939ff06f          	j	400015f8 <_vfprintf_r+0x1468>
40001cc4:	02012783          	lw	a5,32(sp)
40001cc8:	0007ac83          	lw	s9,0(a5)
40001ccc:	00478793          	addi	a5,a5,4
40001cd0:	000cce63          	bltz	s9,40001cec <_vfprintf_r+0x1b5c>
40001cd4:	02f12023          	sw	a5,32(sp)
40001cd8:	e7cfe06f          	j	40000354 <_vfprintf_r+0x1c4>
40001cdc:	00000b93          	li	s7,0
40001ce0:	90dff06f          	j	400015ec <_vfprintf_r+0x145c>
40001ce4:	08e10793          	addi	a5,sp,142
40001ce8:	c59ff06f          	j	40001940 <_vfprintf_r+0x17b0>
40001cec:	000f0c93          	mv	s9,t5
40001cf0:	02f12023          	sw	a5,32(sp)
40001cf4:	e60fe06f          	j	40000354 <_vfprintf_r+0x1c4>
40001cf8:	06b10fa3          	sb	a1,127(sp)
40001cfc:	85cff06f          	j	40000d58 <_vfprintf_r+0xbc8>
40001d00:	06b10fa3          	sb	a1,127(sp)
40001d04:	920ff06f          	j	40000e24 <_vfprintf_r+0xc94>
40001d08:	06b10fa3          	sb	a1,127(sp)
40001d0c:	8e0ff06f          	j	40000dec <_vfprintf_r+0xc5c>
40001d10:	06b10fa3          	sb	a1,127(sp)
40001d14:	bc0ff06f          	j	400010d4 <_vfprintf_r+0xf44>
40001d18:	06b10fa3          	sb	a1,127(sp)
40001d1c:	b30ff06f          	j	4000104c <_vfprintf_r+0xebc>
40001d20:	06b10fa3          	sb	a1,127(sp)
40001d24:	ad4ff06f          	j	40000ff8 <_vfprintf_r+0xe68>

40001d28 <vfprintf>:
40001d28:	4000c7b7          	lui	a5,0x4000c
40001d2c:	00060693          	mv	a3,a2
40001d30:	00058613          	mv	a2,a1
40001d34:	00050593          	mv	a1,a0
40001d38:	62c7a503          	lw	a0,1580(a5) # 4000c62c <_impure_ptr>
40001d3c:	c54fe06f          	j	40000190 <_vfprintf_r>

40001d40 <__sbprintf>:
40001d40:	00c5d783          	lhu	a5,12(a1)
40001d44:	0645ae03          	lw	t3,100(a1)
40001d48:	00e5d303          	lhu	t1,14(a1)
40001d4c:	01c5a883          	lw	a7,28(a1)
40001d50:	0245a803          	lw	a6,36(a1)
40001d54:	b8010113          	addi	sp,sp,-1152
40001d58:	ffd7f793          	andi	a5,a5,-3
40001d5c:	40000713          	li	a4,1024
40001d60:	46812c23          	sw	s0,1144(sp)
40001d64:	00f11a23          	sh	a5,20(sp)
40001d68:	00058413          	mv	s0,a1
40001d6c:	07010793          	addi	a5,sp,112
40001d70:	00810593          	addi	a1,sp,8
40001d74:	46912a23          	sw	s1,1140(sp)
40001d78:	47212823          	sw	s2,1136(sp)
40001d7c:	46112e23          	sw	ra,1148(sp)
40001d80:	00050913          	mv	s2,a0
40001d84:	07c12623          	sw	t3,108(sp)
40001d88:	00611b23          	sh	t1,22(sp)
40001d8c:	03112223          	sw	a7,36(sp)
40001d90:	03012623          	sw	a6,44(sp)
40001d94:	00f12423          	sw	a5,8(sp)
40001d98:	00f12c23          	sw	a5,24(sp)
40001d9c:	00e12823          	sw	a4,16(sp)
40001da0:	00e12e23          	sw	a4,28(sp)
40001da4:	02012023          	sw	zero,32(sp)
40001da8:	be8fe0ef          	jal	ra,40000190 <_vfprintf_r>
40001dac:	00050493          	mv	s1,a0
40001db0:	00054a63          	bltz	a0,40001dc4 <__sbprintf+0x84>
40001db4:	00810593          	addi	a1,sp,8
40001db8:	00090513          	mv	a0,s2
40001dbc:	381010ef          	jal	ra,4000393c <_fflush_r>
40001dc0:	02051c63          	bnez	a0,40001df8 <__sbprintf+0xb8>
40001dc4:	01415783          	lhu	a5,20(sp)
40001dc8:	0407f793          	andi	a5,a5,64
40001dcc:	00078863          	beqz	a5,40001ddc <__sbprintf+0x9c>
40001dd0:	00c45783          	lhu	a5,12(s0)
40001dd4:	0407e793          	ori	a5,a5,64
40001dd8:	00f41623          	sh	a5,12(s0)
40001ddc:	47c12083          	lw	ra,1148(sp)
40001de0:	00048513          	mv	a0,s1
40001de4:	47812403          	lw	s0,1144(sp)
40001de8:	47412483          	lw	s1,1140(sp)
40001dec:	47012903          	lw	s2,1136(sp)
40001df0:	48010113          	addi	sp,sp,1152
40001df4:	00008067          	ret
40001df8:	fff00493          	li	s1,-1
40001dfc:	fc9ff06f          	j	40001dc4 <__sbprintf+0x84>

40001e00 <__swsetup_r>:
40001e00:	4000c7b7          	lui	a5,0x4000c
40001e04:	62c7a783          	lw	a5,1580(a5) # 4000c62c <_impure_ptr>
40001e08:	ff010113          	addi	sp,sp,-16
40001e0c:	00812423          	sw	s0,8(sp)
40001e10:	00912223          	sw	s1,4(sp)
40001e14:	00112623          	sw	ra,12(sp)
40001e18:	00050493          	mv	s1,a0
40001e1c:	00058413          	mv	s0,a1
40001e20:	00078663          	beqz	a5,40001e2c <__swsetup_r+0x2c>
40001e24:	0387a703          	lw	a4,56(a5)
40001e28:	0c070c63          	beqz	a4,40001f00 <__swsetup_r+0x100>
40001e2c:	00c41703          	lh	a4,12(s0)
40001e30:	01071793          	slli	a5,a4,0x10
40001e34:	0107d793          	srli	a5,a5,0x10
40001e38:	0087f693          	andi	a3,a5,8
40001e3c:	04068063          	beqz	a3,40001e7c <__swsetup_r+0x7c>
40001e40:	01042683          	lw	a3,16(s0)
40001e44:	06068063          	beqz	a3,40001ea4 <__swsetup_r+0xa4>
40001e48:	0017f713          	andi	a4,a5,1
40001e4c:	06070e63          	beqz	a4,40001ec8 <__swsetup_r+0xc8>
40001e50:	01442783          	lw	a5,20(s0)
40001e54:	00042423          	sw	zero,8(s0)
40001e58:	00000513          	li	a0,0
40001e5c:	40f007b3          	neg	a5,a5
40001e60:	00f42c23          	sw	a5,24(s0)
40001e64:	08068063          	beqz	a3,40001ee4 <__swsetup_r+0xe4>
40001e68:	00c12083          	lw	ra,12(sp)
40001e6c:	00812403          	lw	s0,8(sp)
40001e70:	00412483          	lw	s1,4(sp)
40001e74:	01010113          	addi	sp,sp,16
40001e78:	00008067          	ret
40001e7c:	0107f693          	andi	a3,a5,16
40001e80:	0c068063          	beqz	a3,40001f40 <__swsetup_r+0x140>
40001e84:	0047f793          	andi	a5,a5,4
40001e88:	08079263          	bnez	a5,40001f0c <__swsetup_r+0x10c>
40001e8c:	01042683          	lw	a3,16(s0)
40001e90:	00876793          	ori	a5,a4,8
40001e94:	00f41623          	sh	a5,12(s0)
40001e98:	01079793          	slli	a5,a5,0x10
40001e9c:	0107d793          	srli	a5,a5,0x10
40001ea0:	fa0694e3          	bnez	a3,40001e48 <__swsetup_r+0x48>
40001ea4:	2807f713          	andi	a4,a5,640
40001ea8:	20000613          	li	a2,512
40001eac:	f8c70ee3          	beq	a4,a2,40001e48 <__swsetup_r+0x48>
40001eb0:	00040593          	mv	a1,s0
40001eb4:	00048513          	mv	a0,s1
40001eb8:	5d8020ef          	jal	ra,40004490 <__smakebuf_r>
40001ebc:	00c45783          	lhu	a5,12(s0)
40001ec0:	01042683          	lw	a3,16(s0)
40001ec4:	f85ff06f          	j	40001e48 <__swsetup_r+0x48>
40001ec8:	0027f793          	andi	a5,a5,2
40001ecc:	00000713          	li	a4,0
40001ed0:	00079463          	bnez	a5,40001ed8 <__swsetup_r+0xd8>
40001ed4:	01442703          	lw	a4,20(s0)
40001ed8:	00e42423          	sw	a4,8(s0)
40001edc:	00000513          	li	a0,0
40001ee0:	f80694e3          	bnez	a3,40001e68 <__swsetup_r+0x68>
40001ee4:	00c41783          	lh	a5,12(s0)
40001ee8:	0807f713          	andi	a4,a5,128
40001eec:	f6070ee3          	beqz	a4,40001e68 <__swsetup_r+0x68>
40001ef0:	0407e793          	ori	a5,a5,64
40001ef4:	00f41623          	sh	a5,12(s0)
40001ef8:	fff00513          	li	a0,-1
40001efc:	f6dff06f          	j	40001e68 <__swsetup_r+0x68>
40001f00:	00078513          	mv	a0,a5
40001f04:	5fd010ef          	jal	ra,40003d00 <__sinit>
40001f08:	f25ff06f          	j	40001e2c <__swsetup_r+0x2c>
40001f0c:	03042583          	lw	a1,48(s0)
40001f10:	00058e63          	beqz	a1,40001f2c <__swsetup_r+0x12c>
40001f14:	04040793          	addi	a5,s0,64
40001f18:	00f58863          	beq	a1,a5,40001f28 <__swsetup_r+0x128>
40001f1c:	00048513          	mv	a0,s1
40001f20:	765010ef          	jal	ra,40003e84 <_free_r>
40001f24:	00c41703          	lh	a4,12(s0)
40001f28:	02042823          	sw	zero,48(s0)
40001f2c:	01042683          	lw	a3,16(s0)
40001f30:	fdb77713          	andi	a4,a4,-37
40001f34:	00042223          	sw	zero,4(s0)
40001f38:	00d42023          	sw	a3,0(s0)
40001f3c:	f55ff06f          	j	40001e90 <__swsetup_r+0x90>
40001f40:	00900793          	li	a5,9
40001f44:	00f4a023          	sw	a5,0(s1)
40001f48:	04076713          	ori	a4,a4,64
40001f4c:	00e41623          	sh	a4,12(s0)
40001f50:	fff00513          	li	a0,-1
40001f54:	f15ff06f          	j	40001e68 <__swsetup_r+0x68>

40001f58 <quorem>:
40001f58:	fe010113          	addi	sp,sp,-32
40001f5c:	01212823          	sw	s2,16(sp)
40001f60:	01052783          	lw	a5,16(a0)
40001f64:	0105a903          	lw	s2,16(a1)
40001f68:	00112e23          	sw	ra,28(sp)
40001f6c:	00812c23          	sw	s0,24(sp)
40001f70:	00912a23          	sw	s1,20(sp)
40001f74:	01312623          	sw	s3,12(sp)
40001f78:	01412423          	sw	s4,8(sp)
40001f7c:	01512223          	sw	s5,4(sp)
40001f80:	1b27cc63          	blt	a5,s2,40002138 <quorem+0x1e0>
40001f84:	fff90913          	addi	s2,s2,-1
40001f88:	00291e93          	slli	t4,s2,0x2
40001f8c:	01458413          	addi	s0,a1,20
40001f90:	01d409b3          	add	s3,s0,t4
40001f94:	01450a13          	addi	s4,a0,20
40001f98:	01da0eb3          	add	t4,s4,t4
40001f9c:	0009a783          	lw	a5,0(s3)
40001fa0:	000ea483          	lw	s1,0(t4) # 80000000 <_bss_end+0x3fff3978>
40001fa4:	00178793          	addi	a5,a5,1
40001fa8:	02f4d4b3          	divu	s1,s1,a5
40001fac:	0a048e63          	beqz	s1,40002068 <quorem+0x110>
40001fb0:	000108b7          	lui	a7,0x10
40001fb4:	00040e13          	mv	t3,s0
40001fb8:	000a0313          	mv	t1,s4
40001fbc:	00000f13          	li	t5,0
40001fc0:	00000793          	li	a5,0
40001fc4:	fff88893          	addi	a7,a7,-1 # ffff <_heap_size+0xdfff>
40001fc8:	004e0e13          	addi	t3,t3,4
40001fcc:	ffce2603          	lw	a2,-4(t3)
40001fd0:	00032703          	lw	a4,0(t1)
40001fd4:	00430313          	addi	t1,t1,4
40001fd8:	01167833          	and	a6,a2,a7
40001fdc:	02980833          	mul	a6,a6,s1
40001fe0:	01065693          	srli	a3,a2,0x10
40001fe4:	01177fb3          	and	t6,a4,a7
40001fe8:	01075713          	srli	a4,a4,0x10
40001fec:	029686b3          	mul	a3,a3,s1
40001ff0:	01e80833          	add	a6,a6,t5
40001ff4:	01085f13          	srli	t5,a6,0x10
40001ff8:	01187633          	and	a2,a6,a7
40001ffc:	40c787b3          	sub	a5,a5,a2
40002000:	01f78633          	add	a2,a5,t6
40002004:	41065813          	srai	a6,a2,0x10
40002008:	01167633          	and	a2,a2,a7
4000200c:	01e686b3          	add	a3,a3,t5
40002010:	0116f7b3          	and	a5,a3,a7
40002014:	40f707b3          	sub	a5,a4,a5
40002018:	010787b3          	add	a5,a5,a6
4000201c:	01079713          	slli	a4,a5,0x10
40002020:	00c76633          	or	a2,a4,a2
40002024:	fec32e23          	sw	a2,-4(t1)
40002028:	0106df13          	srli	t5,a3,0x10
4000202c:	4107d793          	srai	a5,a5,0x10
40002030:	f9c9fce3          	bleu	t3,s3,40001fc8 <quorem+0x70>
40002034:	000ea783          	lw	a5,0(t4)
40002038:	02079863          	bnez	a5,40002068 <quorem+0x110>
4000203c:	ffce8793          	addi	a5,t4,-4
40002040:	02fa7263          	bleu	a5,s4,40002064 <quorem+0x10c>
40002044:	ffcea703          	lw	a4,-4(t4)
40002048:	00070863          	beqz	a4,40002058 <quorem+0x100>
4000204c:	0180006f          	j	40002064 <quorem+0x10c>
40002050:	0007a703          	lw	a4,0(a5)
40002054:	00071863          	bnez	a4,40002064 <quorem+0x10c>
40002058:	ffc78793          	addi	a5,a5,-4
4000205c:	fff90913          	addi	s2,s2,-1
40002060:	fefa68e3          	bltu	s4,a5,40002050 <quorem+0xf8>
40002064:	01252823          	sw	s2,16(a0)
40002068:	00050a93          	mv	s5,a0
4000206c:	015030ef          	jal	ra,40005880 <__mcmp>
40002070:	0a054063          	bltz	a0,40002110 <quorem+0x1b8>
40002074:	00010837          	lui	a6,0x10
40002078:	00148493          	addi	s1,s1,1
4000207c:	000a0593          	mv	a1,s4
40002080:	00000793          	li	a5,0
40002084:	fff80813          	addi	a6,a6,-1 # ffff <_heap_size+0xdfff>
40002088:	00440413          	addi	s0,s0,4
4000208c:	ffc42603          	lw	a2,-4(s0)
40002090:	0005a703          	lw	a4,0(a1)
40002094:	00458593          	addi	a1,a1,4
40002098:	010676b3          	and	a3,a2,a6
4000209c:	40d787b3          	sub	a5,a5,a3
400020a0:	010776b3          	and	a3,a4,a6
400020a4:	00d786b3          	add	a3,a5,a3
400020a8:	01065613          	srli	a2,a2,0x10
400020ac:	01075793          	srli	a5,a4,0x10
400020b0:	40c787b3          	sub	a5,a5,a2
400020b4:	4106d713          	srai	a4,a3,0x10
400020b8:	00e787b3          	add	a5,a5,a4
400020bc:	01079713          	slli	a4,a5,0x10
400020c0:	0106f6b3          	and	a3,a3,a6
400020c4:	00d766b3          	or	a3,a4,a3
400020c8:	fed5ae23          	sw	a3,-4(a1)
400020cc:	4107d793          	srai	a5,a5,0x10
400020d0:	fa89fce3          	bleu	s0,s3,40002088 <quorem+0x130>
400020d4:	00291713          	slli	a4,s2,0x2
400020d8:	00ea0733          	add	a4,s4,a4
400020dc:	00072783          	lw	a5,0(a4)
400020e0:	02079863          	bnez	a5,40002110 <quorem+0x1b8>
400020e4:	ffc70793          	addi	a5,a4,-4
400020e8:	02fa7263          	bleu	a5,s4,4000210c <quorem+0x1b4>
400020ec:	ffc72703          	lw	a4,-4(a4)
400020f0:	00070863          	beqz	a4,40002100 <quorem+0x1a8>
400020f4:	0180006f          	j	4000210c <quorem+0x1b4>
400020f8:	0007a703          	lw	a4,0(a5)
400020fc:	00071863          	bnez	a4,4000210c <quorem+0x1b4>
40002100:	ffc78793          	addi	a5,a5,-4
40002104:	fff90913          	addi	s2,s2,-1
40002108:	fefa68e3          	bltu	s4,a5,400020f8 <quorem+0x1a0>
4000210c:	012aa823          	sw	s2,16(s5)
40002110:	00048513          	mv	a0,s1
40002114:	01c12083          	lw	ra,28(sp)
40002118:	01812403          	lw	s0,24(sp)
4000211c:	01412483          	lw	s1,20(sp)
40002120:	01012903          	lw	s2,16(sp)
40002124:	00c12983          	lw	s3,12(sp)
40002128:	00812a03          	lw	s4,8(sp)
4000212c:	00412a83          	lw	s5,4(sp)
40002130:	02010113          	addi	sp,sp,32
40002134:	00008067          	ret
40002138:	00000513          	li	a0,0
4000213c:	fd9ff06f          	j	40002114 <quorem+0x1bc>

40002140 <_dtoa_r>:
40002140:	04052303          	lw	t1,64(a0)
40002144:	f4010113          	addi	sp,sp,-192
40002148:	0a812c23          	sw	s0,184(sp)
4000214c:	0a912a23          	sw	s1,180(sp)
40002150:	0b212823          	sw	s2,176(sp)
40002154:	0b312623          	sw	s3,172(sp)
40002158:	0b412423          	sw	s4,168(sp)
4000215c:	0b612023          	sw	s6,160(sp)
40002160:	09912a23          	sw	s9,148(sp)
40002164:	09b12623          	sw	s11,140(sp)
40002168:	0a112e23          	sw	ra,188(sp)
4000216c:	0b512223          	sw	s5,164(sp)
40002170:	09712e23          	sw	s7,156(sp)
40002174:	09812c23          	sw	s8,152(sp)
40002178:	09a12823          	sw	s10,144(sp)
4000217c:	01012623          	sw	a6,12(sp)
40002180:	00050d93          	mv	s11,a0
40002184:	00060493          	mv	s1,a2
40002188:	00068913          	mv	s2,a3
4000218c:	00070c93          	mv	s9,a4
40002190:	00078b13          	mv	s6,a5
40002194:	00088993          	mv	s3,a7
40002198:	00060a13          	mv	s4,a2
4000219c:	00068413          	mv	s0,a3
400021a0:	02030263          	beqz	t1,400021c4 <_dtoa_r+0x84>
400021a4:	04452703          	lw	a4,68(a0)
400021a8:	00100793          	li	a5,1
400021ac:	00030593          	mv	a1,t1
400021b0:	00e797b3          	sll	a5,a5,a4
400021b4:	00e32223          	sw	a4,4(t1)
400021b8:	00f32423          	sw	a5,8(t1)
400021bc:	6a9020ef          	jal	ra,40005064 <_Bfree>
400021c0:	040da023          	sw	zero,64(s11)
400021c4:	00090a93          	mv	s5,s2
400021c8:	0e044863          	bltz	s0,400022b8 <_dtoa_r+0x178>
400021cc:	0009a023          	sw	zero,0(s3)
400021d0:	7ff007b7          	lui	a5,0x7ff00
400021d4:	00faf733          	and	a4,s5,a5
400021d8:	08f70263          	beq	a4,a5,4000225c <_dtoa_r+0x11c>
400021dc:	00048513          	mv	a0,s1
400021e0:	00040593          	mv	a1,s0
400021e4:	00000613          	li	a2,0
400021e8:	00000693          	li	a3,0
400021ec:	239070ef          	jal	ra,40009c24 <__eqdf2>
400021f0:	0e051263          	bnez	a0,400022d4 <_dtoa_r+0x194>
400021f4:	00c12703          	lw	a4,12(sp)
400021f8:	00100793          	li	a5,1
400021fc:	00f72023          	sw	a5,0(a4)
40002200:	0c012783          	lw	a5,192(sp)
40002204:	6a078263          	beqz	a5,400028a8 <_dtoa_r+0x768>
40002208:	0c012703          	lw	a4,192(sp)
4000220c:	4000b7b7          	lui	a5,0x4000b
40002210:	7e178793          	addi	a5,a5,2017 # 4000b7e1 <zeroes.4139+0x51>
40002214:	4000b537          	lui	a0,0x4000b
40002218:	00f72023          	sw	a5,0(a4)
4000221c:	7e050513          	addi	a0,a0,2016 # 4000b7e0 <zeroes.4139+0x50>
40002220:	0bc12083          	lw	ra,188(sp)
40002224:	0b812403          	lw	s0,184(sp)
40002228:	0b412483          	lw	s1,180(sp)
4000222c:	0b012903          	lw	s2,176(sp)
40002230:	0ac12983          	lw	s3,172(sp)
40002234:	0a812a03          	lw	s4,168(sp)
40002238:	0a412a83          	lw	s5,164(sp)
4000223c:	0a012b03          	lw	s6,160(sp)
40002240:	09c12b83          	lw	s7,156(sp)
40002244:	09812c03          	lw	s8,152(sp)
40002248:	09412c83          	lw	s9,148(sp)
4000224c:	09012d03          	lw	s10,144(sp)
40002250:	08c12d83          	lw	s11,140(sp)
40002254:	0c010113          	addi	sp,sp,192
40002258:	00008067          	ret
4000225c:	00c12703          	lw	a4,12(sp)
40002260:	000027b7          	lui	a5,0x2
40002264:	70f78793          	addi	a5,a5,1807 # 270f <_heap_size+0x70f>
40002268:	00f72023          	sw	a5,0(a4)
4000226c:	020a1863          	bnez	s4,4000229c <_dtoa_r+0x15c>
40002270:	00ca9793          	slli	a5,s5,0xc
40002274:	02079463          	bnez	a5,4000229c <_dtoa_r+0x15c>
40002278:	0c012783          	lw	a5,192(sp)
4000227c:	4000b537          	lui	a0,0x4000b
40002280:	7e450513          	addi	a0,a0,2020 # 4000b7e4 <zeroes.4139+0x54>
40002284:	f8078ee3          	beqz	a5,40002220 <_dtoa_r+0xe0>
40002288:	4000b7b7          	lui	a5,0x4000b
4000228c:	7ec78793          	addi	a5,a5,2028 # 4000b7ec <zeroes.4139+0x5c>
40002290:	0c012703          	lw	a4,192(sp)
40002294:	00f72023          	sw	a5,0(a4)
40002298:	f89ff06f          	j	40002220 <_dtoa_r+0xe0>
4000229c:	0c012783          	lw	a5,192(sp)
400022a0:	4000b537          	lui	a0,0x4000b
400022a4:	7f050513          	addi	a0,a0,2032 # 4000b7f0 <zeroes.4139+0x60>
400022a8:	f6078ce3          	beqz	a5,40002220 <_dtoa_r+0xe0>
400022ac:	4000b7b7          	lui	a5,0x4000b
400022b0:	7f378793          	addi	a5,a5,2035 # 4000b7f3 <zeroes.4139+0x63>
400022b4:	fddff06f          	j	40002290 <_dtoa_r+0x150>
400022b8:	80000437          	lui	s0,0x80000
400022bc:	fff44413          	not	s0,s0
400022c0:	01247433          	and	s0,s0,s2
400022c4:	00100793          	li	a5,1
400022c8:	00f9a023          	sw	a5,0(s3)
400022cc:	00040a93          	mv	s5,s0
400022d0:	f01ff06f          	j	400021d0 <_dtoa_r+0x90>
400022d4:	00048613          	mv	a2,s1
400022d8:	00040693          	mv	a3,s0
400022dc:	07810793          	addi	a5,sp,120
400022e0:	07c10713          	addi	a4,sp,124
400022e4:	000d8513          	mv	a0,s11
400022e8:	185030ef          	jal	ra,40005c6c <__d2b>
400022ec:	014ad913          	srli	s2,s5,0x14
400022f0:	00050d13          	mv	s10,a0
400022f4:	56090463          	beqz	s2,4000285c <_dtoa_r+0x71c>
400022f8:	001005b7          	lui	a1,0x100
400022fc:	fff58593          	addi	a1,a1,-1 # fffff <_heap_size+0xfdfff>
40002300:	07812983          	lw	s3,120(sp)
40002304:	0085f5b3          	and	a1,a1,s0
40002308:	3ff00bb7          	lui	s7,0x3ff00
4000230c:	00048793          	mv	a5,s1
40002310:	0175e5b3          	or	a1,a1,s7
40002314:	c0190913          	addi	s2,s2,-1023
40002318:	00000a93          	li	s5,0
4000231c:	4000c737          	lui	a4,0x4000c
40002320:	c4072603          	lw	a2,-960(a4) # 4000bc40 <__clz_tab+0x10c>
40002324:	c4472683          	lw	a3,-956(a4)
40002328:	00078513          	mv	a0,a5
4000232c:	25c080ef          	jal	ra,4000a588 <__subdf3>
40002330:	4000c7b7          	lui	a5,0x4000c
40002334:	c487a603          	lw	a2,-952(a5) # 4000bc48 <__clz_tab+0x114>
40002338:	c4c7a683          	lw	a3,-948(a5)
4000233c:	37d070ef          	jal	ra,40009eb8 <__muldf3>
40002340:	4000c7b7          	lui	a5,0x4000c
40002344:	c507a603          	lw	a2,-944(a5) # 4000bc50 <__clz_tab+0x11c>
40002348:	c547a683          	lw	a3,-940(a5)
4000234c:	750060ef          	jal	ra,40008a9c <__adddf3>
40002350:	00a12823          	sw	a0,16(sp)
40002354:	00090513          	mv	a0,s2
40002358:	00b12a23          	sw	a1,20(sp)
4000235c:	485080ef          	jal	ra,4000afe0 <__floatsidf>
40002360:	4000c7b7          	lui	a5,0x4000c
40002364:	c587a603          	lw	a2,-936(a5) # 4000bc58 <__clz_tab+0x124>
40002368:	c5c7a683          	lw	a3,-932(a5)
4000236c:	34d070ef          	jal	ra,40009eb8 <__muldf3>
40002370:	01012803          	lw	a6,16(sp)
40002374:	01412883          	lw	a7,20(sp)
40002378:	00050613          	mv	a2,a0
4000237c:	00058693          	mv	a3,a1
40002380:	00080513          	mv	a0,a6
40002384:	00088593          	mv	a1,a7
40002388:	714060ef          	jal	ra,40008a9c <__adddf3>
4000238c:	00b12e23          	sw	a1,28(sp)
40002390:	00a12c23          	sw	a0,24(sp)
40002394:	3c9080ef          	jal	ra,4000af5c <__fixdfsi>
40002398:	00a12823          	sw	a0,16(sp)
4000239c:	01c12583          	lw	a1,28(sp)
400023a0:	01812503          	lw	a0,24(sp)
400023a4:	00000613          	li	a2,0
400023a8:	00000693          	li	a3,0
400023ac:	209070ef          	jal	ra,40009db4 <__ledf2>
400023b0:	02054ee3          	bltz	a0,40002bec <_dtoa_r+0xaac>
400023b4:	01012b83          	lw	s7,16(sp)
400023b8:	00100713          	li	a4,1
400023bc:	01600793          	li	a5,22
400023c0:	02e12423          	sw	a4,40(sp)
400023c4:	0377ec63          	bltu	a5,s7,400023fc <_dtoa_r+0x2bc>
400023c8:	4000c737          	lui	a4,0x4000c
400023cc:	003b9793          	slli	a5,s7,0x3
400023d0:	81870713          	addi	a4,a4,-2024 # 4000b818 <__mprec_tens>
400023d4:	00e787b3          	add	a5,a5,a4
400023d8:	0007a503          	lw	a0,0(a5)
400023dc:	0047a583          	lw	a1,4(a5)
400023e0:	00048613          	mv	a2,s1
400023e4:	00040693          	mv	a3,s0
400023e8:	0c9070ef          	jal	ra,40009cb0 <__gedf2>
400023ec:	04a05ee3          	blez	a0,40002c48 <_dtoa_r+0xb08>
400023f0:	fffb8793          	addi	a5,s7,-1 # 3fefffff <_heap_size+0x3fefdfff>
400023f4:	00f12823          	sw	a5,16(sp)
400023f8:	02012423          	sw	zero,40(sp)
400023fc:	41298933          	sub	s2,s3,s2
40002400:	fff90b93          	addi	s7,s2,-1
40002404:	00000c13          	li	s8,0
40002408:	000bcae3          	bltz	s7,40002c1c <_dtoa_r+0xadc>
4000240c:	01012783          	lw	a5,16(sp)
40002410:	7c07c463          	bltz	a5,40002bd8 <_dtoa_r+0xa98>
40002414:	00fb8bb3          	add	s7,s7,a5
40002418:	02f12623          	sw	a5,44(sp)
4000241c:	00000993          	li	s3,0
40002420:	00900793          	li	a5,9
40002424:	4997e863          	bltu	a5,s9,400028b4 <_dtoa_r+0x774>
40002428:	00500793          	li	a5,5
4000242c:	00100913          	li	s2,1
40002430:	0197d663          	ble	s9,a5,4000243c <_dtoa_r+0x2fc>
40002434:	ffcc8c93          	addi	s9,s9,-4
40002438:	00000913          	li	s2,0
4000243c:	00300793          	li	a5,3
40002440:	56fc8ae3          	beq	s9,a5,400031b4 <_dtoa_r+0x1074>
40002444:	4b97dee3          	ble	s9,a5,40003100 <_dtoa_r+0xfc0>
40002448:	00400793          	li	a5,4
4000244c:	34fc86e3          	beq	s9,a5,40002f98 <_dtoa_r+0xe58>
40002450:	00100713          	li	a4,1
40002454:	00500793          	li	a5,5
40002458:	02e12223          	sw	a4,36(sp)
4000245c:	4afc98e3          	bne	s9,a5,4000310c <_dtoa_r+0xfcc>
40002460:	01012783          	lw	a5,16(sp)
40002464:	016787b3          	add	a5,a5,s6
40002468:	02f12c23          	sw	a5,56(sp)
4000246c:	00178793          	addi	a5,a5,1
40002470:	00f12c23          	sw	a5,24(sp)
40002474:	00078613          	mv	a2,a5
40002478:	3ef058e3          	blez	a5,40003068 <_dtoa_r+0xf28>
4000247c:	01812803          	lw	a6,24(sp)
40002480:	040da223          	sw	zero,68(s11)
40002484:	01700793          	li	a5,23
40002488:	00000593          	li	a1,0
4000248c:	02c7f263          	bleu	a2,a5,400024b0 <_dtoa_r+0x370>
40002490:	00100713          	li	a4,1
40002494:	00400793          	li	a5,4
40002498:	00179793          	slli	a5,a5,0x1
4000249c:	01478693          	addi	a3,a5,20
400024a0:	00070593          	mv	a1,a4
400024a4:	00170713          	addi	a4,a4,1
400024a8:	fed678e3          	bleu	a3,a2,40002498 <_dtoa_r+0x358>
400024ac:	04bda223          	sw	a1,68(s11)
400024b0:	000d8513          	mv	a0,s11
400024b4:	03012823          	sw	a6,48(sp)
400024b8:	309020ef          	jal	ra,40004fc0 <_Balloc>
400024bc:	03012803          	lw	a6,48(sp)
400024c0:	02a12023          	sw	a0,32(sp)
400024c4:	04ada023          	sw	a0,64(s11)
400024c8:	00e00793          	li	a5,14
400024cc:	4107ee63          	bltu	a5,a6,400028e8 <_dtoa_r+0x7a8>
400024d0:	40090c63          	beqz	s2,400028e8 <_dtoa_r+0x7a8>
400024d4:	01012703          	lw	a4,16(sp)
400024d8:	02912e23          	sw	s1,60(sp)
400024dc:	04812423          	sw	s0,72(sp)
400024e0:	5ee050e3          	blez	a4,400032c0 <_dtoa_r+0x1180>
400024e4:	00f77793          	andi	a5,a4,15
400024e8:	40475a13          	srai	s4,a4,0x4
400024ec:	4000c737          	lui	a4,0x4000c
400024f0:	81870713          	addi	a4,a4,-2024 # 4000b818 <__mprec_tens>
400024f4:	00379793          	slli	a5,a5,0x3
400024f8:	00e787b3          	add	a5,a5,a4
400024fc:	02912823          	sw	s1,48(sp)
40002500:	010a7713          	andi	a4,s4,16
40002504:	02812a23          	sw	s0,52(sp)
40002508:	0007a803          	lw	a6,0(a5)
4000250c:	0047a883          	lw	a7,4(a5)
40002510:	00200913          	li	s2,2
40002514:	02070e63          	beqz	a4,40002550 <_dtoa_r+0x410>
40002518:	4000c7b7          	lui	a5,0x4000c
4000251c:	9287a603          	lw	a2,-1752(a5) # 4000b928 <__mprec_bigtens+0x20>
40002520:	92c7a683          	lw	a3,-1748(a5)
40002524:	00048513          	mv	a0,s1
40002528:	00040593          	mv	a1,s0
4000252c:	05012023          	sw	a6,64(sp)
40002530:	05112223          	sw	a7,68(sp)
40002534:	6b5060ef          	jal	ra,400093e8 <__divdf3>
40002538:	04012803          	lw	a6,64(sp)
4000253c:	04412883          	lw	a7,68(sp)
40002540:	02a12823          	sw	a0,48(sp)
40002544:	02b12a23          	sw	a1,52(sp)
40002548:	00fa7a13          	andi	s4,s4,15
4000254c:	00300913          	li	s2,3
40002550:	040a0063          	beqz	s4,40002590 <_dtoa_r+0x450>
40002554:	4000c437          	lui	s0,0x4000c
40002558:	90840413          	addi	s0,s0,-1784 # 4000b908 <__mprec_bigtens>
4000255c:	001a7793          	andi	a5,s4,1
40002560:	00080513          	mv	a0,a6
40002564:	401a5a13          	srai	s4,s4,0x1
40002568:	00088593          	mv	a1,a7
4000256c:	00078e63          	beqz	a5,40002588 <_dtoa_r+0x448>
40002570:	00042603          	lw	a2,0(s0)
40002574:	00442683          	lw	a3,4(s0)
40002578:	00190913          	addi	s2,s2,1
4000257c:	13d070ef          	jal	ra,40009eb8 <__muldf3>
40002580:	00050813          	mv	a6,a0
40002584:	00058893          	mv	a7,a1
40002588:	00840413          	addi	s0,s0,8
4000258c:	fc0a18e3          	bnez	s4,4000255c <_dtoa_r+0x41c>
40002590:	03012503          	lw	a0,48(sp)
40002594:	03412583          	lw	a1,52(sp)
40002598:	00080613          	mv	a2,a6
4000259c:	00088693          	mv	a3,a7
400025a0:	649060ef          	jal	ra,400093e8 <__divdf3>
400025a4:	02a12823          	sw	a0,48(sp)
400025a8:	02b12a23          	sw	a1,52(sp)
400025ac:	02812783          	lw	a5,40(sp)
400025b0:	02078263          	beqz	a5,400025d4 <_dtoa_r+0x494>
400025b4:	4000c7b7          	lui	a5,0x4000c
400025b8:	c607a603          	lw	a2,-928(a5) # 4000bc60 <__clz_tab+0x12c>
400025bc:	c647a683          	lw	a3,-924(a5)
400025c0:	03012503          	lw	a0,48(sp)
400025c4:	03412583          	lw	a1,52(sp)
400025c8:	7ec070ef          	jal	ra,40009db4 <__ledf2>
400025cc:	00055463          	bgez	a0,400025d4 <_dtoa_r+0x494>
400025d0:	7910006f          	j	40003560 <_dtoa_r+0x1420>
400025d4:	00090513          	mv	a0,s2
400025d8:	209080ef          	jal	ra,4000afe0 <__floatsidf>
400025dc:	03012603          	lw	a2,48(sp)
400025e0:	03412683          	lw	a3,52(sp)
400025e4:	fcc004b7          	lui	s1,0xfcc00
400025e8:	0d1070ef          	jal	ra,40009eb8 <__muldf3>
400025ec:	4000c7b7          	lui	a5,0x4000c
400025f0:	c707a603          	lw	a2,-912(a5) # 4000bc70 <__clz_tab+0x13c>
400025f4:	c747a683          	lw	a3,-908(a5)
400025f8:	4a4060ef          	jal	ra,40008a9c <__adddf3>
400025fc:	01812783          	lw	a5,24(sp)
40002600:	00050413          	mv	s0,a0
40002604:	00b484b3          	add	s1,s1,a1
40002608:	3e0782e3          	beqz	a5,400031ec <_dtoa_r+0x10ac>
4000260c:	01012783          	lw	a5,16(sp)
40002610:	01812903          	lw	s2,24(sp)
40002614:	04f12623          	sw	a5,76(sp)
40002618:	02412783          	lw	a5,36(sp)
4000261c:	5a0782e3          	beqz	a5,400033c0 <_dtoa_r+0x1280>
40002620:	fff90793          	addi	a5,s2,-1
40002624:	4000c737          	lui	a4,0x4000c
40002628:	81870713          	addi	a4,a4,-2024 # 4000b818 <__mprec_tens>
4000262c:	00379793          	slli	a5,a5,0x3
40002630:	00e787b3          	add	a5,a5,a4
40002634:	0007a603          	lw	a2,0(a5)
40002638:	0047a683          	lw	a3,4(a5)
4000263c:	4000c7b7          	lui	a5,0x4000c
40002640:	c807a503          	lw	a0,-896(a5) # 4000bc80 <__clz_tab+0x14c>
40002644:	c847a583          	lw	a1,-892(a5)
40002648:	02012783          	lw	a5,32(sp)
4000264c:	00178a13          	addi	s4,a5,1
40002650:	599060ef          	jal	ra,400093e8 <__divdf3>
40002654:	00040613          	mv	a2,s0
40002658:	00048693          	mv	a3,s1
4000265c:	72d070ef          	jal	ra,4000a588 <__subdf3>
40002660:	04a12023          	sw	a0,64(sp)
40002664:	04b12223          	sw	a1,68(sp)
40002668:	03012503          	lw	a0,48(sp)
4000266c:	03412583          	lw	a1,52(sp)
40002670:	0ed080ef          	jal	ra,4000af5c <__fixdfsi>
40002674:	00050413          	mv	s0,a0
40002678:	169080ef          	jal	ra,4000afe0 <__floatsidf>
4000267c:	00050613          	mv	a2,a0
40002680:	00058693          	mv	a3,a1
40002684:	03012503          	lw	a0,48(sp)
40002688:	03412583          	lw	a1,52(sp)
4000268c:	6fd070ef          	jal	ra,4000a588 <__subdf3>
40002690:	02012783          	lw	a5,32(sp)
40002694:	00050613          	mv	a2,a0
40002698:	00058693          	mv	a3,a1
4000269c:	03040713          	addi	a4,s0,48
400026a0:	04a12823          	sw	a0,80(sp)
400026a4:	04b12a23          	sw	a1,84(sp)
400026a8:	04012503          	lw	a0,64(sp)
400026ac:	04412583          	lw	a1,68(sp)
400026b0:	0ff77413          	andi	s0,a4,255
400026b4:	00878023          	sb	s0,0(a5)
400026b8:	5f8070ef          	jal	ra,40009cb0 <__gedf2>
400026bc:	16a04263          	bgtz	a0,40002820 <_dtoa_r+0x6e0>
400026c0:	4000c7b7          	lui	a5,0x4000c
400026c4:	05012603          	lw	a2,80(sp)
400026c8:	05412683          	lw	a3,84(sp)
400026cc:	c607a503          	lw	a0,-928(a5) # 4000bc60 <__clz_tab+0x12c>
400026d0:	c647a583          	lw	a1,-924(a5)
400026d4:	02f12823          	sw	a5,48(sp)
400026d8:	6b1070ef          	jal	ra,4000a588 <__subdf3>
400026dc:	04012603          	lw	a2,64(sp)
400026e0:	04412683          	lw	a3,68(sp)
400026e4:	6d0070ef          	jal	ra,40009db4 <__ledf2>
400026e8:	00055463          	bgez	a0,400026f0 <_dtoa_r+0x5b0>
400026ec:	7490006f          	j	40003634 <_dtoa_r+0x14f4>
400026f0:	00100713          	li	a4,1
400026f4:	03012783          	lw	a5,48(sp)
400026f8:	3ae90ee3          	beq	s2,a4,400032b4 <_dtoa_r+0x1174>
400026fc:	4000c4b7          	lui	s1,0x4000c
40002700:	c684a703          	lw	a4,-920(s1) # 4000bc68 <__clz_tab+0x134>
40002704:	c6c4a483          	lw	s1,-916(s1)
40002708:	05812e23          	sw	s8,92(sp)
4000270c:	00070693          	mv	a3,a4
40002710:	c607a703          	lw	a4,-928(a5)
40002714:	c647a783          	lw	a5,-924(a5)
40002718:	07312023          	sw	s3,96(sp)
4000271c:	02e12823          	sw	a4,48(sp)
40002720:	02f12a23          	sw	a5,52(sp)
40002724:	02012783          	lw	a5,32(sp)
40002728:	00068713          	mv	a4,a3
4000272c:	07712223          	sw	s7,100(sp)
40002730:	012787b3          	add	a5,a5,s2
40002734:	07512423          	sw	s5,104(sp)
40002738:	05a12c23          	sw	s10,88(sp)
4000273c:	07912623          	sw	s9,108(sp)
40002740:	04012c03          	lw	s8,64(sp)
40002744:	00068913          	mv	s2,a3
40002748:	05612023          	sw	s6,64(sp)
4000274c:	00078a93          	mv	s5,a5
40002750:	000d8b13          	mv	s6,s11
40002754:	04412c83          	lw	s9,68(sp)
40002758:	05012d03          	lw	s10,80(sp)
4000275c:	05412d83          	lw	s11,84(sp)
40002760:	00070993          	mv	s3,a4
40002764:	00048b93          	mv	s7,s1
40002768:	0280006f          	j	40002790 <_dtoa_r+0x650>
4000276c:	03012503          	lw	a0,48(sp)
40002770:	03412583          	lw	a1,52(sp)
40002774:	615070ef          	jal	ra,4000a588 <__subdf3>
40002778:	000c0613          	mv	a2,s8
4000277c:	000c8693          	mv	a3,s9
40002780:	634070ef          	jal	ra,40009db4 <__ledf2>
40002784:	00055463          	bgez	a0,4000278c <_dtoa_r+0x64c>
40002788:	6a50006f          	j	4000362c <_dtoa_r+0x14ec>
4000278c:	315a04e3          	beq	s4,s5,40003294 <_dtoa_r+0x1154>
40002790:	00098613          	mv	a2,s3
40002794:	00048693          	mv	a3,s1
40002798:	000c0513          	mv	a0,s8
4000279c:	000c8593          	mv	a1,s9
400027a0:	718070ef          	jal	ra,40009eb8 <__muldf3>
400027a4:	00090613          	mv	a2,s2
400027a8:	000b8693          	mv	a3,s7
400027ac:	00050c13          	mv	s8,a0
400027b0:	00058c93          	mv	s9,a1
400027b4:	000d0513          	mv	a0,s10
400027b8:	000d8593          	mv	a1,s11
400027bc:	6fc070ef          	jal	ra,40009eb8 <__muldf3>
400027c0:	00058d93          	mv	s11,a1
400027c4:	00050d13          	mv	s10,a0
400027c8:	794080ef          	jal	ra,4000af5c <__fixdfsi>
400027cc:	00050413          	mv	s0,a0
400027d0:	011080ef          	jal	ra,4000afe0 <__floatsidf>
400027d4:	00050613          	mv	a2,a0
400027d8:	00058693          	mv	a3,a1
400027dc:	000d0513          	mv	a0,s10
400027e0:	000d8593          	mv	a1,s11
400027e4:	03040413          	addi	s0,s0,48
400027e8:	5a1070ef          	jal	ra,4000a588 <__subdf3>
400027ec:	001a0a13          	addi	s4,s4,1
400027f0:	0ff47413          	andi	s0,s0,255
400027f4:	000c0613          	mv	a2,s8
400027f8:	000c8693          	mv	a3,s9
400027fc:	fe8a0fa3          	sb	s0,-1(s4)
40002800:	00050d13          	mv	s10,a0
40002804:	00058d93          	mv	s11,a1
40002808:	5ac070ef          	jal	ra,40009db4 <__ledf2>
4000280c:	000d0613          	mv	a2,s10
40002810:	000d8693          	mv	a3,s11
40002814:	f4055ce3          	bgez	a0,4000276c <_dtoa_r+0x62c>
40002818:	05812d03          	lw	s10,88(sp)
4000281c:	000b0d93          	mv	s11,s6
40002820:	04c12783          	lw	a5,76(sp)
40002824:	00f12823          	sw	a5,16(sp)
40002828:	000d0593          	mv	a1,s10
4000282c:	000d8513          	mv	a0,s11
40002830:	035020ef          	jal	ra,40005064 <_Bfree>
40002834:	01012783          	lw	a5,16(sp)
40002838:	000a0023          	sb	zero,0(s4)
4000283c:	00178713          	addi	a4,a5,1
40002840:	00c12783          	lw	a5,12(sp)
40002844:	00e7a023          	sw	a4,0(a5)
40002848:	0c012783          	lw	a5,192(sp)
4000284c:	1e078ee3          	beqz	a5,40003248 <_dtoa_r+0x1108>
40002850:	0147a023          	sw	s4,0(a5)
40002854:	02012503          	lw	a0,32(sp)
40002858:	9c9ff06f          	j	40002220 <_dtoa_r+0xe0>
4000285c:	07812983          	lw	s3,120(sp)
40002860:	07c12903          	lw	s2,124(sp)
40002864:	02000793          	li	a5,32
40002868:	01298933          	add	s2,s3,s2
4000286c:	43290713          	addi	a4,s2,1074
40002870:	3ce7d663          	ble	a4,a5,40002c3c <_dtoa_r+0xafc>
40002874:	04000793          	li	a5,64
40002878:	41290513          	addi	a0,s2,1042
4000287c:	40e787b3          	sub	a5,a5,a4
40002880:	00a4d533          	srl	a0,s1,a0
40002884:	00fa9ab3          	sll	s5,s5,a5
40002888:	01556533          	or	a0,a0,s5
4000288c:	04d080ef          	jal	ra,4000b0d8 <__floatunsidf>
40002890:	fe100bb7          	lui	s7,0xfe100
40002894:	00050793          	mv	a5,a0
40002898:	00bb85b3          	add	a1,s7,a1
4000289c:	fff90913          	addi	s2,s2,-1
400028a0:	00100a93          	li	s5,1
400028a4:	a79ff06f          	j	4000231c <_dtoa_r+0x1dc>
400028a8:	4000b537          	lui	a0,0x4000b
400028ac:	7e050513          	addi	a0,a0,2016 # 4000b7e0 <zeroes.4139+0x50>
400028b0:	971ff06f          	j	40002220 <_dtoa_r+0xe0>
400028b4:	040da223          	sw	zero,68(s11)
400028b8:	00000593          	li	a1,0
400028bc:	000d8513          	mv	a0,s11
400028c0:	700020ef          	jal	ra,40004fc0 <_Balloc>
400028c4:	fff00793          	li	a5,-1
400028c8:	02f12c23          	sw	a5,56(sp)
400028cc:	00f12c23          	sw	a5,24(sp)
400028d0:	00100793          	li	a5,1
400028d4:	02a12023          	sw	a0,32(sp)
400028d8:	04ada023          	sw	a0,64(s11)
400028dc:	00000c93          	li	s9,0
400028e0:	00000b13          	li	s6,0
400028e4:	02f12223          	sw	a5,36(sp)
400028e8:	07c12783          	lw	a5,124(sp)
400028ec:	1c07cc63          	bltz	a5,40002ac4 <_dtoa_r+0x984>
400028f0:	01012683          	lw	a3,16(sp)
400028f4:	00e00713          	li	a4,14
400028f8:	1cd74663          	blt	a4,a3,40002ac4 <_dtoa_r+0x984>
400028fc:	4000c737          	lui	a4,0x4000c
40002900:	00369793          	slli	a5,a3,0x3
40002904:	81870713          	addi	a4,a4,-2024 # 4000b818 <__mprec_tens>
40002908:	00e787b3          	add	a5,a5,a4
4000290c:	0007ac03          	lw	s8,0(a5)
40002910:	0047ac83          	lw	s9,4(a5)
40002914:	6a0b4263          	bltz	s6,40002fb8 <_dtoa_r+0xe78>
40002918:	000c0613          	mv	a2,s8
4000291c:	000c8693          	mv	a3,s9
40002920:	000a0513          	mv	a0,s4
40002924:	00040593          	mv	a1,s0
40002928:	2c1060ef          	jal	ra,400093e8 <__divdf3>
4000292c:	630080ef          	jal	ra,4000af5c <__fixdfsi>
40002930:	00050493          	mv	s1,a0
40002934:	6ac080ef          	jal	ra,4000afe0 <__floatsidf>
40002938:	000c0613          	mv	a2,s8
4000293c:	000c8693          	mv	a3,s9
40002940:	578070ef          	jal	ra,40009eb8 <__muldf3>
40002944:	00058693          	mv	a3,a1
40002948:	00050613          	mv	a2,a0
4000294c:	00040593          	mv	a1,s0
40002950:	000a0513          	mv	a0,s4
40002954:	435070ef          	jal	ra,4000a588 <__subdf3>
40002958:	02012683          	lw	a3,32(sp)
4000295c:	03048793          	addi	a5,s1,48
40002960:	00100713          	li	a4,1
40002964:	00f68023          	sb	a5,0(a3)
40002968:	01812783          	lw	a5,24(sp)
4000296c:	00050813          	mv	a6,a0
40002970:	00058893          	mv	a7,a1
40002974:	00e68a33          	add	s4,a3,a4
40002978:	0ce78463          	beq	a5,a4,40002a40 <_dtoa_r+0x900>
4000297c:	4000c4b7          	lui	s1,0x4000c
40002980:	c684a603          	lw	a2,-920(s1) # 4000bc68 <__clz_tab+0x134>
40002984:	c6c4a683          	lw	a3,-916(s1)
40002988:	530070ef          	jal	ra,40009eb8 <__muldf3>
4000298c:	00000613          	li	a2,0
40002990:	00000693          	li	a3,0
40002994:	00050913          	mv	s2,a0
40002998:	00058993          	mv	s3,a1
4000299c:	288070ef          	jal	ra,40009c24 <__eqdf2>
400029a0:	e80504e3          	beqz	a0,40002828 <_dtoa_r+0x6e8>
400029a4:	02012783          	lw	a5,32(sp)
400029a8:	01812703          	lw	a4,24(sp)
400029ac:	c684ab03          	lw	s6,-920(s1)
400029b0:	c6c4ab83          	lw	s7,-916(s1)
400029b4:	00278413          	addi	s0,a5,2
400029b8:	00e78ab3          	add	s5,a5,a4
400029bc:	0240006f          	j	400029e0 <_dtoa_r+0x8a0>
400029c0:	4f8070ef          	jal	ra,40009eb8 <__muldf3>
400029c4:	00000613          	li	a2,0
400029c8:	00000693          	li	a3,0
400029cc:	00050913          	mv	s2,a0
400029d0:	00058993          	mv	s3,a1
400029d4:	00140413          	addi	s0,s0,1
400029d8:	24c070ef          	jal	ra,40009c24 <__eqdf2>
400029dc:	e40506e3          	beqz	a0,40002828 <_dtoa_r+0x6e8>
400029e0:	000c0613          	mv	a2,s8
400029e4:	000c8693          	mv	a3,s9
400029e8:	00090513          	mv	a0,s2
400029ec:	00098593          	mv	a1,s3
400029f0:	1f9060ef          	jal	ra,400093e8 <__divdf3>
400029f4:	568080ef          	jal	ra,4000af5c <__fixdfsi>
400029f8:	00050493          	mv	s1,a0
400029fc:	5e4080ef          	jal	ra,4000afe0 <__floatsidf>
40002a00:	000c0613          	mv	a2,s8
40002a04:	000c8693          	mv	a3,s9
40002a08:	4b0070ef          	jal	ra,40009eb8 <__muldf3>
40002a0c:	00050613          	mv	a2,a0
40002a10:	00058693          	mv	a3,a1
40002a14:	00090513          	mv	a0,s2
40002a18:	00098593          	mv	a1,s3
40002a1c:	36d070ef          	jal	ra,4000a588 <__subdf3>
40002a20:	03048793          	addi	a5,s1,48
40002a24:	fef40fa3          	sb	a5,-1(s0)
40002a28:	00050813          	mv	a6,a0
40002a2c:	00058893          	mv	a7,a1
40002a30:	000b0613          	mv	a2,s6
40002a34:	000b8693          	mv	a3,s7
40002a38:	00040a13          	mv	s4,s0
40002a3c:	f88a92e3          	bne	s5,s0,400029c0 <_dtoa_r+0x880>
40002a40:	00080613          	mv	a2,a6
40002a44:	00088693          	mv	a3,a7
40002a48:	00080513          	mv	a0,a6
40002a4c:	00088593          	mv	a1,a7
40002a50:	04c060ef          	jal	ra,40008a9c <__adddf3>
40002a54:	00050913          	mv	s2,a0
40002a58:	00058993          	mv	s3,a1
40002a5c:	00050613          	mv	a2,a0
40002a60:	00058693          	mv	a3,a1
40002a64:	000c0513          	mv	a0,s8
40002a68:	000c8593          	mv	a1,s9
40002a6c:	348070ef          	jal	ra,40009db4 <__ledf2>
40002a70:	02054263          	bltz	a0,40002a94 <_dtoa_r+0x954>
40002a74:	00090613          	mv	a2,s2
40002a78:	00098693          	mv	a3,s3
40002a7c:	000c0513          	mv	a0,s8
40002a80:	000c8593          	mv	a1,s9
40002a84:	1a0070ef          	jal	ra,40009c24 <__eqdf2>
40002a88:	da0510e3          	bnez	a0,40002828 <_dtoa_r+0x6e8>
40002a8c:	0014f493          	andi	s1,s1,1
40002a90:	d8048ce3          	beqz	s1,40002828 <_dtoa_r+0x6e8>
40002a94:	fffa4403          	lbu	s0,-1(s4)
40002a98:	03900613          	li	a2,57
40002a9c:	02012783          	lw	a5,32(sp)
40002aa0:	0100006f          	j	40002ab0 <_dtoa_r+0x970>
40002aa4:	0af68ee3          	beq	a3,a5,40003360 <_dtoa_r+0x1220>
40002aa8:	fff6c403          	lbu	s0,-1(a3)
40002aac:	00068a13          	mv	s4,a3
40002ab0:	fffa0693          	addi	a3,s4,-1
40002ab4:	fec408e3          	beq	s0,a2,40002aa4 <_dtoa_r+0x964>
40002ab8:	00140713          	addi	a4,s0,1
40002abc:	00e68023          	sb	a4,0(a3)
40002ac0:	d69ff06f          	j	40002828 <_dtoa_r+0x6e8>
40002ac4:	02412703          	lw	a4,36(sp)
40002ac8:	16070263          	beqz	a4,40002c2c <_dtoa_r+0xaec>
40002acc:	00100713          	li	a4,1
40002ad0:	59975263          	ble	s9,a4,40003054 <_dtoa_r+0xf14>
40002ad4:	01812783          	lw	a5,24(sp)
40002ad8:	fff78913          	addi	s2,a5,-1
40002adc:	7729ca63          	blt	s3,s2,40003250 <_dtoa_r+0x1110>
40002ae0:	41298933          	sub	s2,s3,s2
40002ae4:	01812703          	lw	a4,24(sp)
40002ae8:	000c0a93          	mv	s5,s8
40002aec:	00070793          	mv	a5,a4
40002af0:	240742e3          	bltz	a4,40003534 <_dtoa_r+0x13f4>
40002af4:	00100593          	li	a1,1
40002af8:	000d8513          	mv	a0,s11
40002afc:	00fc0c33          	add	s8,s8,a5
40002b00:	00fb8bb3          	add	s7,s7,a5
40002b04:	0d9020ef          	jal	ra,400053dc <__i2b>
40002b08:	00050493          	mv	s1,a0
40002b0c:	01505e63          	blez	s5,40002b28 <_dtoa_r+0x9e8>
40002b10:	01705c63          	blez	s7,40002b28 <_dtoa_r+0x9e8>
40002b14:	000a8793          	mv	a5,s5
40002b18:	455bc663          	blt	s7,s5,40002f64 <_dtoa_r+0xe24>
40002b1c:	40fc0c33          	sub	s8,s8,a5
40002b20:	40fa8ab3          	sub	s5,s5,a5
40002b24:	40fb8bb3          	sub	s7,s7,a5
40002b28:	04098a63          	beqz	s3,40002b7c <_dtoa_r+0xa3c>
40002b2c:	02412783          	lw	a5,36(sp)
40002b30:	4e078263          	beqz	a5,40003014 <_dtoa_r+0xed4>
40002b34:	05205063          	blez	s2,40002b74 <_dtoa_r+0xa34>
40002b38:	00048593          	mv	a1,s1
40002b3c:	00090613          	mv	a2,s2
40002b40:	000d8513          	mv	a0,s11
40002b44:	2ad020ef          	jal	ra,400055f0 <__pow5mult>
40002b48:	000d0613          	mv	a2,s10
40002b4c:	00050593          	mv	a1,a0
40002b50:	00050493          	mv	s1,a0
40002b54:	000d8513          	mv	a0,s11
40002b58:	0b9020ef          	jal	ra,40005410 <__multiply>
40002b5c:	02a12823          	sw	a0,48(sp)
40002b60:	000d0593          	mv	a1,s10
40002b64:	000d8513          	mv	a0,s11
40002b68:	4fc020ef          	jal	ra,40005064 <_Bfree>
40002b6c:	03012783          	lw	a5,48(sp)
40002b70:	00078d13          	mv	s10,a5
40002b74:	41298633          	sub	a2,s3,s2
40002b78:	4a061063          	bnez	a2,40003018 <_dtoa_r+0xed8>
40002b7c:	00100593          	li	a1,1
40002b80:	000d8513          	mv	a0,s11
40002b84:	059020ef          	jal	ra,400053dc <__i2b>
40002b88:	02c12783          	lw	a5,44(sp)
40002b8c:	00050993          	mv	s3,a0
40002b90:	0cf05063          	blez	a5,40002c50 <_dtoa_r+0xb10>
40002b94:	00078613          	mv	a2,a5
40002b98:	00050593          	mv	a1,a0
40002b9c:	000d8513          	mv	a0,s11
40002ba0:	251020ef          	jal	ra,400055f0 <__pow5mult>
40002ba4:	00100793          	li	a5,1
40002ba8:	00050993          	mv	s3,a0
40002bac:	3d97d063          	ble	s9,a5,40002f6c <_dtoa_r+0xe2c>
40002bb0:	00000913          	li	s2,0
40002bb4:	0109a783          	lw	a5,16(s3)
40002bb8:	00378793          	addi	a5,a5,3
40002bbc:	00279793          	slli	a5,a5,0x2
40002bc0:	00f987b3          	add	a5,s3,a5
40002bc4:	0047a503          	lw	a0,4(a5)
40002bc8:	6e4020ef          	jal	ra,400052ac <__hi0bits>
40002bcc:	02000793          	li	a5,32
40002bd0:	40a787b3          	sub	a5,a5,a0
40002bd4:	0940006f          	j	40002c68 <_dtoa_r+0xb28>
40002bd8:	01012783          	lw	a5,16(sp)
40002bdc:	02012623          	sw	zero,44(sp)
40002be0:	40fc0c33          	sub	s8,s8,a5
40002be4:	40f009b3          	neg	s3,a5
40002be8:	839ff06f          	j	40002420 <_dtoa_r+0x2e0>
40002bec:	01012b83          	lw	s7,16(sp)
40002bf0:	000b8513          	mv	a0,s7
40002bf4:	3ec080ef          	jal	ra,4000afe0 <__floatsidf>
40002bf8:	00050613          	mv	a2,a0
40002bfc:	00058693          	mv	a3,a1
40002c00:	01812503          	lw	a0,24(sp)
40002c04:	01c12583          	lw	a1,28(sp)
40002c08:	01c070ef          	jal	ra,40009c24 <__eqdf2>
40002c0c:	00a03533          	snez	a0,a0
40002c10:	40ab87b3          	sub	a5,s7,a0
40002c14:	00f12823          	sw	a5,16(sp)
40002c18:	f9cff06f          	j	400023b4 <_dtoa_r+0x274>
40002c1c:	00100c13          	li	s8,1
40002c20:	412c0c33          	sub	s8,s8,s2
40002c24:	00000b93          	li	s7,0
40002c28:	fe4ff06f          	j	4000240c <_dtoa_r+0x2cc>
40002c2c:	00098913          	mv	s2,s3
40002c30:	000c0a93          	mv	s5,s8
40002c34:	00000493          	li	s1,0
40002c38:	ed5ff06f          	j	40002b0c <_dtoa_r+0x9cc>
40002c3c:	40e787b3          	sub	a5,a5,a4
40002c40:	00f49533          	sll	a0,s1,a5
40002c44:	c49ff06f          	j	4000288c <_dtoa_r+0x74c>
40002c48:	02012423          	sw	zero,40(sp)
40002c4c:	fb0ff06f          	j	400023fc <_dtoa_r+0x2bc>
40002c50:	00100793          	li	a5,1
40002c54:	00000913          	li	s2,0
40002c58:	4997d663          	ble	s9,a5,400030e4 <_dtoa_r+0xfa4>
40002c5c:	02c12703          	lw	a4,44(sp)
40002c60:	00100793          	li	a5,1
40002c64:	f40718e3          	bnez	a4,40002bb4 <_dtoa_r+0xa74>
40002c68:	017787b3          	add	a5,a5,s7
40002c6c:	01f7f793          	andi	a5,a5,31
40002c70:	1a078663          	beqz	a5,40002e1c <_dtoa_r+0xcdc>
40002c74:	02000713          	li	a4,32
40002c78:	40f70733          	sub	a4,a4,a5
40002c7c:	00400693          	li	a3,4
40002c80:	20e6dce3          	ble	a4,a3,40003698 <_dtoa_r+0x1558>
40002c84:	01c00713          	li	a4,28
40002c88:	40f707b3          	sub	a5,a4,a5
40002c8c:	00fc0c33          	add	s8,s8,a5
40002c90:	00fa8ab3          	add	s5,s5,a5
40002c94:	00fb8bb3          	add	s7,s7,a5
40002c98:	01805c63          	blez	s8,40002cb0 <_dtoa_r+0xb70>
40002c9c:	000d0593          	mv	a1,s10
40002ca0:	000c0613          	mv	a2,s8
40002ca4:	000d8513          	mv	a0,s11
40002ca8:	291020ef          	jal	ra,40005738 <__lshift>
40002cac:	00050d13          	mv	s10,a0
40002cb0:	01705c63          	blez	s7,40002cc8 <_dtoa_r+0xb88>
40002cb4:	00098593          	mv	a1,s3
40002cb8:	000b8613          	mv	a2,s7
40002cbc:	000d8513          	mv	a0,s11
40002cc0:	279020ef          	jal	ra,40005738 <__lshift>
40002cc4:	00050993          	mv	s3,a0
40002cc8:	02812783          	lw	a5,40(sp)
40002ccc:	16079263          	bnez	a5,40002e30 <_dtoa_r+0xcf0>
40002cd0:	01812783          	lw	a5,24(sp)
40002cd4:	46f05663          	blez	a5,40003140 <_dtoa_r+0x1000>
40002cd8:	02412783          	lw	a5,36(sp)
40002cdc:	1a078463          	beqz	a5,40002e84 <_dtoa_r+0xd44>
40002ce0:	01505c63          	blez	s5,40002cf8 <_dtoa_r+0xbb8>
40002ce4:	00048593          	mv	a1,s1
40002ce8:	000a8613          	mv	a2,s5
40002cec:	000d8513          	mv	a0,s11
40002cf0:	249020ef          	jal	ra,40005738 <__lshift>
40002cf4:	00050493          	mv	s1,a0
40002cf8:	00048b13          	mv	s6,s1
40002cfc:	68091263          	bnez	s2,40003380 <_dtoa_r+0x1240>
40002d00:	02012783          	lw	a5,32(sp)
40002d04:	01812703          	lw	a4,24(sp)
40002d08:	00a00b93          	li	s7,10
40002d0c:	00178413          	addi	s0,a5,1
40002d10:	00e787b3          	add	a5,a5,a4
40002d14:	02f12623          	sw	a5,44(sp)
40002d18:	001a7793          	andi	a5,s4,1
40002d1c:	02f12223          	sw	a5,36(sp)
40002d20:	00098593          	mv	a1,s3
40002d24:	000d0513          	mv	a0,s10
40002d28:	a30ff0ef          	jal	ra,40001f58 <quorem>
40002d2c:	00050c13          	mv	s8,a0
40002d30:	00048593          	mv	a1,s1
40002d34:	000d0513          	mv	a0,s10
40002d38:	349020ef          	jal	ra,40005880 <__mcmp>
40002d3c:	00050913          	mv	s2,a0
40002d40:	000b0613          	mv	a2,s6
40002d44:	00098593          	mv	a1,s3
40002d48:	000d8513          	mv	a0,s11
40002d4c:	38d020ef          	jal	ra,400058d8 <__mdiff>
40002d50:	00c52683          	lw	a3,12(a0)
40002d54:	fff40713          	addi	a4,s0,-1
40002d58:	02e12423          	sw	a4,40(sp)
40002d5c:	00050793          	mv	a5,a0
40002d60:	030c0a93          	addi	s5,s8,48
40002d64:	00100a13          	li	s4,1
40002d68:	00069e63          	bnez	a3,40002d84 <_dtoa_r+0xc44>
40002d6c:	00050593          	mv	a1,a0
40002d70:	00a12c23          	sw	a0,24(sp)
40002d74:	000d0513          	mv	a0,s10
40002d78:	309020ef          	jal	ra,40005880 <__mcmp>
40002d7c:	01812783          	lw	a5,24(sp)
40002d80:	00050a13          	mv	s4,a0
40002d84:	00078593          	mv	a1,a5
40002d88:	000d8513          	mv	a0,s11
40002d8c:	2d8020ef          	jal	ra,40005064 <_Bfree>
40002d90:	019a67b3          	or	a5,s4,s9
40002d94:	00079663          	bnez	a5,40002da0 <_dtoa_r+0xc60>
40002d98:	02412783          	lw	a5,36(sp)
40002d9c:	2c078a63          	beqz	a5,40003070 <_dtoa_r+0xf30>
40002da0:	2e094c63          	bltz	s2,40003098 <_dtoa_r+0xf58>
40002da4:	01996933          	or	s2,s2,s9
40002da8:	00091663          	bnez	s2,40002db4 <_dtoa_r+0xc74>
40002dac:	02412783          	lw	a5,36(sp)
40002db0:	2e078463          	beqz	a5,40003098 <_dtoa_r+0xf58>
40002db4:	77404263          	bgtz	s4,40003518 <_dtoa_r+0x13d8>
40002db8:	02c12783          	lw	a5,44(sp)
40002dbc:	ff540fa3          	sb	s5,-1(s0)
40002dc0:	00040a13          	mv	s4,s0
40002dc4:	76878263          	beq	a5,s0,40003528 <_dtoa_r+0x13e8>
40002dc8:	000d0593          	mv	a1,s10
40002dcc:	00000693          	li	a3,0
40002dd0:	000b8613          	mv	a2,s7
40002dd4:	000d8513          	mv	a0,s11
40002dd8:	2b0020ef          	jal	ra,40005088 <__multadd>
40002ddc:	00050d13          	mv	s10,a0
40002de0:	00000693          	li	a3,0
40002de4:	000b8613          	mv	a2,s7
40002de8:	00048593          	mv	a1,s1
40002dec:	000d8513          	mv	a0,s11
40002df0:	2f648e63          	beq	s1,s6,400030ec <_dtoa_r+0xfac>
40002df4:	294020ef          	jal	ra,40005088 <__multadd>
40002df8:	000b0593          	mv	a1,s6
40002dfc:	00050493          	mv	s1,a0
40002e00:	00000693          	li	a3,0
40002e04:	000b8613          	mv	a2,s7
40002e08:	000d8513          	mv	a0,s11
40002e0c:	27c020ef          	jal	ra,40005088 <__multadd>
40002e10:	00050b13          	mv	s6,a0
40002e14:	00140413          	addi	s0,s0,1
40002e18:	f09ff06f          	j	40002d20 <_dtoa_r+0xbe0>
40002e1c:	01c00793          	li	a5,28
40002e20:	00fc0c33          	add	s8,s8,a5
40002e24:	00fa8ab3          	add	s5,s5,a5
40002e28:	00fb8bb3          	add	s7,s7,a5
40002e2c:	e6dff06f          	j	40002c98 <_dtoa_r+0xb58>
40002e30:	00098593          	mv	a1,s3
40002e34:	000d0513          	mv	a0,s10
40002e38:	249020ef          	jal	ra,40005880 <__mcmp>
40002e3c:	e8055ae3          	bgez	a0,40002cd0 <_dtoa_r+0xb90>
40002e40:	000d0593          	mv	a1,s10
40002e44:	00000693          	li	a3,0
40002e48:	00a00613          	li	a2,10
40002e4c:	000d8513          	mv	a0,s11
40002e50:	238020ef          	jal	ra,40005088 <__multadd>
40002e54:	01012783          	lw	a5,16(sp)
40002e58:	00050d13          	mv	s10,a0
40002e5c:	fff78793          	addi	a5,a5,-1
40002e60:	00f12823          	sw	a5,16(sp)
40002e64:	02412783          	lw	a5,36(sp)
40002e68:	7e079463          	bnez	a5,40003650 <_dtoa_r+0x1510>
40002e6c:	03812783          	lw	a5,56(sp)
40002e70:	00f04863          	bgtz	a5,40002e80 <_dtoa_r+0xd40>
40002e74:	00200793          	li	a5,2
40002e78:	0197cae3          	blt	a5,s9,4000368c <_dtoa_r+0x154c>
40002e7c:	03812783          	lw	a5,56(sp)
40002e80:	00f12c23          	sw	a5,24(sp)
40002e84:	02012b03          	lw	s6,32(sp)
40002e88:	00a00913          	li	s2,10
40002e8c:	01812a03          	lw	s4,24(sp)
40002e90:	000b0413          	mv	s0,s6
40002e94:	00c0006f          	j	40002ea0 <_dtoa_r+0xd60>
40002e98:	1f0020ef          	jal	ra,40005088 <__multadd>
40002e9c:	00050d13          	mv	s10,a0
40002ea0:	00098593          	mv	a1,s3
40002ea4:	000d0513          	mv	a0,s10
40002ea8:	8b0ff0ef          	jal	ra,40001f58 <quorem>
40002eac:	00140413          	addi	s0,s0,1
40002eb0:	03050a93          	addi	s5,a0,48
40002eb4:	ff540fa3          	sb	s5,-1(s0)
40002eb8:	416407b3          	sub	a5,s0,s6
40002ebc:	00000693          	li	a3,0
40002ec0:	00090613          	mv	a2,s2
40002ec4:	000d0593          	mv	a1,s10
40002ec8:	000d8513          	mv	a0,s11
40002ecc:	fd47c6e3          	blt	a5,s4,40002e98 <_dtoa_r+0xd58>
40002ed0:	01812783          	lw	a5,24(sp)
40002ed4:	66f05663          	blez	a5,40003540 <_dtoa_r+0x1400>
40002ed8:	02012703          	lw	a4,32(sp)
40002edc:	00000413          	li	s0,0
40002ee0:	00f70a33          	add	s4,a4,a5
40002ee4:	000d0593          	mv	a1,s10
40002ee8:	00100613          	li	a2,1
40002eec:	000d8513          	mv	a0,s11
40002ef0:	049020ef          	jal	ra,40005738 <__lshift>
40002ef4:	00098593          	mv	a1,s3
40002ef8:	00050d13          	mv	s10,a0
40002efc:	185020ef          	jal	ra,40005880 <__mcmp>
40002f00:	12a05663          	blez	a0,4000302c <_dtoa_r+0xeec>
40002f04:	fffa4683          	lbu	a3,-1(s4)
40002f08:	03900613          	li	a2,57
40002f0c:	02012783          	lw	a5,32(sp)
40002f10:	0100006f          	j	40002f20 <_dtoa_r+0xde0>
40002f14:	28f70263          	beq	a4,a5,40003198 <_dtoa_r+0x1058>
40002f18:	fff74683          	lbu	a3,-1(a4)
40002f1c:	00070a13          	mv	s4,a4
40002f20:	fffa0713          	addi	a4,s4,-1
40002f24:	fec688e3          	beq	a3,a2,40002f14 <_dtoa_r+0xdd4>
40002f28:	00168693          	addi	a3,a3,1
40002f2c:	00d70023          	sb	a3,0(a4)
40002f30:	00098593          	mv	a1,s3
40002f34:	000d8513          	mv	a0,s11
40002f38:	12c020ef          	jal	ra,40005064 <_Bfree>
40002f3c:	8e0486e3          	beqz	s1,40002828 <_dtoa_r+0x6e8>
40002f40:	00040a63          	beqz	s0,40002f54 <_dtoa_r+0xe14>
40002f44:	00940863          	beq	s0,s1,40002f54 <_dtoa_r+0xe14>
40002f48:	00040593          	mv	a1,s0
40002f4c:	000d8513          	mv	a0,s11
40002f50:	114020ef          	jal	ra,40005064 <_Bfree>
40002f54:	00048593          	mv	a1,s1
40002f58:	000d8513          	mv	a0,s11
40002f5c:	108020ef          	jal	ra,40005064 <_Bfree>
40002f60:	8c9ff06f          	j	40002828 <_dtoa_r+0x6e8>
40002f64:	000b8793          	mv	a5,s7
40002f68:	bb5ff06f          	j	40002b1c <_dtoa_r+0x9dc>
40002f6c:	c40a12e3          	bnez	s4,40002bb0 <_dtoa_r+0xa70>
40002f70:	00c41793          	slli	a5,s0,0xc
40002f74:	00000913          	li	s2,0
40002f78:	ce0792e3          	bnez	a5,40002c5c <_dtoa_r+0xb1c>
40002f7c:	7ff007b7          	lui	a5,0x7ff00
40002f80:	00f47433          	and	s0,s0,a5
40002f84:	cc040ce3          	beqz	s0,40002c5c <_dtoa_r+0xb1c>
40002f88:	001c0c13          	addi	s8,s8,1
40002f8c:	001b8b93          	addi	s7,s7,1 # fe100001 <_bss_end+0xbe0f3979>
40002f90:	00100913          	li	s2,1
40002f94:	cc9ff06f          	j	40002c5c <_dtoa_r+0xb1c>
40002f98:	00100793          	li	a5,1
40002f9c:	02f12223          	sw	a5,36(sp)
40002fa0:	2d605663          	blez	s6,4000326c <_dtoa_r+0x112c>
40002fa4:	000b0613          	mv	a2,s6
40002fa8:	000b0813          	mv	a6,s6
40002fac:	03612c23          	sw	s6,56(sp)
40002fb0:	01612c23          	sw	s6,24(sp)
40002fb4:	cccff06f          	j	40002480 <_dtoa_r+0x340>
40002fb8:	01812783          	lw	a5,24(sp)
40002fbc:	94f04ee3          	bgtz	a5,40002918 <_dtoa_r+0x7d8>
40002fc0:	26079e63          	bnez	a5,4000323c <_dtoa_r+0x10fc>
40002fc4:	4000c7b7          	lui	a5,0x4000c
40002fc8:	c787a603          	lw	a2,-904(a5) # 4000bc78 <__clz_tab+0x144>
40002fcc:	c7c7a683          	lw	a3,-900(a5)
40002fd0:	000c0513          	mv	a0,s8
40002fd4:	000c8593          	mv	a1,s9
40002fd8:	6e1060ef          	jal	ra,40009eb8 <__muldf3>
40002fdc:	000a0613          	mv	a2,s4
40002fe0:	00040693          	mv	a3,s0
40002fe4:	4cd060ef          	jal	ra,40009cb0 <__gedf2>
40002fe8:	00000993          	li	s3,0
40002fec:	00000493          	li	s1,0
40002ff0:	18054463          	bltz	a0,40003178 <_dtoa_r+0x1038>
40002ff4:	02012a03          	lw	s4,32(sp)
40002ff8:	fffb4793          	not	a5,s6
40002ffc:	00f12823          	sw	a5,16(sp)
40003000:	00098593          	mv	a1,s3
40003004:	000d8513          	mv	a0,s11
40003008:	05c020ef          	jal	ra,40005064 <_Bfree>
4000300c:	80048ee3          	beqz	s1,40002828 <_dtoa_r+0x6e8>
40003010:	f45ff06f          	j	40002f54 <_dtoa_r+0xe14>
40003014:	00098613          	mv	a2,s3
40003018:	000d0593          	mv	a1,s10
4000301c:	000d8513          	mv	a0,s11
40003020:	5d0020ef          	jal	ra,400055f0 <__pow5mult>
40003024:	00050d13          	mv	s10,a0
40003028:	b55ff06f          	j	40002b7c <_dtoa_r+0xa3c>
4000302c:	00051663          	bnez	a0,40003038 <_dtoa_r+0xef8>
40003030:	001afa93          	andi	s5,s5,1
40003034:	ec0a98e3          	bnez	s5,40002f04 <_dtoa_r+0xdc4>
40003038:	03000613          	li	a2,48
4000303c:	0080006f          	j	40003044 <_dtoa_r+0xf04>
40003040:	00070a13          	mv	s4,a4
40003044:	fffa4783          	lbu	a5,-1(s4)
40003048:	fffa0713          	addi	a4,s4,-1
4000304c:	fec78ae3          	beq	a5,a2,40003040 <_dtoa_r+0xf00>
40003050:	ee1ff06f          	j	40002f30 <_dtoa_r+0xdf0>
40003054:	4e0a8a63          	beqz	s5,40003548 <_dtoa_r+0x1408>
40003058:	43378793          	addi	a5,a5,1075
4000305c:	00098913          	mv	s2,s3
40003060:	000c0a93          	mv	s5,s8
40003064:	a91ff06f          	j	40002af4 <_dtoa_r+0x9b4>
40003068:	00100613          	li	a2,1
4000306c:	c10ff06f          	j	4000247c <_dtoa_r+0x33c>
40003070:	03900793          	li	a5,57
40003074:	04fa8863          	beq	s5,a5,400030c4 <_dtoa_r+0xf84>
40003078:	01205463          	blez	s2,40003080 <_dtoa_r+0xf40>
4000307c:	031c0a93          	addi	s5,s8,49
40003080:	02812783          	lw	a5,40(sp)
40003084:	00048413          	mv	s0,s1
40003088:	000b0493          	mv	s1,s6
4000308c:	00178a13          	addi	s4,a5,1
40003090:	01578023          	sb	s5,0(a5)
40003094:	e9dff06f          	j	40002f30 <_dtoa_r+0xdf0>
40003098:	ff4054e3          	blez	s4,40003080 <_dtoa_r+0xf40>
4000309c:	000d0593          	mv	a1,s10
400030a0:	00100613          	li	a2,1
400030a4:	000d8513          	mv	a0,s11
400030a8:	690020ef          	jal	ra,40005738 <__lshift>
400030ac:	00098593          	mv	a1,s3
400030b0:	00050d13          	mv	s10,a0
400030b4:	7cc020ef          	jal	ra,40005880 <__mcmp>
400030b8:	58a05463          	blez	a0,40003640 <_dtoa_r+0x1500>
400030bc:	03900793          	li	a5,57
400030c0:	fafa9ee3          	bne	s5,a5,4000307c <_dtoa_r+0xf3c>
400030c4:	02812783          	lw	a5,40(sp)
400030c8:	03900713          	li	a4,57
400030cc:	00048413          	mv	s0,s1
400030d0:	00178a13          	addi	s4,a5,1
400030d4:	00e78023          	sb	a4,0(a5)
400030d8:	000b0493          	mv	s1,s6
400030dc:	03900693          	li	a3,57
400030e0:	e29ff06f          	j	40002f08 <_dtoa_r+0xdc8>
400030e4:	b60a1ce3          	bnez	s4,40002c5c <_dtoa_r+0xb1c>
400030e8:	e89ff06f          	j	40002f70 <_dtoa_r+0xe30>
400030ec:	79d010ef          	jal	ra,40005088 <__multadd>
400030f0:	00050493          	mv	s1,a0
400030f4:	00050b13          	mv	s6,a0
400030f8:	00140413          	addi	s0,s0,1
400030fc:	c25ff06f          	j	40002d20 <_dtoa_r+0xbe0>
40003100:	00200793          	li	a5,2
40003104:	02012223          	sw	zero,36(sp)
40003108:	e8fc8ce3          	beq	s9,a5,40002fa0 <_dtoa_r+0xe60>
4000310c:	040da223          	sw	zero,68(s11)
40003110:	00000593          	li	a1,0
40003114:	000d8513          	mv	a0,s11
40003118:	6a9010ef          	jal	ra,40004fc0 <_Balloc>
4000311c:	fff00793          	li	a5,-1
40003120:	02f12c23          	sw	a5,56(sp)
40003124:	00f12c23          	sw	a5,24(sp)
40003128:	00100793          	li	a5,1
4000312c:	02a12023          	sw	a0,32(sp)
40003130:	04ada023          	sw	a0,64(s11)
40003134:	00000b13          	li	s6,0
40003138:	02f12223          	sw	a5,36(sp)
4000313c:	facff06f          	j	400028e8 <_dtoa_r+0x7a8>
40003140:	00200793          	li	a5,2
40003144:	b997dae3          	ble	s9,a5,40002cd8 <_dtoa_r+0xb98>
40003148:	01812783          	lw	a5,24(sp)
4000314c:	ea0794e3          	bnez	a5,40002ff4 <_dtoa_r+0xeb4>
40003150:	00098593          	mv	a1,s3
40003154:	00000693          	li	a3,0
40003158:	00500613          	li	a2,5
4000315c:	000d8513          	mv	a0,s11
40003160:	729010ef          	jal	ra,40005088 <__multadd>
40003164:	00050993          	mv	s3,a0
40003168:	00050593          	mv	a1,a0
4000316c:	000d0513          	mv	a0,s10
40003170:	710020ef          	jal	ra,40005880 <__mcmp>
40003174:	e8a050e3          	blez	a0,40002ff4 <_dtoa_r+0xeb4>
40003178:	02012783          	lw	a5,32(sp)
4000317c:	03100713          	li	a4,49
40003180:	00178a13          	addi	s4,a5,1
40003184:	00e78023          	sb	a4,0(a5)
40003188:	01012783          	lw	a5,16(sp)
4000318c:	00178793          	addi	a5,a5,1
40003190:	00f12823          	sw	a5,16(sp)
40003194:	e6dff06f          	j	40003000 <_dtoa_r+0xec0>
40003198:	01012783          	lw	a5,16(sp)
4000319c:	03100713          	li	a4,49
400031a0:	00178793          	addi	a5,a5,1
400031a4:	00f12823          	sw	a5,16(sp)
400031a8:	02012783          	lw	a5,32(sp)
400031ac:	00e78023          	sb	a4,0(a5)
400031b0:	d81ff06f          	j	40002f30 <_dtoa_r+0xdf0>
400031b4:	02012223          	sw	zero,36(sp)
400031b8:	aa8ff06f          	j	40002460 <_dtoa_r+0x320>
400031bc:	00090513          	mv	a0,s2
400031c0:	621070ef          	jal	ra,4000afe0 <__floatsidf>
400031c4:	03012603          	lw	a2,48(sp)
400031c8:	03412683          	lw	a3,52(sp)
400031cc:	fcc004b7          	lui	s1,0xfcc00
400031d0:	4e9060ef          	jal	ra,40009eb8 <__muldf3>
400031d4:	4000c7b7          	lui	a5,0x4000c
400031d8:	c707a603          	lw	a2,-912(a5) # 4000bc70 <__clz_tab+0x13c>
400031dc:	c747a683          	lw	a3,-908(a5)
400031e0:	0bd050ef          	jal	ra,40008a9c <__adddf3>
400031e4:	00050413          	mv	s0,a0
400031e8:	00b484b3          	add	s1,s1,a1
400031ec:	4000c7b7          	lui	a5,0x4000c
400031f0:	c787a603          	lw	a2,-904(a5) # 4000bc78 <__clz_tab+0x144>
400031f4:	c7c7a683          	lw	a3,-900(a5)
400031f8:	03012503          	lw	a0,48(sp)
400031fc:	03412583          	lw	a1,52(sp)
40003200:	388070ef          	jal	ra,4000a588 <__subdf3>
40003204:	00040613          	mv	a2,s0
40003208:	00048693          	mv	a3,s1
4000320c:	02a12823          	sw	a0,48(sp)
40003210:	02b12a23          	sw	a1,52(sp)
40003214:	29d060ef          	jal	ra,40009cb0 <__gedf2>
40003218:	2ea04a63          	bgtz	a0,4000350c <_dtoa_r+0x13cc>
4000321c:	800007b7          	lui	a5,0x80000
40003220:	03012503          	lw	a0,48(sp)
40003224:	03412583          	lw	a1,52(sp)
40003228:	00f4c4b3          	xor	s1,s1,a5
4000322c:	00040613          	mv	a2,s0
40003230:	00048693          	mv	a3,s1
40003234:	381060ef          	jal	ra,40009db4 <__ledf2>
40003238:	06055e63          	bgez	a0,400032b4 <_dtoa_r+0x1174>
4000323c:	00000993          	li	s3,0
40003240:	00000493          	li	s1,0
40003244:	db1ff06f          	j	40002ff4 <_dtoa_r+0xeb4>
40003248:	02012503          	lw	a0,32(sp)
4000324c:	fd5fe06f          	j	40002220 <_dtoa_r+0xe0>
40003250:	02c12783          	lw	a5,44(sp)
40003254:	413909b3          	sub	s3,s2,s3
40003258:	013787b3          	add	a5,a5,s3
4000325c:	02f12623          	sw	a5,44(sp)
40003260:	00090993          	mv	s3,s2
40003264:	00000913          	li	s2,0
40003268:	87dff06f          	j	40002ae4 <_dtoa_r+0x9a4>
4000326c:	040da223          	sw	zero,68(s11)
40003270:	00000593          	li	a1,0
40003274:	000d8513          	mv	a0,s11
40003278:	549010ef          	jal	ra,40004fc0 <_Balloc>
4000327c:	00100b13          	li	s6,1
40003280:	02a12023          	sw	a0,32(sp)
40003284:	04ada023          	sw	a0,64(s11)
40003288:	03612c23          	sw	s6,56(sp)
4000328c:	01612c23          	sw	s6,24(sp)
40003290:	a40ff06f          	j	400024d0 <_dtoa_r+0x390>
40003294:	000b0d93          	mv	s11,s6
40003298:	05c12c03          	lw	s8,92(sp)
4000329c:	06012983          	lw	s3,96(sp)
400032a0:	06412b83          	lw	s7,100(sp)
400032a4:	06812a83          	lw	s5,104(sp)
400032a8:	05812d03          	lw	s10,88(sp)
400032ac:	06c12c83          	lw	s9,108(sp)
400032b0:	04012b03          	lw	s6,64(sp)
400032b4:	03c12a03          	lw	s4,60(sp)
400032b8:	04812403          	lw	s0,72(sp)
400032bc:	e2cff06f          	j	400028e8 <_dtoa_r+0x7a8>
400032c0:	01012783          	lw	a5,16(sp)
400032c4:	02912823          	sw	s1,48(sp)
400032c8:	02812a23          	sw	s0,52(sp)
400032cc:	00200913          	li	s2,2
400032d0:	ac078e63          	beqz	a5,400025ac <_dtoa_r+0x46c>
400032d4:	40f007b3          	neg	a5,a5
400032d8:	00f7f713          	andi	a4,a5,15
400032dc:	4000c6b7          	lui	a3,0x4000c
400032e0:	81868693          	addi	a3,a3,-2024 # 4000b818 <__mprec_tens>
400032e4:	00371713          	slli	a4,a4,0x3
400032e8:	00d70733          	add	a4,a4,a3
400032ec:	00072603          	lw	a2,0(a4)
400032f0:	00472683          	lw	a3,4(a4)
400032f4:	00040593          	mv	a1,s0
400032f8:	00048513          	mv	a0,s1
400032fc:	4047d413          	srai	s0,a5,0x4
40003300:	3b9060ef          	jal	ra,40009eb8 <__muldf3>
40003304:	02a12823          	sw	a0,48(sp)
40003308:	02b12a23          	sw	a1,52(sp)
4000330c:	aa040063          	beqz	s0,400025ac <_dtoa_r+0x46c>
40003310:	4000c4b7          	lui	s1,0x4000c
40003314:	90848493          	addi	s1,s1,-1784 # 4000b908 <__mprec_bigtens>
40003318:	00050613          	mv	a2,a0
4000331c:	00058693          	mv	a3,a1
40003320:	00147793          	andi	a5,s0,1
40003324:	00060513          	mv	a0,a2
40003328:	40145413          	srai	s0,s0,0x1
4000332c:	00068593          	mv	a1,a3
40003330:	00078e63          	beqz	a5,4000334c <_dtoa_r+0x120c>
40003334:	0004a603          	lw	a2,0(s1)
40003338:	0044a683          	lw	a3,4(s1)
4000333c:	00190913          	addi	s2,s2,1
40003340:	379060ef          	jal	ra,40009eb8 <__muldf3>
40003344:	00050613          	mv	a2,a0
40003348:	00058693          	mv	a3,a1
4000334c:	00848493          	addi	s1,s1,8
40003350:	fc0418e3          	bnez	s0,40003320 <_dtoa_r+0x11e0>
40003354:	02c12823          	sw	a2,48(sp)
40003358:	02d12a23          	sw	a3,52(sp)
4000335c:	a50ff06f          	j	400025ac <_dtoa_r+0x46c>
40003360:	02012783          	lw	a5,32(sp)
40003364:	03000713          	li	a4,48
40003368:	00e78023          	sb	a4,0(a5) # 80000000 <_bss_end+0x3fff3978>
4000336c:	01012783          	lw	a5,16(sp)
40003370:	fffa4403          	lbu	s0,-1(s4)
40003374:	00178793          	addi	a5,a5,1
40003378:	00f12823          	sw	a5,16(sp)
4000337c:	f3cff06f          	j	40002ab8 <_dtoa_r+0x978>
40003380:	0044a583          	lw	a1,4(s1)
40003384:	000d8513          	mv	a0,s11
40003388:	439010ef          	jal	ra,40004fc0 <_Balloc>
4000338c:	0104a603          	lw	a2,16(s1)
40003390:	00050413          	mv	s0,a0
40003394:	00c48593          	addi	a1,s1,12
40003398:	00260613          	addi	a2,a2,2
4000339c:	00261613          	slli	a2,a2,0x2
400033a0:	00c50513          	addi	a0,a0,12
400033a4:	21d010ef          	jal	ra,40004dc0 <memcpy>
400033a8:	00100613          	li	a2,1
400033ac:	00040593          	mv	a1,s0
400033b0:	000d8513          	mv	a0,s11
400033b4:	384020ef          	jal	ra,40005738 <__lshift>
400033b8:	00050b13          	mv	s6,a0
400033bc:	945ff06f          	j	40002d00 <_dtoa_r+0xbc0>
400033c0:	fff90793          	addi	a5,s2,-1
400033c4:	4000c737          	lui	a4,0x4000c
400033c8:	81870713          	addi	a4,a4,-2024 # 4000b818 <__mprec_tens>
400033cc:	00379793          	slli	a5,a5,0x3
400033d0:	00e787b3          	add	a5,a5,a4
400033d4:	0007a503          	lw	a0,0(a5)
400033d8:	0047a583          	lw	a1,4(a5)
400033dc:	00040613          	mv	a2,s0
400033e0:	00048693          	mv	a3,s1
400033e4:	2d5060ef          	jal	ra,40009eb8 <__muldf3>
400033e8:	04a12023          	sw	a0,64(sp)
400033ec:	04b12223          	sw	a1,68(sp)
400033f0:	03012503          	lw	a0,48(sp)
400033f4:	03412583          	lw	a1,52(sp)
400033f8:	4000c4b7          	lui	s1,0x4000c
400033fc:	361070ef          	jal	ra,4000af5c <__fixdfsi>
40003400:	00050413          	mv	s0,a0
40003404:	3dd070ef          	jal	ra,4000afe0 <__floatsidf>
40003408:	00050613          	mv	a2,a0
4000340c:	00058693          	mv	a3,a1
40003410:	03012503          	lw	a0,48(sp)
40003414:	03412583          	lw	a1,52(sp)
40003418:	03040413          	addi	s0,s0,48
4000341c:	16c070ef          	jal	ra,4000a588 <__subdf3>
40003420:	02012783          	lw	a5,32(sp)
40003424:	00100713          	li	a4,1
40003428:	00050813          	mv	a6,a0
4000342c:	00878023          	sb	s0,0(a5)
40003430:	00058893          	mv	a7,a1
40003434:	00e78a33          	add	s4,a5,a4
40003438:	01278433          	add	s0,a5,s2
4000343c:	08e90063          	beq	s2,a4,400034bc <_dtoa_r+0x137c>
40003440:	c684a703          	lw	a4,-920(s1) # 4000bc68 <__clz_tab+0x134>
40003444:	c6c4a783          	lw	a5,-916(s1)
40003448:	05612823          	sw	s6,80(sp)
4000344c:	02e12823          	sw	a4,48(sp)
40003450:	000a8b13          	mv	s6,s5
40003454:	02f12a23          	sw	a5,52(sp)
40003458:	00098a93          	mv	s5,s3
4000345c:	03012603          	lw	a2,48(sp)
40003460:	03412683          	lw	a3,52(sp)
40003464:	00080513          	mv	a0,a6
40003468:	00088593          	mv	a1,a7
4000346c:	24d060ef          	jal	ra,40009eb8 <__muldf3>
40003470:	00058993          	mv	s3,a1
40003474:	00050913          	mv	s2,a0
40003478:	2e5070ef          	jal	ra,4000af5c <__fixdfsi>
4000347c:	00050493          	mv	s1,a0
40003480:	361070ef          	jal	ra,4000afe0 <__floatsidf>
40003484:	00050613          	mv	a2,a0
40003488:	00058693          	mv	a3,a1
4000348c:	00090513          	mv	a0,s2
40003490:	00098593          	mv	a1,s3
40003494:	001a0a13          	addi	s4,s4,1
40003498:	03048493          	addi	s1,s1,48
4000349c:	0ec070ef          	jal	ra,4000a588 <__subdf3>
400034a0:	fe9a0fa3          	sb	s1,-1(s4)
400034a4:	00050813          	mv	a6,a0
400034a8:	00058893          	mv	a7,a1
400034ac:	fa8a18e3          	bne	s4,s0,4000345c <_dtoa_r+0x131c>
400034b0:	000a8993          	mv	s3,s5
400034b4:	000b0a93          	mv	s5,s6
400034b8:	05012b03          	lw	s6,80(sp)
400034bc:	4000c437          	lui	s0,0x4000c
400034c0:	c8042603          	lw	a2,-896(s0) # 4000bc80 <__clz_tab+0x14c>
400034c4:	c8442683          	lw	a3,-892(s0)
400034c8:	04012503          	lw	a0,64(sp)
400034cc:	04412583          	lw	a1,68(sp)
400034d0:	03012823          	sw	a6,48(sp)
400034d4:	03112a23          	sw	a7,52(sp)
400034d8:	5c4050ef          	jal	ra,40008a9c <__adddf3>
400034dc:	03012803          	lw	a6,48(sp)
400034e0:	03412883          	lw	a7,52(sp)
400034e4:	00080613          	mv	a2,a6
400034e8:	00088693          	mv	a3,a7
400034ec:	0c9060ef          	jal	ra,40009db4 <__ledf2>
400034f0:	03012803          	lw	a6,48(sp)
400034f4:	03412883          	lw	a7,52(sp)
400034f8:	0e055263          	bgez	a0,400035dc <_dtoa_r+0x149c>
400034fc:	04c12783          	lw	a5,76(sp)
40003500:	fffa4403          	lbu	s0,-1(s4)
40003504:	00f12823          	sw	a5,16(sp)
40003508:	d90ff06f          	j	40002a98 <_dtoa_r+0x958>
4000350c:	00000993          	li	s3,0
40003510:	00000493          	li	s1,0
40003514:	c65ff06f          	j	40003178 <_dtoa_r+0x1038>
40003518:	03900793          	li	a5,57
4000351c:	bafa84e3          	beq	s5,a5,400030c4 <_dtoa_r+0xf84>
40003520:	001a8a93          	addi	s5,s5,1
40003524:	b5dff06f          	j	40003080 <_dtoa_r+0xf40>
40003528:	00048413          	mv	s0,s1
4000352c:	000b0493          	mv	s1,s6
40003530:	9b5ff06f          	j	40002ee4 <_dtoa_r+0xda4>
40003534:	40ec0ab3          	sub	s5,s8,a4
40003538:	00000793          	li	a5,0
4000353c:	db8ff06f          	j	40002af4 <_dtoa_r+0x9b4>
40003540:	00100793          	li	a5,1
40003544:	995ff06f          	j	40002ed8 <_dtoa_r+0xd98>
40003548:	07812703          	lw	a4,120(sp)
4000354c:	03600793          	li	a5,54
40003550:	00098913          	mv	s2,s3
40003554:	40e787b3          	sub	a5,a5,a4
40003558:	000c0a93          	mv	s5,s8
4000355c:	d98ff06f          	j	40002af4 <_dtoa_r+0x9b4>
40003560:	01812783          	lw	a5,24(sp)
40003564:	c4078ce3          	beqz	a5,400031bc <_dtoa_r+0x107c>
40003568:	03812a03          	lw	s4,56(sp)
4000356c:	d54054e3          	blez	s4,400032b4 <_dtoa_r+0x1174>
40003570:	4000c4b7          	lui	s1,0x4000c
40003574:	01012783          	lw	a5,16(sp)
40003578:	c684a603          	lw	a2,-920(s1) # 4000bc68 <__clz_tab+0x134>
4000357c:	c6c4a683          	lw	a3,-916(s1)
40003580:	03012503          	lw	a0,48(sp)
40003584:	03412583          	lw	a1,52(sp)
40003588:	fff78793          	addi	a5,a5,-1
4000358c:	04f12623          	sw	a5,76(sp)
40003590:	129060ef          	jal	ra,40009eb8 <__muldf3>
40003594:	00050413          	mv	s0,a0
40003598:	02a12823          	sw	a0,48(sp)
4000359c:	00190513          	addi	a0,s2,1
400035a0:	00058493          	mv	s1,a1
400035a4:	02b12a23          	sw	a1,52(sp)
400035a8:	239070ef          	jal	ra,4000afe0 <__floatsidf>
400035ac:	00040613          	mv	a2,s0
400035b0:	00048693          	mv	a3,s1
400035b4:	105060ef          	jal	ra,40009eb8 <__muldf3>
400035b8:	4000c7b7          	lui	a5,0x4000c
400035bc:	c707a603          	lw	a2,-912(a5) # 4000bc70 <__clz_tab+0x13c>
400035c0:	c747a683          	lw	a3,-908(a5)
400035c4:	fcc004b7          	lui	s1,0xfcc00
400035c8:	000a0913          	mv	s2,s4
400035cc:	4d0050ef          	jal	ra,40008a9c <__adddf3>
400035d0:	00050413          	mv	s0,a0
400035d4:	00b484b3          	add	s1,s1,a1
400035d8:	840ff06f          	j	40002618 <_dtoa_r+0x4d8>
400035dc:	04012603          	lw	a2,64(sp)
400035e0:	04412683          	lw	a3,68(sp)
400035e4:	c8042503          	lw	a0,-896(s0)
400035e8:	c8442583          	lw	a1,-892(s0)
400035ec:	03012823          	sw	a6,48(sp)
400035f0:	03112a23          	sw	a7,52(sp)
400035f4:	795060ef          	jal	ra,4000a588 <__subdf3>
400035f8:	03012803          	lw	a6,48(sp)
400035fc:	03412883          	lw	a7,52(sp)
40003600:	00080613          	mv	a2,a6
40003604:	00088693          	mv	a3,a7
40003608:	6a8060ef          	jal	ra,40009cb0 <__gedf2>
4000360c:	03000613          	li	a2,48
40003610:	00a04663          	bgtz	a0,4000361c <_dtoa_r+0x14dc>
40003614:	ca1ff06f          	j	400032b4 <_dtoa_r+0x1174>
40003618:	00070a13          	mv	s4,a4
4000361c:	fffa4783          	lbu	a5,-1(s4)
40003620:	fffa0713          	addi	a4,s4,-1
40003624:	fec78ae3          	beq	a5,a2,40003618 <_dtoa_r+0x14d8>
40003628:	9f8ff06f          	j	40002820 <_dtoa_r+0x6e0>
4000362c:	05812d03          	lw	s10,88(sp)
40003630:	000b0d93          	mv	s11,s6
40003634:	04c12783          	lw	a5,76(sp)
40003638:	00f12823          	sw	a5,16(sp)
4000363c:	c5cff06f          	j	40002a98 <_dtoa_r+0x958>
40003640:	a40510e3          	bnez	a0,40003080 <_dtoa_r+0xf40>
40003644:	001af793          	andi	a5,s5,1
40003648:	a2078ce3          	beqz	a5,40003080 <_dtoa_r+0xf40>
4000364c:	a71ff06f          	j	400030bc <_dtoa_r+0xf7c>
40003650:	00048593          	mv	a1,s1
40003654:	00000693          	li	a3,0
40003658:	00a00613          	li	a2,10
4000365c:	000d8513          	mv	a0,s11
40003660:	229010ef          	jal	ra,40005088 <__multadd>
40003664:	03812783          	lw	a5,56(sp)
40003668:	00050493          	mv	s1,a0
4000366c:	00f05663          	blez	a5,40003678 <_dtoa_r+0x1538>
40003670:	00f12c23          	sw	a5,24(sp)
40003674:	e6cff06f          	j	40002ce0 <_dtoa_r+0xba0>
40003678:	00200793          	li	a5,2
4000367c:	0197c863          	blt	a5,s9,4000368c <_dtoa_r+0x154c>
40003680:	03812783          	lw	a5,56(sp)
40003684:	00f12c23          	sw	a5,24(sp)
40003688:	e58ff06f          	j	40002ce0 <_dtoa_r+0xba0>
4000368c:	03812783          	lw	a5,56(sp)
40003690:	00f12c23          	sw	a5,24(sp)
40003694:	ab5ff06f          	j	40003148 <_dtoa_r+0x1008>
40003698:	e0d70063          	beq	a4,a3,40002c98 <_dtoa_r+0xb58>
4000369c:	03c00713          	li	a4,60
400036a0:	40f707b3          	sub	a5,a4,a5
400036a4:	f7cff06f          	j	40002e20 <_dtoa_r+0xce0>

400036a8 <__sflush_r>:
400036a8:	00c59783          	lh	a5,12(a1)
400036ac:	fe010113          	addi	sp,sp,-32
400036b0:	00912a23          	sw	s1,20(sp)
400036b4:	01079713          	slli	a4,a5,0x10
400036b8:	01075713          	srli	a4,a4,0x10
400036bc:	01312623          	sw	s3,12(sp)
400036c0:	00112e23          	sw	ra,28(sp)
400036c4:	00812c23          	sw	s0,24(sp)
400036c8:	01212823          	sw	s2,16(sp)
400036cc:	00877693          	andi	a3,a4,8
400036d0:	00058493          	mv	s1,a1
400036d4:	00050993          	mv	s3,a0
400036d8:	10069a63          	bnez	a3,400037ec <__sflush_r+0x144>
400036dc:	00001737          	lui	a4,0x1
400036e0:	80070713          	addi	a4,a4,-2048 # 800 <_stack_size>
400036e4:	0045a683          	lw	a3,4(a1)
400036e8:	00e7e7b3          	or	a5,a5,a4
400036ec:	00f59623          	sh	a5,12(a1)
400036f0:	1ed05263          	blez	a3,400038d4 <__sflush_r+0x22c>
400036f4:	0284a803          	lw	a6,40(s1) # fcc00028 <_bss_end+0xbcbf39a0>
400036f8:	0c080a63          	beqz	a6,400037cc <__sflush_r+0x124>
400036fc:	01079793          	slli	a5,a5,0x10
40003700:	0107d793          	srli	a5,a5,0x10
40003704:	0009a403          	lw	s0,0(s3)
40003708:	01379713          	slli	a4,a5,0x13
4000370c:	0009a023          	sw	zero,0(s3)
40003710:	1c075863          	bgez	a4,400038e0 <__sflush_r+0x238>
40003714:	0504a603          	lw	a2,80(s1)
40003718:	41f65693          	srai	a3,a2,0x1f
4000371c:	0047f793          	andi	a5,a5,4
40003720:	04078263          	beqz	a5,40003764 <__sflush_r+0xbc>
40003724:	0044a783          	lw	a5,4(s1)
40003728:	0304a583          	lw	a1,48(s1)
4000372c:	40f60733          	sub	a4,a2,a5
40003730:	41f7d793          	srai	a5,a5,0x1f
40003734:	00e63533          	sltu	a0,a2,a4
40003738:	40f686b3          	sub	a3,a3,a5
4000373c:	00070613          	mv	a2,a4
40003740:	40a686b3          	sub	a3,a3,a0
40003744:	02058063          	beqz	a1,40003764 <__sflush_r+0xbc>
40003748:	03c4a783          	lw	a5,60(s1)
4000374c:	40f70733          	sub	a4,a4,a5
40003750:	41f7d793          	srai	a5,a5,0x1f
40003754:	00e635b3          	sltu	a1,a2,a4
40003758:	40f686b3          	sub	a3,a3,a5
4000375c:	00070613          	mv	a2,a4
40003760:	40b686b3          	sub	a3,a3,a1
40003764:	01c4a583          	lw	a1,28(s1)
40003768:	00000713          	li	a4,0
4000376c:	00098513          	mv	a0,s3
40003770:	000800e7          	jalr	a6
40003774:	fff00793          	li	a5,-1
40003778:	0ef50c63          	beq	a0,a5,40003870 <__sflush_r+0x1c8>
4000377c:	00c4d783          	lhu	a5,12(s1)
40003780:	fffff737          	lui	a4,0xfffff
40003784:	7ff70713          	addi	a4,a4,2047 # fffff7ff <_bss_end+0xbfff3177>
40003788:	00e7f7b3          	and	a5,a5,a4
4000378c:	0104a683          	lw	a3,16(s1)
40003790:	01079793          	slli	a5,a5,0x10
40003794:	4107d793          	srai	a5,a5,0x10
40003798:	00f49623          	sh	a5,12(s1)
4000379c:	0004a223          	sw	zero,4(s1)
400037a0:	00d4a023          	sw	a3,0(s1)
400037a4:	01379713          	slli	a4,a5,0x13
400037a8:	12074263          	bltz	a4,400038cc <__sflush_r+0x224>
400037ac:	0304a583          	lw	a1,48(s1)
400037b0:	0089a023          	sw	s0,0(s3)
400037b4:	00058c63          	beqz	a1,400037cc <__sflush_r+0x124>
400037b8:	04048793          	addi	a5,s1,64
400037bc:	00f58663          	beq	a1,a5,400037c8 <__sflush_r+0x120>
400037c0:	00098513          	mv	a0,s3
400037c4:	6c0000ef          	jal	ra,40003e84 <_free_r>
400037c8:	0204a823          	sw	zero,48(s1)
400037cc:	00000513          	li	a0,0
400037d0:	01c12083          	lw	ra,28(sp)
400037d4:	01812403          	lw	s0,24(sp)
400037d8:	01412483          	lw	s1,20(sp)
400037dc:	01012903          	lw	s2,16(sp)
400037e0:	00c12983          	lw	s3,12(sp)
400037e4:	02010113          	addi	sp,sp,32
400037e8:	00008067          	ret
400037ec:	0105a903          	lw	s2,16(a1)
400037f0:	fc090ee3          	beqz	s2,400037cc <__sflush_r+0x124>
400037f4:	0005a403          	lw	s0,0(a1)
400037f8:	00377713          	andi	a4,a4,3
400037fc:	0125a023          	sw	s2,0(a1)
40003800:	41240433          	sub	s0,s0,s2
40003804:	00000793          	li	a5,0
40003808:	00071463          	bnez	a4,40003810 <__sflush_r+0x168>
4000380c:	0145a783          	lw	a5,20(a1)
40003810:	00f4a423          	sw	a5,8(s1)
40003814:	00804863          	bgtz	s0,40003824 <__sflush_r+0x17c>
40003818:	fb5ff06f          	j	400037cc <__sflush_r+0x124>
4000381c:	00a90933          	add	s2,s2,a0
40003820:	fa8056e3          	blez	s0,400037cc <__sflush_r+0x124>
40003824:	0244a783          	lw	a5,36(s1)
40003828:	01c4a583          	lw	a1,28(s1)
4000382c:	00040693          	mv	a3,s0
40003830:	00090613          	mv	a2,s2
40003834:	00098513          	mv	a0,s3
40003838:	000780e7          	jalr	a5
4000383c:	40a40433          	sub	s0,s0,a0
40003840:	fca04ee3          	bgtz	a0,4000381c <__sflush_r+0x174>
40003844:	00c4d783          	lhu	a5,12(s1)
40003848:	01c12083          	lw	ra,28(sp)
4000384c:	fff00513          	li	a0,-1
40003850:	0407e793          	ori	a5,a5,64
40003854:	00f49623          	sh	a5,12(s1)
40003858:	01812403          	lw	s0,24(sp)
4000385c:	01412483          	lw	s1,20(sp)
40003860:	01012903          	lw	s2,16(sp)
40003864:	00c12983          	lw	s3,12(sp)
40003868:	02010113          	addi	sp,sp,32
4000386c:	00008067          	ret
40003870:	f0a596e3          	bne	a1,a0,4000377c <__sflush_r+0xd4>
40003874:	0009a683          	lw	a3,0(s3)
40003878:	01d00793          	li	a5,29
4000387c:	fcd7e4e3          	bltu	a5,a3,40003844 <__sflush_r+0x19c>
40003880:	204007b7          	lui	a5,0x20400
40003884:	00178793          	addi	a5,a5,1 # 20400001 <_heap_size+0x203fe001>
40003888:	00d7d7b3          	srl	a5,a5,a3
4000388c:	fff7c793          	not	a5,a5
40003890:	0017f793          	andi	a5,a5,1
40003894:	fa0798e3          	bnez	a5,40003844 <__sflush_r+0x19c>
40003898:	00c4d783          	lhu	a5,12(s1)
4000389c:	fffff737          	lui	a4,0xfffff
400038a0:	7ff70713          	addi	a4,a4,2047 # fffff7ff <_bss_end+0xbfff3177>
400038a4:	00e7f7b3          	and	a5,a5,a4
400038a8:	0104a603          	lw	a2,16(s1)
400038ac:	01079793          	slli	a5,a5,0x10
400038b0:	4107d793          	srai	a5,a5,0x10
400038b4:	00f49623          	sh	a5,12(s1)
400038b8:	0004a223          	sw	zero,4(s1)
400038bc:	00c4a023          	sw	a2,0(s1)
400038c0:	01379713          	slli	a4,a5,0x13
400038c4:	ee0754e3          	bgez	a4,400037ac <__sflush_r+0x104>
400038c8:	ee0692e3          	bnez	a3,400037ac <__sflush_r+0x104>
400038cc:	04a4a823          	sw	a0,80(s1)
400038d0:	eddff06f          	j	400037ac <__sflush_r+0x104>
400038d4:	03c5a703          	lw	a4,60(a1)
400038d8:	e0e04ee3          	bgtz	a4,400036f4 <__sflush_r+0x4c>
400038dc:	ef1ff06f          	j	400037cc <__sflush_r+0x124>
400038e0:	01c4a583          	lw	a1,28(s1)
400038e4:	00000613          	li	a2,0
400038e8:	00000693          	li	a3,0
400038ec:	00100713          	li	a4,1
400038f0:	00098513          	mv	a0,s3
400038f4:	000800e7          	jalr	a6
400038f8:	fff00793          	li	a5,-1
400038fc:	00050613          	mv	a2,a0
40003900:	00058693          	mv	a3,a1
40003904:	00f50863          	beq	a0,a5,40003914 <__sflush_r+0x26c>
40003908:	00c4d783          	lhu	a5,12(s1)
4000390c:	0284a803          	lw	a6,40(s1)
40003910:	e0dff06f          	j	4000371c <__sflush_r+0x74>
40003914:	fea59ae3          	bne	a1,a0,40003908 <__sflush_r+0x260>
40003918:	0009a783          	lw	a5,0(s3)
4000391c:	fe0786e3          	beqz	a5,40003908 <__sflush_r+0x260>
40003920:	01d00713          	li	a4,29
40003924:	00e78663          	beq	a5,a4,40003930 <__sflush_r+0x288>
40003928:	01600713          	li	a4,22
4000392c:	f0e79ce3          	bne	a5,a4,40003844 <__sflush_r+0x19c>
40003930:	0089a023          	sw	s0,0(s3)
40003934:	00000513          	li	a0,0
40003938:	e99ff06f          	j	400037d0 <__sflush_r+0x128>

4000393c <_fflush_r>:
4000393c:	fe010113          	addi	sp,sp,-32
40003940:	00812c23          	sw	s0,24(sp)
40003944:	00112e23          	sw	ra,28(sp)
40003948:	00050413          	mv	s0,a0
4000394c:	00050663          	beqz	a0,40003958 <_fflush_r+0x1c>
40003950:	03852783          	lw	a5,56(a0)
40003954:	02078a63          	beqz	a5,40003988 <_fflush_r+0x4c>
40003958:	00c59783          	lh	a5,12(a1)
4000395c:	00079c63          	bnez	a5,40003974 <_fflush_r+0x38>
40003960:	01c12083          	lw	ra,28(sp)
40003964:	00000513          	li	a0,0
40003968:	01812403          	lw	s0,24(sp)
4000396c:	02010113          	addi	sp,sp,32
40003970:	00008067          	ret
40003974:	00040513          	mv	a0,s0
40003978:	01c12083          	lw	ra,28(sp)
4000397c:	01812403          	lw	s0,24(sp)
40003980:	02010113          	addi	sp,sp,32
40003984:	d25ff06f          	j	400036a8 <__sflush_r>
40003988:	00b12623          	sw	a1,12(sp)
4000398c:	374000ef          	jal	ra,40003d00 <__sinit>
40003990:	00c12583          	lw	a1,12(sp)
40003994:	fc5ff06f          	j	40003958 <_fflush_r+0x1c>

40003998 <fflush>:
40003998:	00050593          	mv	a1,a0
4000399c:	00050863          	beqz	a0,400039ac <fflush+0x14>
400039a0:	4000c7b7          	lui	a5,0x4000c
400039a4:	62c7a503          	lw	a0,1580(a5) # 4000c62c <_impure_ptr>
400039a8:	f95ff06f          	j	4000393c <_fflush_r>
400039ac:	4000c7b7          	lui	a5,0x4000c
400039b0:	6287a503          	lw	a0,1576(a5) # 4000c628 <_global_impure_ptr>
400039b4:	400045b7          	lui	a1,0x40004
400039b8:	93c58593          	addi	a1,a1,-1732 # 4000393c <_fflush_r>
400039bc:	0750006f          	j	40004230 <_fwalk_reent>

400039c0 <__fp_unlock>:
400039c0:	00000513          	li	a0,0
400039c4:	00008067          	ret

400039c8 <_cleanup_r>:
400039c8:	400075b7          	lui	a1,0x40007
400039cc:	5fc58593          	addi	a1,a1,1532 # 400075fc <_fclose_r>
400039d0:	0610006f          	j	40004230 <_fwalk_reent>

400039d4 <__sinit.part.1>:
400039d4:	fe010113          	addi	sp,sp,-32
400039d8:	400047b7          	lui	a5,0x40004
400039dc:	00112e23          	sw	ra,28(sp)
400039e0:	00812c23          	sw	s0,24(sp)
400039e4:	00912a23          	sw	s1,20(sp)
400039e8:	00452403          	lw	s0,4(a0)
400039ec:	01212823          	sw	s2,16(sp)
400039f0:	01312623          	sw	s3,12(sp)
400039f4:	01412423          	sw	s4,8(sp)
400039f8:	01512223          	sw	s5,4(sp)
400039fc:	01612023          	sw	s6,0(sp)
40003a00:	9c878793          	addi	a5,a5,-1592 # 400039c8 <_cleanup_r>
40003a04:	02f52e23          	sw	a5,60(a0)
40003a08:	2ec50713          	addi	a4,a0,748
40003a0c:	00300793          	li	a5,3
40003a10:	2ee52423          	sw	a4,744(a0)
40003a14:	2ef52223          	sw	a5,740(a0)
40003a18:	2e052023          	sw	zero,736(a0)
40003a1c:	00400793          	li	a5,4
40003a20:	00050913          	mv	s2,a0
40003a24:	00f41623          	sh	a5,12(s0)
40003a28:	00800613          	li	a2,8
40003a2c:	00000593          	li	a1,0
40003a30:	00042023          	sw	zero,0(s0)
40003a34:	00042223          	sw	zero,4(s0)
40003a38:	00042423          	sw	zero,8(s0)
40003a3c:	06042223          	sw	zero,100(s0)
40003a40:	00041723          	sh	zero,14(s0)
40003a44:	00042823          	sw	zero,16(s0)
40003a48:	00042a23          	sw	zero,20(s0)
40003a4c:	00042c23          	sw	zero,24(s0)
40003a50:	05c40513          	addi	a0,s0,92
40003a54:	488010ef          	jal	ra,40004edc <memset>
40003a58:	40006b37          	lui	s6,0x40006
40003a5c:	00892483          	lw	s1,8(s2)
40003a60:	40006ab7          	lui	s5,0x40006
40003a64:	40006a37          	lui	s4,0x40006
40003a68:	400069b7          	lui	s3,0x40006
40003a6c:	034b0b13          	addi	s6,s6,52 # 40006034 <__sread>
40003a70:	098a8a93          	addi	s5,s5,152 # 40006098 <__swrite>
40003a74:	11ca0a13          	addi	s4,s4,284 # 4000611c <__sseek>
40003a78:	19098993          	addi	s3,s3,400 # 40006190 <__sclose>
40003a7c:	03642023          	sw	s6,32(s0)
40003a80:	03542223          	sw	s5,36(s0)
40003a84:	03442423          	sw	s4,40(s0)
40003a88:	03342623          	sw	s3,44(s0)
40003a8c:	00842e23          	sw	s0,28(s0)
40003a90:	00900793          	li	a5,9
40003a94:	00f49623          	sh	a5,12(s1)
40003a98:	00100793          	li	a5,1
40003a9c:	00f49723          	sh	a5,14(s1)
40003aa0:	00800613          	li	a2,8
40003aa4:	00000593          	li	a1,0
40003aa8:	0004a023          	sw	zero,0(s1)
40003aac:	0004a223          	sw	zero,4(s1)
40003ab0:	0004a423          	sw	zero,8(s1)
40003ab4:	0604a223          	sw	zero,100(s1)
40003ab8:	0004a823          	sw	zero,16(s1)
40003abc:	0004aa23          	sw	zero,20(s1)
40003ac0:	0004ac23          	sw	zero,24(s1)
40003ac4:	05c48513          	addi	a0,s1,92
40003ac8:	414010ef          	jal	ra,40004edc <memset>
40003acc:	00c92403          	lw	s0,12(s2)
40003ad0:	01200793          	li	a5,18
40003ad4:	0364a023          	sw	s6,32(s1)
40003ad8:	0354a223          	sw	s5,36(s1)
40003adc:	0344a423          	sw	s4,40(s1)
40003ae0:	0334a623          	sw	s3,44(s1)
40003ae4:	0094ae23          	sw	s1,28(s1)
40003ae8:	00f41623          	sh	a5,12(s0)
40003aec:	00200793          	li	a5,2
40003af0:	00f41723          	sh	a5,14(s0)
40003af4:	00042023          	sw	zero,0(s0)
40003af8:	00042223          	sw	zero,4(s0)
40003afc:	00042423          	sw	zero,8(s0)
40003b00:	06042223          	sw	zero,100(s0)
40003b04:	00042823          	sw	zero,16(s0)
40003b08:	00042a23          	sw	zero,20(s0)
40003b0c:	00042c23          	sw	zero,24(s0)
40003b10:	05c40513          	addi	a0,s0,92
40003b14:	00800613          	li	a2,8
40003b18:	00000593          	li	a1,0
40003b1c:	3c0010ef          	jal	ra,40004edc <memset>
40003b20:	01c12083          	lw	ra,28(sp)
40003b24:	03642023          	sw	s6,32(s0)
40003b28:	03542223          	sw	s5,36(s0)
40003b2c:	03442423          	sw	s4,40(s0)
40003b30:	03342623          	sw	s3,44(s0)
40003b34:	00842e23          	sw	s0,28(s0)
40003b38:	00100793          	li	a5,1
40003b3c:	02f92c23          	sw	a5,56(s2)
40003b40:	01812403          	lw	s0,24(sp)
40003b44:	01412483          	lw	s1,20(sp)
40003b48:	01012903          	lw	s2,16(sp)
40003b4c:	00c12983          	lw	s3,12(sp)
40003b50:	00812a03          	lw	s4,8(sp)
40003b54:	00412a83          	lw	s5,4(sp)
40003b58:	00012b03          	lw	s6,0(sp)
40003b5c:	02010113          	addi	sp,sp,32
40003b60:	00008067          	ret

40003b64 <__fp_lock>:
40003b64:	00000513          	li	a0,0
40003b68:	00008067          	ret

40003b6c <__sfmoreglue>:
40003b6c:	ff010113          	addi	sp,sp,-16
40003b70:	00912223          	sw	s1,4(sp)
40003b74:	06800613          	li	a2,104
40003b78:	fff58493          	addi	s1,a1,-1
40003b7c:	02c484b3          	mul	s1,s1,a2
40003b80:	01212023          	sw	s2,0(sp)
40003b84:	00058913          	mv	s2,a1
40003b88:	00812423          	sw	s0,8(sp)
40003b8c:	00112623          	sw	ra,12(sp)
40003b90:	07448593          	addi	a1,s1,116
40003b94:	205000ef          	jal	ra,40004598 <_malloc_r>
40003b98:	00050413          	mv	s0,a0
40003b9c:	02050063          	beqz	a0,40003bbc <__sfmoreglue+0x50>
40003ba0:	00c50513          	addi	a0,a0,12
40003ba4:	00042023          	sw	zero,0(s0)
40003ba8:	01242223          	sw	s2,4(s0)
40003bac:	00a42423          	sw	a0,8(s0)
40003bb0:	06848613          	addi	a2,s1,104
40003bb4:	00000593          	li	a1,0
40003bb8:	324010ef          	jal	ra,40004edc <memset>
40003bbc:	00c12083          	lw	ra,12(sp)
40003bc0:	00040513          	mv	a0,s0
40003bc4:	00412483          	lw	s1,4(sp)
40003bc8:	00812403          	lw	s0,8(sp)
40003bcc:	00012903          	lw	s2,0(sp)
40003bd0:	01010113          	addi	sp,sp,16
40003bd4:	00008067          	ret

40003bd8 <__sfp>:
40003bd8:	fe010113          	addi	sp,sp,-32
40003bdc:	4000c7b7          	lui	a5,0x4000c
40003be0:	01212823          	sw	s2,16(sp)
40003be4:	6287a903          	lw	s2,1576(a5) # 4000c628 <_global_impure_ptr>
40003be8:	01312623          	sw	s3,12(sp)
40003bec:	00112e23          	sw	ra,28(sp)
40003bf0:	03892783          	lw	a5,56(s2)
40003bf4:	00812c23          	sw	s0,24(sp)
40003bf8:	00912a23          	sw	s1,20(sp)
40003bfc:	01412423          	sw	s4,8(sp)
40003c00:	00050993          	mv	s3,a0
40003c04:	0a078c63          	beqz	a5,40003cbc <__sfp+0xe4>
40003c08:	2e090913          	addi	s2,s2,736
40003c0c:	fff00493          	li	s1,-1
40003c10:	00400a13          	li	s4,4
40003c14:	00492783          	lw	a5,4(s2)
40003c18:	00892403          	lw	s0,8(s2)
40003c1c:	fff78793          	addi	a5,a5,-1
40003c20:	0007da63          	bgez	a5,40003c34 <__sfp+0x5c>
40003c24:	0880006f          	j	40003cac <__sfp+0xd4>
40003c28:	fff78793          	addi	a5,a5,-1
40003c2c:	06840413          	addi	s0,s0,104
40003c30:	06978e63          	beq	a5,s1,40003cac <__sfp+0xd4>
40003c34:	00c41703          	lh	a4,12(s0)
40003c38:	fe0718e3          	bnez	a4,40003c28 <__sfp+0x50>
40003c3c:	fff00793          	li	a5,-1
40003c40:	00f41723          	sh	a5,14(s0)
40003c44:	00100793          	li	a5,1
40003c48:	00f41623          	sh	a5,12(s0)
40003c4c:	06042223          	sw	zero,100(s0)
40003c50:	00042023          	sw	zero,0(s0)
40003c54:	00042423          	sw	zero,8(s0)
40003c58:	00042223          	sw	zero,4(s0)
40003c5c:	00042823          	sw	zero,16(s0)
40003c60:	00042a23          	sw	zero,20(s0)
40003c64:	00042c23          	sw	zero,24(s0)
40003c68:	00800613          	li	a2,8
40003c6c:	00000593          	li	a1,0
40003c70:	05c40513          	addi	a0,s0,92
40003c74:	268010ef          	jal	ra,40004edc <memset>
40003c78:	02042823          	sw	zero,48(s0)
40003c7c:	02042a23          	sw	zero,52(s0)
40003c80:	04042223          	sw	zero,68(s0)
40003c84:	04042423          	sw	zero,72(s0)
40003c88:	01c12083          	lw	ra,28(sp)
40003c8c:	00040513          	mv	a0,s0
40003c90:	01412483          	lw	s1,20(sp)
40003c94:	01812403          	lw	s0,24(sp)
40003c98:	01012903          	lw	s2,16(sp)
40003c9c:	00c12983          	lw	s3,12(sp)
40003ca0:	00812a03          	lw	s4,8(sp)
40003ca4:	02010113          	addi	sp,sp,32
40003ca8:	00008067          	ret
40003cac:	00092503          	lw	a0,0(s2)
40003cb0:	00050c63          	beqz	a0,40003cc8 <__sfp+0xf0>
40003cb4:	00050913          	mv	s2,a0
40003cb8:	f5dff06f          	j	40003c14 <__sfp+0x3c>
40003cbc:	00090513          	mv	a0,s2
40003cc0:	d15ff0ef          	jal	ra,400039d4 <__sinit.part.1>
40003cc4:	f45ff06f          	j	40003c08 <__sfp+0x30>
40003cc8:	000a0593          	mv	a1,s4
40003ccc:	00098513          	mv	a0,s3
40003cd0:	e9dff0ef          	jal	ra,40003b6c <__sfmoreglue>
40003cd4:	00a92023          	sw	a0,0(s2)
40003cd8:	fc051ee3          	bnez	a0,40003cb4 <__sfp+0xdc>
40003cdc:	00c00793          	li	a5,12
40003ce0:	00f9a023          	sw	a5,0(s3)
40003ce4:	00000413          	li	s0,0
40003ce8:	fa1ff06f          	j	40003c88 <__sfp+0xb0>

40003cec <_cleanup>:
40003cec:	4000c7b7          	lui	a5,0x4000c
40003cf0:	6287a503          	lw	a0,1576(a5) # 4000c628 <_global_impure_ptr>
40003cf4:	400075b7          	lui	a1,0x40007
40003cf8:	5fc58593          	addi	a1,a1,1532 # 400075fc <_fclose_r>
40003cfc:	5340006f          	j	40004230 <_fwalk_reent>

40003d00 <__sinit>:
40003d00:	03852783          	lw	a5,56(a0)
40003d04:	00078463          	beqz	a5,40003d0c <__sinit+0xc>
40003d08:	00008067          	ret
40003d0c:	cc9ff06f          	j	400039d4 <__sinit.part.1>

40003d10 <__sfp_lock_acquire>:
40003d10:	00008067          	ret

40003d14 <__sfp_lock_release>:
40003d14:	00008067          	ret

40003d18 <__sinit_lock_acquire>:
40003d18:	00008067          	ret

40003d1c <__sinit_lock_release>:
40003d1c:	00008067          	ret

40003d20 <__fp_lock_all>:
40003d20:	4000c7b7          	lui	a5,0x4000c
40003d24:	62c7a503          	lw	a0,1580(a5) # 4000c62c <_impure_ptr>
40003d28:	400045b7          	lui	a1,0x40004
40003d2c:	b6458593          	addi	a1,a1,-1180 # 40003b64 <__fp_lock>
40003d30:	4500006f          	j	40004180 <_fwalk>

40003d34 <__fp_unlock_all>:
40003d34:	4000c7b7          	lui	a5,0x4000c
40003d38:	62c7a503          	lw	a0,1580(a5) # 4000c62c <_impure_ptr>
40003d3c:	400045b7          	lui	a1,0x40004
40003d40:	9c058593          	addi	a1,a1,-1600 # 400039c0 <__fp_unlock>
40003d44:	43c0006f          	j	40004180 <_fwalk>

40003d48 <_malloc_trim_r>:
40003d48:	fe010113          	addi	sp,sp,-32
40003d4c:	01212823          	sw	s2,16(sp)
40003d50:	4000c937          	lui	s2,0x4000c
40003d54:	00812c23          	sw	s0,24(sp)
40003d58:	00912a23          	sw	s1,20(sp)
40003d5c:	01312623          	sw	s3,12(sp)
40003d60:	01412423          	sw	s4,8(sp)
40003d64:	00112e23          	sw	ra,28(sp)
40003d68:	00058a13          	mv	s4,a1
40003d6c:	00050993          	mv	s3,a0
40003d70:	22090913          	addi	s2,s2,544 # 4000c220 <__malloc_av_>
40003d74:	244010ef          	jal	ra,40004fb8 <__malloc_lock>
40003d78:	00892703          	lw	a4,8(s2)
40003d7c:	000017b7          	lui	a5,0x1
40003d80:	fef78413          	addi	s0,a5,-17 # fef <_stack_size+0x7ef>
40003d84:	00472483          	lw	s1,4(a4)
40003d88:	41440433          	sub	s0,s0,s4
40003d8c:	ffc4f493          	andi	s1,s1,-4
40003d90:	00940433          	add	s0,s0,s1
40003d94:	00c45413          	srli	s0,s0,0xc
40003d98:	fff40413          	addi	s0,s0,-1
40003d9c:	00c41413          	slli	s0,s0,0xc
40003da0:	00f44e63          	blt	s0,a5,40003dbc <_malloc_trim_r+0x74>
40003da4:	00000593          	li	a1,0
40003da8:	00098513          	mv	a0,s3
40003dac:	228020ef          	jal	ra,40005fd4 <_sbrk_r>
40003db0:	00892783          	lw	a5,8(s2)
40003db4:	009787b3          	add	a5,a5,s1
40003db8:	02f50863          	beq	a0,a5,40003de8 <_malloc_trim_r+0xa0>
40003dbc:	00098513          	mv	a0,s3
40003dc0:	1fc010ef          	jal	ra,40004fbc <__malloc_unlock>
40003dc4:	01c12083          	lw	ra,28(sp)
40003dc8:	00000513          	li	a0,0
40003dcc:	01812403          	lw	s0,24(sp)
40003dd0:	01412483          	lw	s1,20(sp)
40003dd4:	01012903          	lw	s2,16(sp)
40003dd8:	00c12983          	lw	s3,12(sp)
40003ddc:	00812a03          	lw	s4,8(sp)
40003de0:	02010113          	addi	sp,sp,32
40003de4:	00008067          	ret
40003de8:	408005b3          	neg	a1,s0
40003dec:	00098513          	mv	a0,s3
40003df0:	1e4020ef          	jal	ra,40005fd4 <_sbrk_r>
40003df4:	fff00793          	li	a5,-1
40003df8:	04f50863          	beq	a0,a5,40003e48 <_malloc_trim_r+0x100>
40003dfc:	4000c737          	lui	a4,0x4000c
40003e00:	65c72783          	lw	a5,1628(a4) # 4000c65c <__malloc_current_mallinfo>
40003e04:	00892683          	lw	a3,8(s2)
40003e08:	408484b3          	sub	s1,s1,s0
40003e0c:	0014e493          	ori	s1,s1,1
40003e10:	40878433          	sub	s0,a5,s0
40003e14:	00098513          	mv	a0,s3
40003e18:	0096a223          	sw	s1,4(a3)
40003e1c:	64872e23          	sw	s0,1628(a4)
40003e20:	19c010ef          	jal	ra,40004fbc <__malloc_unlock>
40003e24:	01c12083          	lw	ra,28(sp)
40003e28:	00100513          	li	a0,1
40003e2c:	01812403          	lw	s0,24(sp)
40003e30:	01412483          	lw	s1,20(sp)
40003e34:	01012903          	lw	s2,16(sp)
40003e38:	00c12983          	lw	s3,12(sp)
40003e3c:	00812a03          	lw	s4,8(sp)
40003e40:	02010113          	addi	sp,sp,32
40003e44:	00008067          	ret
40003e48:	00000593          	li	a1,0
40003e4c:	00098513          	mv	a0,s3
40003e50:	184020ef          	jal	ra,40005fd4 <_sbrk_r>
40003e54:	00892703          	lw	a4,8(s2)
40003e58:	00f00693          	li	a3,15
40003e5c:	40e507b3          	sub	a5,a0,a4
40003e60:	f4f6dee3          	ble	a5,a3,40003dbc <_malloc_trim_r+0x74>
40003e64:	4000c6b7          	lui	a3,0x4000c
40003e68:	6346a683          	lw	a3,1588(a3) # 4000c634 <__malloc_sbrk_base>
40003e6c:	0017e793          	ori	a5,a5,1
40003e70:	00f72223          	sw	a5,4(a4)
40003e74:	40d50533          	sub	a0,a0,a3
40003e78:	4000c6b7          	lui	a3,0x4000c
40003e7c:	64a6ae23          	sw	a0,1628(a3) # 4000c65c <__malloc_current_mallinfo>
40003e80:	f3dff06f          	j	40003dbc <_malloc_trim_r+0x74>

40003e84 <_free_r>:
40003e84:	0e058e63          	beqz	a1,40003f80 <_free_r+0xfc>
40003e88:	ff010113          	addi	sp,sp,-16
40003e8c:	00812423          	sw	s0,8(sp)
40003e90:	00912223          	sw	s1,4(sp)
40003e94:	00058413          	mv	s0,a1
40003e98:	00050493          	mv	s1,a0
40003e9c:	00112623          	sw	ra,12(sp)
40003ea0:	118010ef          	jal	ra,40004fb8 <__malloc_lock>
40003ea4:	ffc42503          	lw	a0,-4(s0)
40003ea8:	ff840693          	addi	a3,s0,-8
40003eac:	4000c5b7          	lui	a1,0x4000c
40003eb0:	ffe57793          	andi	a5,a0,-2
40003eb4:	00f68633          	add	a2,a3,a5
40003eb8:	22058593          	addi	a1,a1,544 # 4000c220 <__malloc_av_>
40003ebc:	00462703          	lw	a4,4(a2)
40003ec0:	0085a803          	lw	a6,8(a1)
40003ec4:	ffc77713          	andi	a4,a4,-4
40003ec8:	15060e63          	beq	a2,a6,40004024 <_free_r+0x1a0>
40003ecc:	00e62223          	sw	a4,4(a2)
40003ed0:	00157513          	andi	a0,a0,1
40003ed4:	02051663          	bnez	a0,40003f00 <_free_r+0x7c>
40003ed8:	ff842883          	lw	a7,-8(s0)
40003edc:	4000c537          	lui	a0,0x4000c
40003ee0:	22850513          	addi	a0,a0,552 # 4000c228 <__malloc_av_+0x8>
40003ee4:	411686b3          	sub	a3,a3,a7
40003ee8:	0086a803          	lw	a6,8(a3)
40003eec:	011787b3          	add	a5,a5,a7
40003ef0:	18a80863          	beq	a6,a0,40004080 <_free_r+0x1fc>
40003ef4:	00c6a503          	lw	a0,12(a3)
40003ef8:	00a82623          	sw	a0,12(a6)
40003efc:	01052423          	sw	a6,8(a0)
40003f00:	00e60533          	add	a0,a2,a4
40003f04:	00452503          	lw	a0,4(a0)
40003f08:	00157513          	andi	a0,a0,1
40003f0c:	0e050263          	beqz	a0,40003ff0 <_free_r+0x16c>
40003f10:	0017e713          	ori	a4,a5,1
40003f14:	00e6a223          	sw	a4,4(a3)
40003f18:	00f68733          	add	a4,a3,a5
40003f1c:	00f72023          	sw	a5,0(a4)
40003f20:	1ff00713          	li	a4,511
40003f24:	06f76063          	bltu	a4,a5,40003f84 <_free_r+0x100>
40003f28:	0037d793          	srli	a5,a5,0x3
40003f2c:	00178713          	addi	a4,a5,1
40003f30:	00371713          	slli	a4,a4,0x3
40003f34:	0045a803          	lw	a6,4(a1)
40003f38:	00e58733          	add	a4,a1,a4
40003f3c:	00072503          	lw	a0,0(a4)
40003f40:	4027d613          	srai	a2,a5,0x2
40003f44:	00100793          	li	a5,1
40003f48:	00c797b3          	sll	a5,a5,a2
40003f4c:	0107e7b3          	or	a5,a5,a6
40003f50:	ff870613          	addi	a2,a4,-8
40003f54:	00c6a623          	sw	a2,12(a3)
40003f58:	00a6a423          	sw	a0,8(a3)
40003f5c:	00f5a223          	sw	a5,4(a1)
40003f60:	00d72023          	sw	a3,0(a4)
40003f64:	00d52623          	sw	a3,12(a0)
40003f68:	00048513          	mv	a0,s1
40003f6c:	00c12083          	lw	ra,12(sp)
40003f70:	00812403          	lw	s0,8(sp)
40003f74:	00412483          	lw	s1,4(sp)
40003f78:	01010113          	addi	sp,sp,16
40003f7c:	0400106f          	j	40004fbc <__malloc_unlock>
40003f80:	00008067          	ret
40003f84:	0097d713          	srli	a4,a5,0x9
40003f88:	00400613          	li	a2,4
40003f8c:	12e66663          	bltu	a2,a4,400040b8 <_free_r+0x234>
40003f90:	0067d713          	srli	a4,a5,0x6
40003f94:	03970513          	addi	a0,a4,57
40003f98:	03870613          	addi	a2,a4,56
40003f9c:	00351513          	slli	a0,a0,0x3
40003fa0:	00a58533          	add	a0,a1,a0
40003fa4:	00052703          	lw	a4,0(a0)
40003fa8:	ff850513          	addi	a0,a0,-8
40003fac:	12e50263          	beq	a0,a4,400040d0 <_free_r+0x24c>
40003fb0:	00472603          	lw	a2,4(a4)
40003fb4:	ffc67613          	andi	a2,a2,-4
40003fb8:	0cc7f063          	bleu	a2,a5,40004078 <_free_r+0x1f4>
40003fbc:	00872703          	lw	a4,8(a4)
40003fc0:	fee518e3          	bne	a0,a4,40003fb0 <_free_r+0x12c>
40003fc4:	00c52783          	lw	a5,12(a0)
40003fc8:	00a6a423          	sw	a0,8(a3)
40003fcc:	00f6a623          	sw	a5,12(a3)
40003fd0:	00d7a423          	sw	a3,8(a5)
40003fd4:	00d52623          	sw	a3,12(a0)
40003fd8:	00c12083          	lw	ra,12(sp)
40003fdc:	00048513          	mv	a0,s1
40003fe0:	00812403          	lw	s0,8(sp)
40003fe4:	00412483          	lw	s1,4(sp)
40003fe8:	01010113          	addi	sp,sp,16
40003fec:	7d10006f          	j	40004fbc <__malloc_unlock>
40003ff0:	00862503          	lw	a0,8(a2)
40003ff4:	4000c837          	lui	a6,0x4000c
40003ff8:	22880813          	addi	a6,a6,552 # 4000c228 <__malloc_av_+0x8>
40003ffc:	00e787b3          	add	a5,a5,a4
40004000:	0f050863          	beq	a0,a6,400040f0 <_free_r+0x26c>
40004004:	00c62803          	lw	a6,12(a2)
40004008:	0017e613          	ori	a2,a5,1
4000400c:	00f68733          	add	a4,a3,a5
40004010:	01052623          	sw	a6,12(a0)
40004014:	00a82423          	sw	a0,8(a6)
40004018:	00c6a223          	sw	a2,4(a3)
4000401c:	00f72023          	sw	a5,0(a4)
40004020:	f01ff06f          	j	40003f20 <_free_r+0x9c>
40004024:	00157513          	andi	a0,a0,1
40004028:	00e787b3          	add	a5,a5,a4
4000402c:	02051063          	bnez	a0,4000404c <_free_r+0x1c8>
40004030:	ff842503          	lw	a0,-8(s0)
40004034:	40a686b3          	sub	a3,a3,a0
40004038:	00c6a703          	lw	a4,12(a3)
4000403c:	0086a603          	lw	a2,8(a3)
40004040:	00a787b3          	add	a5,a5,a0
40004044:	00e62623          	sw	a4,12(a2)
40004048:	00c72423          	sw	a2,8(a4)
4000404c:	4000c737          	lui	a4,0x4000c
40004050:	0017e613          	ori	a2,a5,1
40004054:	63872703          	lw	a4,1592(a4) # 4000c638 <__malloc_trim_threshold>
40004058:	00c6a223          	sw	a2,4(a3)
4000405c:	00d5a423          	sw	a3,8(a1)
40004060:	f0e7e4e3          	bltu	a5,a4,40003f68 <_free_r+0xe4>
40004064:	4000c7b7          	lui	a5,0x4000c
40004068:	6547a583          	lw	a1,1620(a5) # 4000c654 <__malloc_top_pad>
4000406c:	00048513          	mv	a0,s1
40004070:	cd9ff0ef          	jal	ra,40003d48 <_malloc_trim_r>
40004074:	ef5ff06f          	j	40003f68 <_free_r+0xe4>
40004078:	00070513          	mv	a0,a4
4000407c:	f49ff06f          	j	40003fc4 <_free_r+0x140>
40004080:	00e605b3          	add	a1,a2,a4
40004084:	0045a583          	lw	a1,4(a1)
40004088:	0015f593          	andi	a1,a1,1
4000408c:	0e059263          	bnez	a1,40004170 <_free_r+0x2ec>
40004090:	00862583          	lw	a1,8(a2)
40004094:	00c62603          	lw	a2,12(a2)
40004098:	00f707b3          	add	a5,a4,a5
4000409c:	0017e713          	ori	a4,a5,1
400040a0:	00c5a623          	sw	a2,12(a1)
400040a4:	00b62423          	sw	a1,8(a2)
400040a8:	00e6a223          	sw	a4,4(a3)
400040ac:	00f686b3          	add	a3,a3,a5
400040b0:	00f6a023          	sw	a5,0(a3)
400040b4:	eb5ff06f          	j	40003f68 <_free_r+0xe4>
400040b8:	01400613          	li	a2,20
400040bc:	04e66c63          	bltu	a2,a4,40004114 <_free_r+0x290>
400040c0:	05c70513          	addi	a0,a4,92
400040c4:	05b70613          	addi	a2,a4,91
400040c8:	00351513          	slli	a0,a0,0x3
400040cc:	ed5ff06f          	j	40003fa0 <_free_r+0x11c>
400040d0:	0045a803          	lw	a6,4(a1)
400040d4:	40265713          	srai	a4,a2,0x2
400040d8:	00100793          	li	a5,1
400040dc:	00e797b3          	sll	a5,a5,a4
400040e0:	0107e7b3          	or	a5,a5,a6
400040e4:	00f5a223          	sw	a5,4(a1)
400040e8:	00050793          	mv	a5,a0
400040ec:	eddff06f          	j	40003fc8 <_free_r+0x144>
400040f0:	00d5aa23          	sw	a3,20(a1)
400040f4:	00d5a823          	sw	a3,16(a1)
400040f8:	0017e713          	ori	a4,a5,1
400040fc:	00a6a623          	sw	a0,12(a3)
40004100:	00a6a423          	sw	a0,8(a3)
40004104:	00e6a223          	sw	a4,4(a3)
40004108:	00f686b3          	add	a3,a3,a5
4000410c:	00f6a023          	sw	a5,0(a3)
40004110:	e59ff06f          	j	40003f68 <_free_r+0xe4>
40004114:	05400613          	li	a2,84
40004118:	00e66c63          	bltu	a2,a4,40004130 <_free_r+0x2ac>
4000411c:	00c7d713          	srli	a4,a5,0xc
40004120:	06f70513          	addi	a0,a4,111
40004124:	06e70613          	addi	a2,a4,110
40004128:	00351513          	slli	a0,a0,0x3
4000412c:	e75ff06f          	j	40003fa0 <_free_r+0x11c>
40004130:	15400613          	li	a2,340
40004134:	00e66c63          	bltu	a2,a4,4000414c <_free_r+0x2c8>
40004138:	00f7d713          	srli	a4,a5,0xf
4000413c:	07870513          	addi	a0,a4,120
40004140:	07770613          	addi	a2,a4,119
40004144:	00351513          	slli	a0,a0,0x3
40004148:	e59ff06f          	j	40003fa0 <_free_r+0x11c>
4000414c:	55400813          	li	a6,1364
40004150:	3f800513          	li	a0,1016
40004154:	07e00613          	li	a2,126
40004158:	e4e864e3          	bltu	a6,a4,40003fa0 <_free_r+0x11c>
4000415c:	0127d713          	srli	a4,a5,0x12
40004160:	07d70513          	addi	a0,a4,125
40004164:	07c70613          	addi	a2,a4,124
40004168:	00351513          	slli	a0,a0,0x3
4000416c:	e35ff06f          	j	40003fa0 <_free_r+0x11c>
40004170:	0017e713          	ori	a4,a5,1
40004174:	00e6a223          	sw	a4,4(a3)
40004178:	00f62023          	sw	a5,0(a2)
4000417c:	dedff06f          	j	40003f68 <_free_r+0xe4>

40004180 <_fwalk>:
40004180:	fe010113          	addi	sp,sp,-32
40004184:	01512223          	sw	s5,4(sp)
40004188:	00112e23          	sw	ra,28(sp)
4000418c:	00812c23          	sw	s0,24(sp)
40004190:	00912a23          	sw	s1,20(sp)
40004194:	01212823          	sw	s2,16(sp)
40004198:	01312623          	sw	s3,12(sp)
4000419c:	01412423          	sw	s4,8(sp)
400041a0:	01612023          	sw	s6,0(sp)
400041a4:	2e050a93          	addi	s5,a0,736
400041a8:	080a8063          	beqz	s5,40004228 <_fwalk+0xa8>
400041ac:	00058b13          	mv	s6,a1
400041b0:	00000a13          	li	s4,0
400041b4:	00100993          	li	s3,1
400041b8:	fff00913          	li	s2,-1
400041bc:	004aa483          	lw	s1,4(s5)
400041c0:	008aa403          	lw	s0,8(s5)
400041c4:	fff48493          	addi	s1,s1,-1
400041c8:	0204c663          	bltz	s1,400041f4 <_fwalk+0x74>
400041cc:	00c45783          	lhu	a5,12(s0)
400041d0:	fff48493          	addi	s1,s1,-1
400041d4:	00f9fc63          	bleu	a5,s3,400041ec <_fwalk+0x6c>
400041d8:	00e41783          	lh	a5,14(s0)
400041dc:	00040513          	mv	a0,s0
400041e0:	01278663          	beq	a5,s2,400041ec <_fwalk+0x6c>
400041e4:	000b00e7          	jalr	s6
400041e8:	00aa6a33          	or	s4,s4,a0
400041ec:	06840413          	addi	s0,s0,104
400041f0:	fd249ee3          	bne	s1,s2,400041cc <_fwalk+0x4c>
400041f4:	000aaa83          	lw	s5,0(s5)
400041f8:	fc0a92e3          	bnez	s5,400041bc <_fwalk+0x3c>
400041fc:	01c12083          	lw	ra,28(sp)
40004200:	000a0513          	mv	a0,s4
40004204:	01812403          	lw	s0,24(sp)
40004208:	01412483          	lw	s1,20(sp)
4000420c:	01012903          	lw	s2,16(sp)
40004210:	00c12983          	lw	s3,12(sp)
40004214:	00812a03          	lw	s4,8(sp)
40004218:	00412a83          	lw	s5,4(sp)
4000421c:	00012b03          	lw	s6,0(sp)
40004220:	02010113          	addi	sp,sp,32
40004224:	00008067          	ret
40004228:	00000a13          	li	s4,0
4000422c:	fd1ff06f          	j	400041fc <_fwalk+0x7c>

40004230 <_fwalk_reent>:
40004230:	fd010113          	addi	sp,sp,-48
40004234:	01612823          	sw	s6,16(sp)
40004238:	02112623          	sw	ra,44(sp)
4000423c:	02812423          	sw	s0,40(sp)
40004240:	02912223          	sw	s1,36(sp)
40004244:	03212023          	sw	s2,32(sp)
40004248:	01312e23          	sw	s3,28(sp)
4000424c:	01412c23          	sw	s4,24(sp)
40004250:	01512a23          	sw	s5,20(sp)
40004254:	01712623          	sw	s7,12(sp)
40004258:	2e050b13          	addi	s6,a0,736
4000425c:	080b0663          	beqz	s6,400042e8 <_fwalk_reent+0xb8>
40004260:	00058b93          	mv	s7,a1
40004264:	00050a93          	mv	s5,a0
40004268:	00000a13          	li	s4,0
4000426c:	00100993          	li	s3,1
40004270:	fff00913          	li	s2,-1
40004274:	004b2483          	lw	s1,4(s6)
40004278:	008b2403          	lw	s0,8(s6)
4000427c:	fff48493          	addi	s1,s1,-1
40004280:	0204c863          	bltz	s1,400042b0 <_fwalk_reent+0x80>
40004284:	00c45783          	lhu	a5,12(s0)
40004288:	fff48493          	addi	s1,s1,-1
4000428c:	00f9fe63          	bleu	a5,s3,400042a8 <_fwalk_reent+0x78>
40004290:	00e41783          	lh	a5,14(s0)
40004294:	00040593          	mv	a1,s0
40004298:	000a8513          	mv	a0,s5
4000429c:	01278663          	beq	a5,s2,400042a8 <_fwalk_reent+0x78>
400042a0:	000b80e7          	jalr	s7
400042a4:	00aa6a33          	or	s4,s4,a0
400042a8:	06840413          	addi	s0,s0,104
400042ac:	fd249ce3          	bne	s1,s2,40004284 <_fwalk_reent+0x54>
400042b0:	000b2b03          	lw	s6,0(s6)
400042b4:	fc0b10e3          	bnez	s6,40004274 <_fwalk_reent+0x44>
400042b8:	02c12083          	lw	ra,44(sp)
400042bc:	000a0513          	mv	a0,s4
400042c0:	02812403          	lw	s0,40(sp)
400042c4:	02412483          	lw	s1,36(sp)
400042c8:	02012903          	lw	s2,32(sp)
400042cc:	01c12983          	lw	s3,28(sp)
400042d0:	01812a03          	lw	s4,24(sp)
400042d4:	01412a83          	lw	s5,20(sp)
400042d8:	01012b03          	lw	s6,16(sp)
400042dc:	00c12b83          	lw	s7,12(sp)
400042e0:	03010113          	addi	sp,sp,48
400042e4:	00008067          	ret
400042e8:	00000a13          	li	s4,0
400042ec:	fcdff06f          	j	400042b8 <_fwalk_reent+0x88>

400042f0 <_setlocale_r>:
400042f0:	ff010113          	addi	sp,sp,-16
400042f4:	00912223          	sw	s1,4(sp)
400042f8:	00112623          	sw	ra,12(sp)
400042fc:	00812423          	sw	s0,8(sp)
40004300:	4000b4b7          	lui	s1,0x4000b
40004304:	02060063          	beqz	a2,40004324 <_setlocale_r+0x34>
40004308:	4000b5b7          	lui	a1,0x4000b
4000430c:	7f858593          	addi	a1,a1,2040 # 4000b7f8 <zeroes.4139+0x68>
40004310:	00060513          	mv	a0,a2
40004314:	00060413          	mv	s0,a2
40004318:	681010ef          	jal	ra,40006198 <strcmp>
4000431c:	4000b4b7          	lui	s1,0x4000b
40004320:	00051e63          	bnez	a0,4000433c <_setlocale_r+0x4c>
40004324:	7f448513          	addi	a0,s1,2036 # 4000b7f4 <zeroes.4139+0x64>
40004328:	00c12083          	lw	ra,12(sp)
4000432c:	00812403          	lw	s0,8(sp)
40004330:	00412483          	lw	s1,4(sp)
40004334:	01010113          	addi	sp,sp,16
40004338:	00008067          	ret
4000433c:	7f448593          	addi	a1,s1,2036
40004340:	00040513          	mv	a0,s0
40004344:	655010ef          	jal	ra,40006198 <strcmp>
40004348:	fc050ee3          	beqz	a0,40004324 <_setlocale_r+0x34>
4000434c:	4000b5b7          	lui	a1,0x4000b
40004350:	61858593          	addi	a1,a1,1560 # 4000b618 <__clzsi2+0x78>
40004354:	00040513          	mv	a0,s0
40004358:	641010ef          	jal	ra,40006198 <strcmp>
4000435c:	fc0504e3          	beqz	a0,40004324 <_setlocale_r+0x34>
40004360:	00000513          	li	a0,0
40004364:	fc5ff06f          	j	40004328 <_setlocale_r+0x38>

40004368 <__locale_charset>:
40004368:	4000c537          	lui	a0,0x4000c
4000436c:	1a850513          	addi	a0,a0,424 # 4000c1a8 <lc_ctype_charset>
40004370:	00008067          	ret

40004374 <__locale_mb_cur_max>:
40004374:	4000c7b7          	lui	a5,0x4000c
40004378:	6307a503          	lw	a0,1584(a5) # 4000c630 <__mb_cur_max>
4000437c:	00008067          	ret

40004380 <__locale_msgcharset>:
40004380:	4000c537          	lui	a0,0x4000c
40004384:	1c850513          	addi	a0,a0,456 # 4000c1c8 <lc_message_charset>
40004388:	00008067          	ret

4000438c <__locale_cjk_lang>:
4000438c:	00000513          	li	a0,0
40004390:	00008067          	ret

40004394 <_localeconv_r>:
40004394:	4000c537          	lui	a0,0x4000c
40004398:	1e850513          	addi	a0,a0,488 # 4000c1e8 <lconv>
4000439c:	00008067          	ret

400043a0 <setlocale>:
400043a0:	4000c7b7          	lui	a5,0x4000c
400043a4:	00058613          	mv	a2,a1
400043a8:	00050593          	mv	a1,a0
400043ac:	62c7a503          	lw	a0,1580(a5) # 4000c62c <_impure_ptr>
400043b0:	f41ff06f          	j	400042f0 <_setlocale_r>

400043b4 <localeconv>:
400043b4:	4000c537          	lui	a0,0x4000c
400043b8:	1e850513          	addi	a0,a0,488 # 4000c1e8 <lconv>
400043bc:	00008067          	ret

400043c0 <__swhatbuf_r>:
400043c0:	f8010113          	addi	sp,sp,-128
400043c4:	06812c23          	sw	s0,120(sp)
400043c8:	00058413          	mv	s0,a1
400043cc:	00e59583          	lh	a1,14(a1)
400043d0:	06912a23          	sw	s1,116(sp)
400043d4:	07212823          	sw	s2,112(sp)
400043d8:	06112e23          	sw	ra,124(sp)
400043dc:	00060493          	mv	s1,a2
400043e0:	00068913          	mv	s2,a3
400043e4:	0405ca63          	bltz	a1,40004438 <__swhatbuf_r+0x78>
400043e8:	00810613          	addi	a2,sp,8
400043ec:	500030ef          	jal	ra,400078ec <_fstat_r>
400043f0:	04054463          	bltz	a0,40004438 <__swhatbuf_r+0x78>
400043f4:	01812783          	lw	a5,24(sp)
400043f8:	0000f737          	lui	a4,0xf
400043fc:	07c12083          	lw	ra,124(sp)
40004400:	00e7f7b3          	and	a5,a5,a4
40004404:	ffffe737          	lui	a4,0xffffe
40004408:	00e787b3          	add	a5,a5,a4
4000440c:	0017b793          	seqz	a5,a5
40004410:	00f92023          	sw	a5,0(s2)
40004414:	00001537          	lui	a0,0x1
40004418:	40000793          	li	a5,1024
4000441c:	00f4a023          	sw	a5,0(s1)
40004420:	80050513          	addi	a0,a0,-2048 # 800 <_stack_size>
40004424:	07812403          	lw	s0,120(sp)
40004428:	07412483          	lw	s1,116(sp)
4000442c:	07012903          	lw	s2,112(sp)
40004430:	08010113          	addi	sp,sp,128
40004434:	00008067          	ret
40004438:	00c45783          	lhu	a5,12(s0)
4000443c:	00092023          	sw	zero,0(s2)
40004440:	0807f793          	andi	a5,a5,128
40004444:	02078463          	beqz	a5,4000446c <__swhatbuf_r+0xac>
40004448:	07c12083          	lw	ra,124(sp)
4000444c:	04000793          	li	a5,64
40004450:	00f4a023          	sw	a5,0(s1)
40004454:	00000513          	li	a0,0
40004458:	07812403          	lw	s0,120(sp)
4000445c:	07412483          	lw	s1,116(sp)
40004460:	07012903          	lw	s2,112(sp)
40004464:	08010113          	addi	sp,sp,128
40004468:	00008067          	ret
4000446c:	07c12083          	lw	ra,124(sp)
40004470:	40000793          	li	a5,1024
40004474:	00f4a023          	sw	a5,0(s1)
40004478:	00000513          	li	a0,0
4000447c:	07812403          	lw	s0,120(sp)
40004480:	07412483          	lw	s1,116(sp)
40004484:	07012903          	lw	s2,112(sp)
40004488:	08010113          	addi	sp,sp,128
4000448c:	00008067          	ret

40004490 <__smakebuf_r>:
40004490:	00c5d703          	lhu	a4,12(a1)
40004494:	fe010113          	addi	sp,sp,-32
40004498:	00812c23          	sw	s0,24(sp)
4000449c:	00112e23          	sw	ra,28(sp)
400044a0:	00912a23          	sw	s1,20(sp)
400044a4:	01212823          	sw	s2,16(sp)
400044a8:	00277713          	andi	a4,a4,2
400044ac:	00058413          	mv	s0,a1
400044b0:	02070863          	beqz	a4,400044e0 <__smakebuf_r+0x50>
400044b4:	04358713          	addi	a4,a1,67
400044b8:	00e5a023          	sw	a4,0(a1)
400044bc:	00e5a823          	sw	a4,16(a1)
400044c0:	00100713          	li	a4,1
400044c4:	00e5aa23          	sw	a4,20(a1)
400044c8:	01c12083          	lw	ra,28(sp)
400044cc:	01812403          	lw	s0,24(sp)
400044d0:	01412483          	lw	s1,20(sp)
400044d4:	01012903          	lw	s2,16(sp)
400044d8:	02010113          	addi	sp,sp,32
400044dc:	00008067          	ret
400044e0:	00c10693          	addi	a3,sp,12
400044e4:	00810613          	addi	a2,sp,8
400044e8:	00050493          	mv	s1,a0
400044ec:	ed5ff0ef          	jal	ra,400043c0 <__swhatbuf_r>
400044f0:	00812583          	lw	a1,8(sp)
400044f4:	00050913          	mv	s2,a0
400044f8:	00048513          	mv	a0,s1
400044fc:	09c000ef          	jal	ra,40004598 <_malloc_r>
40004500:	00c41783          	lh	a5,12(s0)
40004504:	06050663          	beqz	a0,40004570 <__smakebuf_r+0xe0>
40004508:	40004737          	lui	a4,0x40004
4000450c:	9c870713          	addi	a4,a4,-1592 # 400039c8 <_cleanup_r>
40004510:	02e4ae23          	sw	a4,60(s1)
40004514:	00812703          	lw	a4,8(sp)
40004518:	00c12683          	lw	a3,12(sp)
4000451c:	0807e793          	ori	a5,a5,128
40004520:	00f41623          	sh	a5,12(s0)
40004524:	00a42023          	sw	a0,0(s0)
40004528:	00a42823          	sw	a0,16(s0)
4000452c:	00e42a23          	sw	a4,20(s0)
40004530:	02069263          	bnez	a3,40004554 <__smakebuf_r+0xc4>
40004534:	01c12083          	lw	ra,28(sp)
40004538:	0127e7b3          	or	a5,a5,s2
4000453c:	00f41623          	sh	a5,12(s0)
40004540:	01412483          	lw	s1,20(sp)
40004544:	01812403          	lw	s0,24(sp)
40004548:	01012903          	lw	s2,16(sp)
4000454c:	02010113          	addi	sp,sp,32
40004550:	00008067          	ret
40004554:	00e41583          	lh	a1,14(s0)
40004558:	00048513          	mv	a0,s1
4000455c:	09d030ef          	jal	ra,40007df8 <_isatty_r>
40004560:	00c41783          	lh	a5,12(s0)
40004564:	fc0508e3          	beqz	a0,40004534 <__smakebuf_r+0xa4>
40004568:	0017e793          	ori	a5,a5,1
4000456c:	fc9ff06f          	j	40004534 <__smakebuf_r+0xa4>
40004570:	2007f713          	andi	a4,a5,512
40004574:	f4071ae3          	bnez	a4,400044c8 <__smakebuf_r+0x38>
40004578:	0027e793          	ori	a5,a5,2
4000457c:	04340713          	addi	a4,s0,67
40004580:	00f41623          	sh	a5,12(s0)
40004584:	00100793          	li	a5,1
40004588:	00e42023          	sw	a4,0(s0)
4000458c:	00e42823          	sw	a4,16(s0)
40004590:	00f42a23          	sw	a5,20(s0)
40004594:	f35ff06f          	j	400044c8 <__smakebuf_r+0x38>

40004598 <_malloc_r>:
40004598:	fd010113          	addi	sp,sp,-48
4000459c:	02912223          	sw	s1,36(sp)
400045a0:	01312e23          	sw	s3,28(sp)
400045a4:	02112623          	sw	ra,44(sp)
400045a8:	02812423          	sw	s0,40(sp)
400045ac:	03212023          	sw	s2,32(sp)
400045b0:	01412c23          	sw	s4,24(sp)
400045b4:	01512a23          	sw	s5,20(sp)
400045b8:	01612823          	sw	s6,16(sp)
400045bc:	01712623          	sw	s7,12(sp)
400045c0:	01812423          	sw	s8,8(sp)
400045c4:	01912223          	sw	s9,4(sp)
400045c8:	00b58493          	addi	s1,a1,11
400045cc:	01600793          	li	a5,22
400045d0:	00050993          	mv	s3,a0
400045d4:	1a97fa63          	bleu	s1,a5,40004788 <_malloc_r+0x1f0>
400045d8:	ff84f493          	andi	s1,s1,-8
400045dc:	2404c063          	bltz	s1,4000481c <_malloc_r+0x284>
400045e0:	22b4ee63          	bltu	s1,a1,4000481c <_malloc_r+0x284>
400045e4:	1d5000ef          	jal	ra,40004fb8 <__malloc_lock>
400045e8:	1f700793          	li	a5,503
400045ec:	6e97f663          	bleu	s1,a5,40004cd8 <_malloc_r+0x740>
400045f0:	0094d793          	srli	a5,s1,0x9
400045f4:	04000593          	li	a1,64
400045f8:	20000693          	li	a3,512
400045fc:	03f00513          	li	a0,63
40004600:	22079663          	bnez	a5,4000482c <_malloc_r+0x294>
40004604:	4000c937          	lui	s2,0x4000c
40004608:	22090913          	addi	s2,s2,544 # 4000c220 <__malloc_av_>
4000460c:	00d906b3          	add	a3,s2,a3
40004610:	0046a403          	lw	s0,4(a3)
40004614:	ff868693          	addi	a3,a3,-8
40004618:	02868c63          	beq	a3,s0,40004650 <_malloc_r+0xb8>
4000461c:	00442783          	lw	a5,4(s0)
40004620:	00f00613          	li	a2,15
40004624:	ffc7f793          	andi	a5,a5,-4
40004628:	40978733          	sub	a4,a5,s1
4000462c:	02e64063          	blt	a2,a4,4000464c <_malloc_r+0xb4>
40004630:	22075c63          	bgez	a4,40004868 <_malloc_r+0x2d0>
40004634:	00c42403          	lw	s0,12(s0)
40004638:	00868c63          	beq	a3,s0,40004650 <_malloc_r+0xb8>
4000463c:	00442783          	lw	a5,4(s0)
40004640:	ffc7f793          	andi	a5,a5,-4
40004644:	40978733          	sub	a4,a5,s1
40004648:	fee654e3          	ble	a4,a2,40004630 <_malloc_r+0x98>
4000464c:	00050593          	mv	a1,a0
40004650:	01092403          	lw	s0,16(s2)
40004654:	00890813          	addi	a6,s2,8
40004658:	45040c63          	beq	s0,a6,40004ab0 <_malloc_r+0x518>
4000465c:	00442783          	lw	a5,4(s0)
40004660:	00f00693          	li	a3,15
40004664:	ffc7f793          	andi	a5,a5,-4
40004668:	40978733          	sub	a4,a5,s1
4000466c:	42e6cc63          	blt	a3,a4,40004aa4 <_malloc_r+0x50c>
40004670:	01092a23          	sw	a6,20(s2)
40004674:	01092823          	sw	a6,16(s2)
40004678:	1c075863          	bgez	a4,40004848 <_malloc_r+0x2b0>
4000467c:	1ff00713          	li	a4,511
40004680:	3cf76263          	bltu	a4,a5,40004a44 <_malloc_r+0x4ac>
40004684:	0037d793          	srli	a5,a5,0x3
40004688:	00178713          	addi	a4,a5,1
4000468c:	00371713          	slli	a4,a4,0x3
40004690:	00492503          	lw	a0,4(s2)
40004694:	00e90733          	add	a4,s2,a4
40004698:	00072603          	lw	a2,0(a4)
4000469c:	4027d693          	srai	a3,a5,0x2
400046a0:	00100793          	li	a5,1
400046a4:	00d797b3          	sll	a5,a5,a3
400046a8:	00a7e7b3          	or	a5,a5,a0
400046ac:	ff870693          	addi	a3,a4,-8
400046b0:	00d42623          	sw	a3,12(s0)
400046b4:	00c42423          	sw	a2,8(s0)
400046b8:	00f92223          	sw	a5,4(s2)
400046bc:	00872023          	sw	s0,0(a4)
400046c0:	00862623          	sw	s0,12(a2)
400046c4:	4025d713          	srai	a4,a1,0x2
400046c8:	00100693          	li	a3,1
400046cc:	00e696b3          	sll	a3,a3,a4
400046d0:	1ad7e263          	bltu	a5,a3,40004874 <_malloc_r+0x2dc>
400046d4:	00f6f733          	and	a4,a3,a5
400046d8:	02071463          	bnez	a4,40004700 <_malloc_r+0x168>
400046dc:	00169693          	slli	a3,a3,0x1
400046e0:	ffc5f593          	andi	a1,a1,-4
400046e4:	00f6f733          	and	a4,a3,a5
400046e8:	00458593          	addi	a1,a1,4
400046ec:	00071a63          	bnez	a4,40004700 <_malloc_r+0x168>
400046f0:	00169693          	slli	a3,a3,0x1
400046f4:	00f6f733          	and	a4,a3,a5
400046f8:	00458593          	addi	a1,a1,4
400046fc:	fe070ae3          	beqz	a4,400046f0 <_malloc_r+0x158>
40004700:	00f00513          	li	a0,15
40004704:	00359893          	slli	a7,a1,0x3
40004708:	011908b3          	add	a7,s2,a7
4000470c:	00088613          	mv	a2,a7
40004710:	00058313          	mv	t1,a1
40004714:	00c62403          	lw	s0,12(a2)
40004718:	00861a63          	bne	a2,s0,4000472c <_malloc_r+0x194>
4000471c:	39c0006f          	j	40004ab8 <_malloc_r+0x520>
40004720:	3a075e63          	bgez	a4,40004adc <_malloc_r+0x544>
40004724:	00c42403          	lw	s0,12(s0)
40004728:	38860863          	beq	a2,s0,40004ab8 <_malloc_r+0x520>
4000472c:	00442783          	lw	a5,4(s0)
40004730:	ffc7f793          	andi	a5,a5,-4
40004734:	40978733          	sub	a4,a5,s1
40004738:	fee554e3          	ble	a4,a0,40004720 <_malloc_r+0x188>
4000473c:	00c42683          	lw	a3,12(s0)
40004740:	00842603          	lw	a2,8(s0)
40004744:	0014e593          	ori	a1,s1,1
40004748:	00b42223          	sw	a1,4(s0)
4000474c:	00d62623          	sw	a3,12(a2)
40004750:	00c6a423          	sw	a2,8(a3)
40004754:	009404b3          	add	s1,s0,s1
40004758:	00992a23          	sw	s1,20(s2)
4000475c:	00992823          	sw	s1,16(s2)
40004760:	00176693          	ori	a3,a4,1
40004764:	0104a623          	sw	a6,12(s1)
40004768:	0104a423          	sw	a6,8(s1)
4000476c:	00d4a223          	sw	a3,4(s1)
40004770:	00f407b3          	add	a5,s0,a5
40004774:	00098513          	mv	a0,s3
40004778:	00e7a023          	sw	a4,0(a5)
4000477c:	041000ef          	jal	ra,40004fbc <__malloc_unlock>
40004780:	00840513          	addi	a0,s0,8
40004784:	0640006f          	j	400047e8 <_malloc_r+0x250>
40004788:	01000493          	li	s1,16
4000478c:	08b4e863          	bltu	s1,a1,4000481c <_malloc_r+0x284>
40004790:	029000ef          	jal	ra,40004fb8 <__malloc_lock>
40004794:	01800793          	li	a5,24
40004798:	00200593          	li	a1,2
4000479c:	4000c937          	lui	s2,0x4000c
400047a0:	22090913          	addi	s2,s2,544 # 4000c220 <__malloc_av_>
400047a4:	00f907b3          	add	a5,s2,a5
400047a8:	0047a403          	lw	s0,4(a5)
400047ac:	ff878713          	addi	a4,a5,-8
400047b0:	30e40e63          	beq	s0,a4,40004acc <_malloc_r+0x534>
400047b4:	00442783          	lw	a5,4(s0)
400047b8:	00c42683          	lw	a3,12(s0)
400047bc:	00842603          	lw	a2,8(s0)
400047c0:	ffc7f793          	andi	a5,a5,-4
400047c4:	00f407b3          	add	a5,s0,a5
400047c8:	0047a703          	lw	a4,4(a5)
400047cc:	00d62623          	sw	a3,12(a2)
400047d0:	00c6a423          	sw	a2,8(a3)
400047d4:	00176713          	ori	a4,a4,1
400047d8:	00098513          	mv	a0,s3
400047dc:	00e7a223          	sw	a4,4(a5)
400047e0:	7dc000ef          	jal	ra,40004fbc <__malloc_unlock>
400047e4:	00840513          	addi	a0,s0,8
400047e8:	02c12083          	lw	ra,44(sp)
400047ec:	02812403          	lw	s0,40(sp)
400047f0:	02412483          	lw	s1,36(sp)
400047f4:	02012903          	lw	s2,32(sp)
400047f8:	01c12983          	lw	s3,28(sp)
400047fc:	01812a03          	lw	s4,24(sp)
40004800:	01412a83          	lw	s5,20(sp)
40004804:	01012b03          	lw	s6,16(sp)
40004808:	00c12b83          	lw	s7,12(sp)
4000480c:	00812c03          	lw	s8,8(sp)
40004810:	00412c83          	lw	s9,4(sp)
40004814:	03010113          	addi	sp,sp,48
40004818:	00008067          	ret
4000481c:	00c00793          	li	a5,12
40004820:	00f9a023          	sw	a5,0(s3)
40004824:	00000513          	li	a0,0
40004828:	fc1ff06f          	j	400047e8 <_malloc_r+0x250>
4000482c:	00400713          	li	a4,4
40004830:	1ef76863          	bltu	a4,a5,40004a20 <_malloc_r+0x488>
40004834:	0064d513          	srli	a0,s1,0x6
40004838:	03950593          	addi	a1,a0,57
4000483c:	00359693          	slli	a3,a1,0x3
40004840:	03850513          	addi	a0,a0,56
40004844:	dc1ff06f          	j	40004604 <_malloc_r+0x6c>
40004848:	00f407b3          	add	a5,s0,a5
4000484c:	0047a703          	lw	a4,4(a5)
40004850:	00098513          	mv	a0,s3
40004854:	00176713          	ori	a4,a4,1
40004858:	00e7a223          	sw	a4,4(a5)
4000485c:	760000ef          	jal	ra,40004fbc <__malloc_unlock>
40004860:	00840513          	addi	a0,s0,8
40004864:	f85ff06f          	j	400047e8 <_malloc_r+0x250>
40004868:	00c42683          	lw	a3,12(s0)
4000486c:	00842603          	lw	a2,8(s0)
40004870:	f55ff06f          	j	400047c4 <_malloc_r+0x22c>
40004874:	00892403          	lw	s0,8(s2)
40004878:	00442783          	lw	a5,4(s0)
4000487c:	ffc7fa93          	andi	s5,a5,-4
40004880:	009ae863          	bltu	s5,s1,40004890 <_malloc_r+0x2f8>
40004884:	409a87b3          	sub	a5,s5,s1
40004888:	00f00713          	li	a4,15
4000488c:	16f74663          	blt	a4,a5,400049f8 <_malloc_r+0x460>
40004890:	4000c7b7          	lui	a5,0x4000c
40004894:	4000ccb7          	lui	s9,0x4000c
40004898:	6547aa03          	lw	s4,1620(a5) # 4000c654 <__malloc_top_pad>
4000489c:	634ca703          	lw	a4,1588(s9) # 4000c634 <__malloc_sbrk_base>
400048a0:	fff00793          	li	a5,-1
400048a4:	01540b33          	add	s6,s0,s5
400048a8:	01448a33          	add	s4,s1,s4
400048ac:	36f70263          	beq	a4,a5,40004c10 <_malloc_r+0x678>
400048b0:	000017b7          	lui	a5,0x1
400048b4:	00f78793          	addi	a5,a5,15 # 100f <_stack_size+0x80f>
400048b8:	00fa0a33          	add	s4,s4,a5
400048bc:	fffff7b7          	lui	a5,0xfffff
400048c0:	00fa7a33          	and	s4,s4,a5
400048c4:	000a0593          	mv	a1,s4
400048c8:	00098513          	mv	a0,s3
400048cc:	708010ef          	jal	ra,40005fd4 <_sbrk_r>
400048d0:	fff00793          	li	a5,-1
400048d4:	00050b93          	mv	s7,a0
400048d8:	24f50e63          	beq	a0,a5,40004b34 <_malloc_r+0x59c>
400048dc:	25656a63          	bltu	a0,s6,40004b30 <_malloc_r+0x598>
400048e0:	4000cc37          	lui	s8,0x4000c
400048e4:	65cc0c13          	addi	s8,s8,1628 # 4000c65c <__malloc_current_mallinfo>
400048e8:	000c2703          	lw	a4,0(s8)
400048ec:	00ea0733          	add	a4,s4,a4
400048f0:	00ec2023          	sw	a4,0(s8)
400048f4:	34ab0c63          	beq	s6,a0,40004c4c <_malloc_r+0x6b4>
400048f8:	634ca683          	lw	a3,1588(s9)
400048fc:	fff00793          	li	a5,-1
40004900:	38f68463          	beq	a3,a5,40004c88 <_malloc_r+0x6f0>
40004904:	416b8b33          	sub	s6,s7,s6
40004908:	00eb0733          	add	a4,s6,a4
4000490c:	00ec2023          	sw	a4,0(s8)
40004910:	007bf793          	andi	a5,s7,7
40004914:	00001737          	lui	a4,0x1
40004918:	00078a63          	beqz	a5,4000492c <_malloc_r+0x394>
4000491c:	40fb8bb3          	sub	s7,s7,a5
40004920:	00870713          	addi	a4,a4,8 # 1008 <_stack_size+0x808>
40004924:	008b8b93          	addi	s7,s7,8
40004928:	40f70733          	sub	a4,a4,a5
4000492c:	000016b7          	lui	a3,0x1
40004930:	014b87b3          	add	a5,s7,s4
40004934:	fff68693          	addi	a3,a3,-1 # fff <_stack_size+0x7ff>
40004938:	00d7f7b3          	and	a5,a5,a3
4000493c:	40f70a33          	sub	s4,a4,a5
40004940:	000a0593          	mv	a1,s4
40004944:	00098513          	mv	a0,s3
40004948:	68c010ef          	jal	ra,40005fd4 <_sbrk_r>
4000494c:	fff00793          	li	a5,-1
40004950:	32f50663          	beq	a0,a5,40004c7c <_malloc_r+0x6e4>
40004954:	417507b3          	sub	a5,a0,s7
40004958:	014787b3          	add	a5,a5,s4
4000495c:	0017e793          	ori	a5,a5,1
40004960:	000c2703          	lw	a4,0(s8)
40004964:	01792423          	sw	s7,8(s2)
40004968:	00fba223          	sw	a5,4(s7)
4000496c:	00ea0733          	add	a4,s4,a4
40004970:	00ec2023          	sw	a4,0(s8)
40004974:	03240c63          	beq	s0,s2,400049ac <_malloc_r+0x414>
40004978:	00f00613          	li	a2,15
4000497c:	27567063          	bleu	s5,a2,40004bdc <_malloc_r+0x644>
40004980:	00442683          	lw	a3,4(s0)
40004984:	ff4a8793          	addi	a5,s5,-12
40004988:	ff87f793          	andi	a5,a5,-8
4000498c:	0016f693          	andi	a3,a3,1
40004990:	00f6e6b3          	or	a3,a3,a5
40004994:	00d42223          	sw	a3,4(s0)
40004998:	00500593          	li	a1,5
4000499c:	00f406b3          	add	a3,s0,a5
400049a0:	00b6a223          	sw	a1,4(a3)
400049a4:	00b6a423          	sw	a1,8(a3)
400049a8:	2cf66063          	bltu	a2,a5,40004c68 <_malloc_r+0x6d0>
400049ac:	4000c7b7          	lui	a5,0x4000c
400049b0:	6507a683          	lw	a3,1616(a5) # 4000c650 <__malloc_max_sbrked_mem>
400049b4:	00e6f463          	bleu	a4,a3,400049bc <_malloc_r+0x424>
400049b8:	64e7a823          	sw	a4,1616(a5)
400049bc:	4000c7b7          	lui	a5,0x4000c
400049c0:	64c7a683          	lw	a3,1612(a5) # 4000c64c <__malloc_max_total_mem>
400049c4:	00892403          	lw	s0,8(s2)
400049c8:	00e6f463          	bleu	a4,a3,400049d0 <_malloc_r+0x438>
400049cc:	64e7a623          	sw	a4,1612(a5)
400049d0:	00442703          	lw	a4,4(s0)
400049d4:	ffc77713          	andi	a4,a4,-4
400049d8:	409707b3          	sub	a5,a4,s1
400049dc:	00976663          	bltu	a4,s1,400049e8 <_malloc_r+0x450>
400049e0:	00f00713          	li	a4,15
400049e4:	00f74a63          	blt	a4,a5,400049f8 <_malloc_r+0x460>
400049e8:	00098513          	mv	a0,s3
400049ec:	5d0000ef          	jal	ra,40004fbc <__malloc_unlock>
400049f0:	00000513          	li	a0,0
400049f4:	df5ff06f          	j	400047e8 <_malloc_r+0x250>
400049f8:	0014e713          	ori	a4,s1,1
400049fc:	00e42223          	sw	a4,4(s0)
40004a00:	009404b3          	add	s1,s0,s1
40004a04:	00992423          	sw	s1,8(s2)
40004a08:	0017e793          	ori	a5,a5,1
40004a0c:	00098513          	mv	a0,s3
40004a10:	00f4a223          	sw	a5,4(s1)
40004a14:	5a8000ef          	jal	ra,40004fbc <__malloc_unlock>
40004a18:	00840513          	addi	a0,s0,8
40004a1c:	dcdff06f          	j	400047e8 <_malloc_r+0x250>
40004a20:	01400713          	li	a4,20
40004a24:	0ef77463          	bleu	a5,a4,40004b0c <_malloc_r+0x574>
40004a28:	05400713          	li	a4,84
40004a2c:	16f76a63          	bltu	a4,a5,40004ba0 <_malloc_r+0x608>
40004a30:	00c4d513          	srli	a0,s1,0xc
40004a34:	06f50593          	addi	a1,a0,111
40004a38:	00359693          	slli	a3,a1,0x3
40004a3c:	06e50513          	addi	a0,a0,110
40004a40:	bc5ff06f          	j	40004604 <_malloc_r+0x6c>
40004a44:	0097d713          	srli	a4,a5,0x9
40004a48:	00400693          	li	a3,4
40004a4c:	0ce6f863          	bleu	a4,a3,40004b1c <_malloc_r+0x584>
40004a50:	01400693          	li	a3,20
40004a54:	1ce6e263          	bltu	a3,a4,40004c18 <_malloc_r+0x680>
40004a58:	05c70613          	addi	a2,a4,92
40004a5c:	05b70693          	addi	a3,a4,91
40004a60:	00361613          	slli	a2,a2,0x3
40004a64:	00c90633          	add	a2,s2,a2
40004a68:	00062703          	lw	a4,0(a2)
40004a6c:	ff860613          	addi	a2,a2,-8
40004a70:	14e60663          	beq	a2,a4,40004bbc <_malloc_r+0x624>
40004a74:	00472683          	lw	a3,4(a4)
40004a78:	ffc6f693          	andi	a3,a3,-4
40004a7c:	10d7fe63          	bleu	a3,a5,40004b98 <_malloc_r+0x600>
40004a80:	00872703          	lw	a4,8(a4)
40004a84:	fee618e3          	bne	a2,a4,40004a74 <_malloc_r+0x4dc>
40004a88:	00c62703          	lw	a4,12(a2)
40004a8c:	00492783          	lw	a5,4(s2)
40004a90:	00e42623          	sw	a4,12(s0)
40004a94:	00c42423          	sw	a2,8(s0)
40004a98:	00872423          	sw	s0,8(a4)
40004a9c:	00862623          	sw	s0,12(a2)
40004aa0:	c25ff06f          	j	400046c4 <_malloc_r+0x12c>
40004aa4:	0014e693          	ori	a3,s1,1
40004aa8:	00d42223          	sw	a3,4(s0)
40004aac:	ca9ff06f          	j	40004754 <_malloc_r+0x1bc>
40004ab0:	00492783          	lw	a5,4(s2)
40004ab4:	c11ff06f          	j	400046c4 <_malloc_r+0x12c>
40004ab8:	00130313          	addi	t1,t1,1
40004abc:	00337793          	andi	a5,t1,3
40004ac0:	00860613          	addi	a2,a2,8
40004ac4:	c40798e3          	bnez	a5,40004714 <_malloc_r+0x17c>
40004ac8:	0880006f          	j	40004b50 <_malloc_r+0x5b8>
40004acc:	00c7a403          	lw	s0,12(a5)
40004ad0:	00258593          	addi	a1,a1,2
40004ad4:	b6878ee3          	beq	a5,s0,40004650 <_malloc_r+0xb8>
40004ad8:	cddff06f          	j	400047b4 <_malloc_r+0x21c>
40004adc:	00f407b3          	add	a5,s0,a5
40004ae0:	0047a703          	lw	a4,4(a5)
40004ae4:	00c42683          	lw	a3,12(s0)
40004ae8:	00842603          	lw	a2,8(s0)
40004aec:	00176713          	ori	a4,a4,1
40004af0:	00e7a223          	sw	a4,4(a5)
40004af4:	00d62623          	sw	a3,12(a2)
40004af8:	00098513          	mv	a0,s3
40004afc:	00c6a423          	sw	a2,8(a3)
40004b00:	4bc000ef          	jal	ra,40004fbc <__malloc_unlock>
40004b04:	00840513          	addi	a0,s0,8
40004b08:	ce1ff06f          	j	400047e8 <_malloc_r+0x250>
40004b0c:	05c78593          	addi	a1,a5,92
40004b10:	05b78513          	addi	a0,a5,91
40004b14:	00359693          	slli	a3,a1,0x3
40004b18:	aedff06f          	j	40004604 <_malloc_r+0x6c>
40004b1c:	0067d693          	srli	a3,a5,0x6
40004b20:	03968613          	addi	a2,a3,57
40004b24:	00361613          	slli	a2,a2,0x3
40004b28:	03868693          	addi	a3,a3,56
40004b2c:	f39ff06f          	j	40004a64 <_malloc_r+0x4cc>
40004b30:	11240263          	beq	s0,s2,40004c34 <_malloc_r+0x69c>
40004b34:	00892403          	lw	s0,8(s2)
40004b38:	00442703          	lw	a4,4(s0)
40004b3c:	ffc77713          	andi	a4,a4,-4
40004b40:	e99ff06f          	j	400049d8 <_malloc_r+0x440>
40004b44:	0088a783          	lw	a5,8(a7)
40004b48:	fff58593          	addi	a1,a1,-1
40004b4c:	18f89263          	bne	a7,a5,40004cd0 <_malloc_r+0x738>
40004b50:	0035f793          	andi	a5,a1,3
40004b54:	ff888893          	addi	a7,a7,-8
40004b58:	fe0796e3          	bnez	a5,40004b44 <_malloc_r+0x5ac>
40004b5c:	00492703          	lw	a4,4(s2)
40004b60:	fff6c793          	not	a5,a3
40004b64:	00e7f7b3          	and	a5,a5,a4
40004b68:	00f92223          	sw	a5,4(s2)
40004b6c:	00169693          	slli	a3,a3,0x1
40004b70:	d0d7e2e3          	bltu	a5,a3,40004874 <_malloc_r+0x2dc>
40004b74:	d00680e3          	beqz	a3,40004874 <_malloc_r+0x2dc>
40004b78:	00f6f733          	and	a4,a3,a5
40004b7c:	00030593          	mv	a1,t1
40004b80:	b80712e3          	bnez	a4,40004704 <_malloc_r+0x16c>
40004b84:	00169693          	slli	a3,a3,0x1
40004b88:	00f6f733          	and	a4,a3,a5
40004b8c:	00458593          	addi	a1,a1,4
40004b90:	fe070ae3          	beqz	a4,40004b84 <_malloc_r+0x5ec>
40004b94:	b71ff06f          	j	40004704 <_malloc_r+0x16c>
40004b98:	00070613          	mv	a2,a4
40004b9c:	eedff06f          	j	40004a88 <_malloc_r+0x4f0>
40004ba0:	15400713          	li	a4,340
40004ba4:	04f76263          	bltu	a4,a5,40004be8 <_malloc_r+0x650>
40004ba8:	00f4d513          	srli	a0,s1,0xf
40004bac:	07850593          	addi	a1,a0,120
40004bb0:	00359693          	slli	a3,a1,0x3
40004bb4:	07750513          	addi	a0,a0,119
40004bb8:	a4dff06f          	j	40004604 <_malloc_r+0x6c>
40004bbc:	00492703          	lw	a4,4(s2)
40004bc0:	4026d693          	srai	a3,a3,0x2
40004bc4:	00100793          	li	a5,1
40004bc8:	00d797b3          	sll	a5,a5,a3
40004bcc:	00e7e7b3          	or	a5,a5,a4
40004bd0:	00f92223          	sw	a5,4(s2)
40004bd4:	00060713          	mv	a4,a2
40004bd8:	eb9ff06f          	j	40004a90 <_malloc_r+0x4f8>
40004bdc:	00100793          	li	a5,1
40004be0:	00fba223          	sw	a5,4(s7)
40004be4:	e05ff06f          	j	400049e8 <_malloc_r+0x450>
40004be8:	55400713          	li	a4,1364
40004bec:	07f00593          	li	a1,127
40004bf0:	3f800693          	li	a3,1016
40004bf4:	07e00513          	li	a0,126
40004bf8:	a0f766e3          	bltu	a4,a5,40004604 <_malloc_r+0x6c>
40004bfc:	0124d513          	srli	a0,s1,0x12
40004c00:	07d50593          	addi	a1,a0,125
40004c04:	00359693          	slli	a3,a1,0x3
40004c08:	07c50513          	addi	a0,a0,124
40004c0c:	9f9ff06f          	j	40004604 <_malloc_r+0x6c>
40004c10:	010a0a13          	addi	s4,s4,16
40004c14:	cb1ff06f          	j	400048c4 <_malloc_r+0x32c>
40004c18:	05400693          	li	a3,84
40004c1c:	06e6ea63          	bltu	a3,a4,40004c90 <_malloc_r+0x6f8>
40004c20:	00c7d693          	srli	a3,a5,0xc
40004c24:	06f68613          	addi	a2,a3,111
40004c28:	00361613          	slli	a2,a2,0x3
40004c2c:	06e68693          	addi	a3,a3,110
40004c30:	e35ff06f          	j	40004a64 <_malloc_r+0x4cc>
40004c34:	4000cc37          	lui	s8,0x4000c
40004c38:	65cc0c13          	addi	s8,s8,1628 # 4000c65c <__malloc_current_mallinfo>
40004c3c:	000c2703          	lw	a4,0(s8)
40004c40:	00ea0733          	add	a4,s4,a4
40004c44:	00ec2023          	sw	a4,0(s8)
40004c48:	cb1ff06f          	j	400048f8 <_malloc_r+0x360>
40004c4c:	014b1793          	slli	a5,s6,0x14
40004c50:	ca0794e3          	bnez	a5,400048f8 <_malloc_r+0x360>
40004c54:	00892683          	lw	a3,8(s2)
40004c58:	014a87b3          	add	a5,s5,s4
40004c5c:	0017e793          	ori	a5,a5,1
40004c60:	00f6a223          	sw	a5,4(a3)
40004c64:	d49ff06f          	j	400049ac <_malloc_r+0x414>
40004c68:	00840593          	addi	a1,s0,8
40004c6c:	00098513          	mv	a0,s3
40004c70:	a14ff0ef          	jal	ra,40003e84 <_free_r>
40004c74:	000c2703          	lw	a4,0(s8)
40004c78:	d35ff06f          	j	400049ac <_malloc_r+0x414>
40004c7c:	00100793          	li	a5,1
40004c80:	00000a13          	li	s4,0
40004c84:	cddff06f          	j	40004960 <_malloc_r+0x3c8>
40004c88:	637caa23          	sw	s7,1588(s9)
40004c8c:	c85ff06f          	j	40004910 <_malloc_r+0x378>
40004c90:	15400693          	li	a3,340
40004c94:	00e6ec63          	bltu	a3,a4,40004cac <_malloc_r+0x714>
40004c98:	00f7d693          	srli	a3,a5,0xf
40004c9c:	07868613          	addi	a2,a3,120
40004ca0:	00361613          	slli	a2,a2,0x3
40004ca4:	07768693          	addi	a3,a3,119
40004ca8:	dbdff06f          	j	40004a64 <_malloc_r+0x4cc>
40004cac:	55400513          	li	a0,1364
40004cb0:	3f800613          	li	a2,1016
40004cb4:	07e00693          	li	a3,126
40004cb8:	dae566e3          	bltu	a0,a4,40004a64 <_malloc_r+0x4cc>
40004cbc:	0127d693          	srli	a3,a5,0x12
40004cc0:	07d68613          	addi	a2,a3,125
40004cc4:	00361613          	slli	a2,a2,0x3
40004cc8:	07c68693          	addi	a3,a3,124
40004ccc:	d99ff06f          	j	40004a64 <_malloc_r+0x4cc>
40004cd0:	00492783          	lw	a5,4(s2)
40004cd4:	e99ff06f          	j	40004b6c <_malloc_r+0x5d4>
40004cd8:	0034d593          	srli	a1,s1,0x3
40004cdc:	00848793          	addi	a5,s1,8
40004ce0:	abdff06f          	j	4000479c <_malloc_r+0x204>

40004ce4 <memchr>:
40004ce4:	00357793          	andi	a5,a0,3
40004ce8:	0ff5f813          	andi	a6,a1,255
40004cec:	0c078663          	beqz	a5,40004db8 <memchr+0xd4>
40004cf0:	fff60793          	addi	a5,a2,-1
40004cf4:	04060e63          	beqz	a2,40004d50 <memchr+0x6c>
40004cf8:	00054703          	lbu	a4,0(a0)
40004cfc:	fff00693          	li	a3,-1
40004d00:	01071c63          	bne	a4,a6,40004d18 <memchr+0x34>
40004d04:	0500006f          	j	40004d54 <memchr+0x70>
40004d08:	fff78793          	addi	a5,a5,-1
40004d0c:	04d78263          	beq	a5,a3,40004d50 <memchr+0x6c>
40004d10:	00054703          	lbu	a4,0(a0)
40004d14:	05070063          	beq	a4,a6,40004d54 <memchr+0x70>
40004d18:	00150513          	addi	a0,a0,1
40004d1c:	00357713          	andi	a4,a0,3
40004d20:	fe0714e3          	bnez	a4,40004d08 <memchr+0x24>
40004d24:	00300713          	li	a4,3
40004d28:	02f76863          	bltu	a4,a5,40004d58 <memchr+0x74>
40004d2c:	02078263          	beqz	a5,40004d50 <memchr+0x6c>
40004d30:	00054703          	lbu	a4,0(a0)
40004d34:	03070063          	beq	a4,a6,40004d54 <memchr+0x70>
40004d38:	00f507b3          	add	a5,a0,a5
40004d3c:	00c0006f          	j	40004d48 <memchr+0x64>
40004d40:	00054703          	lbu	a4,0(a0)
40004d44:	01070863          	beq	a4,a6,40004d54 <memchr+0x70>
40004d48:	00150513          	addi	a0,a0,1
40004d4c:	fea79ae3          	bne	a5,a0,40004d40 <memchr+0x5c>
40004d50:	00000513          	li	a0,0
40004d54:	00008067          	ret
40004d58:	000106b7          	lui	a3,0x10
40004d5c:	00859613          	slli	a2,a1,0x8
40004d60:	fff68693          	addi	a3,a3,-1 # ffff <_heap_size+0xdfff>
40004d64:	00d67633          	and	a2,a2,a3
40004d68:	0ff5f593          	andi	a1,a1,255
40004d6c:	00b66633          	or	a2,a2,a1
40004d70:	01061693          	slli	a3,a2,0x10
40004d74:	feff0337          	lui	t1,0xfeff0
40004d78:	808088b7          	lui	a7,0x80808
40004d7c:	00d66633          	or	a2,a2,a3
40004d80:	eff30313          	addi	t1,t1,-257 # fefefeff <_bss_end+0xbefe3877>
40004d84:	08088893          	addi	a7,a7,128 # 80808080 <_bss_end+0x407fb9f8>
40004d88:	00070593          	mv	a1,a4
40004d8c:	00052703          	lw	a4,0(a0)
40004d90:	00e64733          	xor	a4,a2,a4
40004d94:	006706b3          	add	a3,a4,t1
40004d98:	fff74713          	not	a4,a4
40004d9c:	00e6f733          	and	a4,a3,a4
40004da0:	01177733          	and	a4,a4,a7
40004da4:	f80716e3          	bnez	a4,40004d30 <memchr+0x4c>
40004da8:	ffc78793          	addi	a5,a5,-4
40004dac:	00450513          	addi	a0,a0,4
40004db0:	fcf5eee3          	bltu	a1,a5,40004d8c <memchr+0xa8>
40004db4:	f79ff06f          	j	40004d2c <memchr+0x48>
40004db8:	00060793          	mv	a5,a2
40004dbc:	f69ff06f          	j	40004d24 <memchr+0x40>

40004dc0 <memcpy>:
40004dc0:	00a5c7b3          	xor	a5,a1,a0
40004dc4:	0037f793          	andi	a5,a5,3
40004dc8:	00c508b3          	add	a7,a0,a2
40004dcc:	0e079863          	bnez	a5,40004ebc <memcpy+0xfc>
40004dd0:	00300793          	li	a5,3
40004dd4:	0ec7f463          	bleu	a2,a5,40004ebc <memcpy+0xfc>
40004dd8:	00357793          	andi	a5,a0,3
40004ddc:	00050713          	mv	a4,a0
40004de0:	04079863          	bnez	a5,40004e30 <memcpy+0x70>
40004de4:	ffc8f813          	andi	a6,a7,-4
40004de8:	fe080793          	addi	a5,a6,-32
40004dec:	06f76c63          	bltu	a4,a5,40004e64 <memcpy+0xa4>
40004df0:	03077c63          	bleu	a6,a4,40004e28 <memcpy+0x68>
40004df4:	00058693          	mv	a3,a1
40004df8:	00070793          	mv	a5,a4
40004dfc:	0006a603          	lw	a2,0(a3)
40004e00:	00478793          	addi	a5,a5,4
40004e04:	00468693          	addi	a3,a3,4
40004e08:	fec7ae23          	sw	a2,-4(a5)
40004e0c:	ff07e8e3          	bltu	a5,a6,40004dfc <memcpy+0x3c>
40004e10:	fff74793          	not	a5,a4
40004e14:	010787b3          	add	a5,a5,a6
40004e18:	ffc7f793          	andi	a5,a5,-4
40004e1c:	00478793          	addi	a5,a5,4
40004e20:	00f70733          	add	a4,a4,a5
40004e24:	00f585b3          	add	a1,a1,a5
40004e28:	09176e63          	bltu	a4,a7,40004ec4 <memcpy+0x104>
40004e2c:	00008067          	ret
40004e30:	0005c683          	lbu	a3,0(a1)
40004e34:	00170713          	addi	a4,a4,1
40004e38:	00377793          	andi	a5,a4,3
40004e3c:	fed70fa3          	sb	a3,-1(a4)
40004e40:	00158593          	addi	a1,a1,1
40004e44:	fa0780e3          	beqz	a5,40004de4 <memcpy+0x24>
40004e48:	0005c683          	lbu	a3,0(a1)
40004e4c:	00170713          	addi	a4,a4,1
40004e50:	00377793          	andi	a5,a4,3
40004e54:	fed70fa3          	sb	a3,-1(a4)
40004e58:	00158593          	addi	a1,a1,1
40004e5c:	fc079ae3          	bnez	a5,40004e30 <memcpy+0x70>
40004e60:	f85ff06f          	j	40004de4 <memcpy+0x24>
40004e64:	0005a383          	lw	t2,0(a1)
40004e68:	0045a283          	lw	t0,4(a1)
40004e6c:	0085af83          	lw	t6,8(a1)
40004e70:	00c5af03          	lw	t5,12(a1)
40004e74:	0105ae83          	lw	t4,16(a1)
40004e78:	0145ae03          	lw	t3,20(a1)
40004e7c:	0185a303          	lw	t1,24(a1)
40004e80:	01c5a603          	lw	a2,28(a1)
40004e84:	02458593          	addi	a1,a1,36
40004e88:	02470713          	addi	a4,a4,36
40004e8c:	ffc5a683          	lw	a3,-4(a1)
40004e90:	fc772e23          	sw	t2,-36(a4)
40004e94:	fe572023          	sw	t0,-32(a4)
40004e98:	fff72223          	sw	t6,-28(a4)
40004e9c:	ffe72423          	sw	t5,-24(a4)
40004ea0:	ffd72623          	sw	t4,-20(a4)
40004ea4:	ffc72823          	sw	t3,-16(a4)
40004ea8:	fe672a23          	sw	t1,-12(a4)
40004eac:	fec72c23          	sw	a2,-8(a4)
40004eb0:	fed72e23          	sw	a3,-4(a4)
40004eb4:	faf768e3          	bltu	a4,a5,40004e64 <memcpy+0xa4>
40004eb8:	f39ff06f          	j	40004df0 <memcpy+0x30>
40004ebc:	00050713          	mv	a4,a0
40004ec0:	f71576e3          	bleu	a7,a0,40004e2c <memcpy+0x6c>
40004ec4:	0005c783          	lbu	a5,0(a1)
40004ec8:	00170713          	addi	a4,a4,1
40004ecc:	00158593          	addi	a1,a1,1
40004ed0:	fef70fa3          	sb	a5,-1(a4)
40004ed4:	ff1768e3          	bltu	a4,a7,40004ec4 <memcpy+0x104>
40004ed8:	00008067          	ret

40004edc <memset>:
40004edc:	00f00813          	li	a6,15
40004ee0:	00050713          	mv	a4,a0
40004ee4:	02c87e63          	bleu	a2,a6,40004f20 <memset+0x44>
40004ee8:	00f77793          	andi	a5,a4,15
40004eec:	0a079063          	bnez	a5,40004f8c <memset+0xb0>
40004ef0:	08059263          	bnez	a1,40004f74 <memset+0x98>
40004ef4:	ff067693          	andi	a3,a2,-16
40004ef8:	00f67613          	andi	a2,a2,15
40004efc:	00e686b3          	add	a3,a3,a4
40004f00:	00b72023          	sw	a1,0(a4)
40004f04:	00b72223          	sw	a1,4(a4)
40004f08:	00b72423          	sw	a1,8(a4)
40004f0c:	00b72623          	sw	a1,12(a4)
40004f10:	01070713          	addi	a4,a4,16
40004f14:	fed766e3          	bltu	a4,a3,40004f00 <memset+0x24>
40004f18:	00061463          	bnez	a2,40004f20 <memset+0x44>
40004f1c:	00008067          	ret
40004f20:	40c806b3          	sub	a3,a6,a2
40004f24:	00269693          	slli	a3,a3,0x2
40004f28:	00000297          	auipc	t0,0x0
40004f2c:	005686b3          	add	a3,a3,t0
40004f30:	00c68067          	jr	12(a3)
40004f34:	00b70723          	sb	a1,14(a4)
40004f38:	00b706a3          	sb	a1,13(a4)
40004f3c:	00b70623          	sb	a1,12(a4)
40004f40:	00b705a3          	sb	a1,11(a4)
40004f44:	00b70523          	sb	a1,10(a4)
40004f48:	00b704a3          	sb	a1,9(a4)
40004f4c:	00b70423          	sb	a1,8(a4)
40004f50:	00b703a3          	sb	a1,7(a4)
40004f54:	00b70323          	sb	a1,6(a4)
40004f58:	00b702a3          	sb	a1,5(a4)
40004f5c:	00b70223          	sb	a1,4(a4)
40004f60:	00b701a3          	sb	a1,3(a4)
40004f64:	00b70123          	sb	a1,2(a4)
40004f68:	00b700a3          	sb	a1,1(a4)
40004f6c:	00b70023          	sb	a1,0(a4)
40004f70:	00008067          	ret
40004f74:	0ff5f593          	andi	a1,a1,255
40004f78:	00859693          	slli	a3,a1,0x8
40004f7c:	00d5e5b3          	or	a1,a1,a3
40004f80:	01059693          	slli	a3,a1,0x10
40004f84:	00d5e5b3          	or	a1,a1,a3
40004f88:	f6dff06f          	j	40004ef4 <memset+0x18>
40004f8c:	00279693          	slli	a3,a5,0x2
40004f90:	00000297          	auipc	t0,0x0
40004f94:	005686b3          	add	a3,a3,t0
40004f98:	00008293          	mv	t0,ra
40004f9c:	fa0680e7          	jalr	-96(a3)
40004fa0:	00028093          	mv	ra,t0
40004fa4:	ff078793          	addi	a5,a5,-16
40004fa8:	40f70733          	sub	a4,a4,a5
40004fac:	00f60633          	add	a2,a2,a5
40004fb0:	f6c878e3          	bleu	a2,a6,40004f20 <memset+0x44>
40004fb4:	f3dff06f          	j	40004ef0 <memset+0x14>

40004fb8 <__malloc_lock>:
40004fb8:	00008067          	ret

40004fbc <__malloc_unlock>:
40004fbc:	00008067          	ret

40004fc0 <_Balloc>:
40004fc0:	04c52783          	lw	a5,76(a0)
40004fc4:	ff010113          	addi	sp,sp,-16
40004fc8:	00812423          	sw	s0,8(sp)
40004fcc:	00912223          	sw	s1,4(sp)
40004fd0:	00112623          	sw	ra,12(sp)
40004fd4:	01212023          	sw	s2,0(sp)
40004fd8:	00050413          	mv	s0,a0
40004fdc:	00058493          	mv	s1,a1
40004fe0:	02078e63          	beqz	a5,4000501c <_Balloc+0x5c>
40004fe4:	00249513          	slli	a0,s1,0x2
40004fe8:	00a787b3          	add	a5,a5,a0
40004fec:	0007a503          	lw	a0,0(a5)
40004ff0:	04050663          	beqz	a0,4000503c <_Balloc+0x7c>
40004ff4:	00052703          	lw	a4,0(a0)
40004ff8:	00e7a023          	sw	a4,0(a5)
40004ffc:	00052823          	sw	zero,16(a0)
40005000:	00052623          	sw	zero,12(a0)
40005004:	00c12083          	lw	ra,12(sp)
40005008:	00812403          	lw	s0,8(sp)
4000500c:	00412483          	lw	s1,4(sp)
40005010:	00012903          	lw	s2,0(sp)
40005014:	01010113          	addi	sp,sp,16
40005018:	00008067          	ret
4000501c:	02100613          	li	a2,33
40005020:	00400593          	li	a1,4
40005024:	4cc020ef          	jal	ra,400074f0 <_calloc_r>
40005028:	04a42623          	sw	a0,76(s0)
4000502c:	00050793          	mv	a5,a0
40005030:	fa051ae3          	bnez	a0,40004fe4 <_Balloc+0x24>
40005034:	00000513          	li	a0,0
40005038:	fcdff06f          	j	40005004 <_Balloc+0x44>
4000503c:	00100593          	li	a1,1
40005040:	00959933          	sll	s2,a1,s1
40005044:	00590613          	addi	a2,s2,5
40005048:	00261613          	slli	a2,a2,0x2
4000504c:	00040513          	mv	a0,s0
40005050:	4a0020ef          	jal	ra,400074f0 <_calloc_r>
40005054:	fe0500e3          	beqz	a0,40005034 <_Balloc+0x74>
40005058:	00952223          	sw	s1,4(a0)
4000505c:	01252423          	sw	s2,8(a0)
40005060:	f9dff06f          	j	40004ffc <_Balloc+0x3c>

40005064 <_Bfree>:
40005064:	02058063          	beqz	a1,40005084 <_Bfree+0x20>
40005068:	0045a703          	lw	a4,4(a1)
4000506c:	04c52783          	lw	a5,76(a0)
40005070:	00271713          	slli	a4,a4,0x2
40005074:	00e787b3          	add	a5,a5,a4
40005078:	0007a703          	lw	a4,0(a5)
4000507c:	00e5a023          	sw	a4,0(a1)
40005080:	00b7a023          	sw	a1,0(a5)
40005084:	00008067          	ret

40005088 <__multadd>:
40005088:	fd010113          	addi	sp,sp,-48
4000508c:	00010837          	lui	a6,0x10
40005090:	02812423          	sw	s0,40(sp)
40005094:	02912223          	sw	s1,36(sp)
40005098:	03212023          	sw	s2,32(sp)
4000509c:	00058493          	mv	s1,a1
400050a0:	0105a403          	lw	s0,16(a1)
400050a4:	00050913          	mv	s2,a0
400050a8:	02112623          	sw	ra,44(sp)
400050ac:	01312e23          	sw	s3,28(sp)
400050b0:	01458593          	addi	a1,a1,20
400050b4:	00000513          	li	a0,0
400050b8:	fff80813          	addi	a6,a6,-1 # ffff <_heap_size+0xdfff>
400050bc:	0005a783          	lw	a5,0(a1)
400050c0:	00458593          	addi	a1,a1,4
400050c4:	00150513          	addi	a0,a0,1
400050c8:	0107f733          	and	a4,a5,a6
400050cc:	02c70733          	mul	a4,a4,a2
400050d0:	0107d793          	srli	a5,a5,0x10
400050d4:	02c787b3          	mul	a5,a5,a2
400050d8:	00d706b3          	add	a3,a4,a3
400050dc:	0106d893          	srli	a7,a3,0x10
400050e0:	0106f733          	and	a4,a3,a6
400050e4:	011786b3          	add	a3,a5,a7
400050e8:	01069793          	slli	a5,a3,0x10
400050ec:	00e78733          	add	a4,a5,a4
400050f0:	fee5ae23          	sw	a4,-4(a1)
400050f4:	0106d693          	srli	a3,a3,0x10
400050f8:	fc8542e3          	blt	a0,s0,400050bc <__multadd+0x34>
400050fc:	02068263          	beqz	a3,40005120 <__multadd+0x98>
40005100:	0084a783          	lw	a5,8(s1)
40005104:	02f45e63          	ble	a5,s0,40005140 <__multadd+0xb8>
40005108:	00440793          	addi	a5,s0,4
4000510c:	00279793          	slli	a5,a5,0x2
40005110:	00f487b3          	add	a5,s1,a5
40005114:	00d7a223          	sw	a3,4(a5)
40005118:	00140413          	addi	s0,s0,1
4000511c:	0084a823          	sw	s0,16(s1)
40005120:	02c12083          	lw	ra,44(sp)
40005124:	00048513          	mv	a0,s1
40005128:	02812403          	lw	s0,40(sp)
4000512c:	02412483          	lw	s1,36(sp)
40005130:	02012903          	lw	s2,32(sp)
40005134:	01c12983          	lw	s3,28(sp)
40005138:	03010113          	addi	sp,sp,48
4000513c:	00008067          	ret
40005140:	0044a583          	lw	a1,4(s1)
40005144:	00090513          	mv	a0,s2
40005148:	00d12623          	sw	a3,12(sp)
4000514c:	00158593          	addi	a1,a1,1
40005150:	e71ff0ef          	jal	ra,40004fc0 <_Balloc>
40005154:	0104a603          	lw	a2,16(s1)
40005158:	00050993          	mv	s3,a0
4000515c:	00c48593          	addi	a1,s1,12
40005160:	00260613          	addi	a2,a2,2
40005164:	00c50513          	addi	a0,a0,12
40005168:	00261613          	slli	a2,a2,0x2
