
rv32ui-p-or:     file format elf32-littleriscv


Disassembly of section .text.init:

80000000 <_start>:
80000000:	04c0006f          	j	8000004c <reset_vector>

80000004 <trap_vector>:
80000004:	34202f73          	csrr	t5,mcause
80000008:	00800f93          	li	t6,8
8000000c:	03ff0a63          	beq	t5,t6,80000040 <write_tohost>
80000010:	00900f93          	li	t6,9
80000014:	03ff0663          	beq	t5,t6,80000040 <write_tohost>
80000018:	00b00f93          	li	t6,11
8000001c:	03ff0263          	beq	t5,t6,80000040 <write_tohost>
80000020:	80000f17          	auipc	t5,0x80000
80000024:	fe0f0f13          	addi	t5,t5,-32 # 0 <_start-0x80000000>
80000028:	000f0463          	beqz	t5,80000030 <trap_vector+0x2c>
8000002c:	000f0067          	jr	t5
80000030:	34202f73          	csrr	t5,mcause
80000034:	000f5463          	bgez	t5,8000003c <handle_exception>
80000038:	0040006f          	j	8000003c <handle_exception>

8000003c <handle_exception>:
8000003c:	539e6e13          	ori	t3,t3,1337

80000040 <write_tohost>:
80000040:	00001f17          	auipc	t5,0x1
80000044:	fdcf2023          	sw	t3,-64(t5) # 80001000 <tohost>
80000048:	ff9ff06f          	j	80000040 <write_tohost>

8000004c <reset_vector>:
8000004c:	f1402573          	csrr	a0,mhartid
80000050:	00051063          	bnez	a0,80000050 <reset_vector+0x4>
80000054:	30102573          	csrr	a0,misa
80000058:	00055863          	bgez	a0,80000068 <reset_vector+0x1c>
8000005c:	0ff0000f          	fence
80000060:	00100e13          	li	t3,1
80000064:	00000073          	ecall
80000068:	00000e13          	li	t3,0
8000006c:	00000297          	auipc	t0,0x0
80000070:	f9828293          	addi	t0,t0,-104 # 80000004 <trap_vector>
80000074:	30529073          	csrw	mtvec,t0
80000078:	30205073          	csrwi	medeleg,0
8000007c:	30305073          	csrwi	mideleg,0
80000080:	30405073          	csrwi	mie,0
80000084:	80000297          	auipc	t0,0x80000
80000088:	f7c28293          	addi	t0,t0,-132 # 0 <_start-0x80000000>
8000008c:	00028c63          	beqz	t0,800000a4 <reset_vector+0x58>
80000090:	10529073          	csrw	stvec,t0
80000094:	1ab00293          	li	t0,427
80000098:	30229073          	csrw	medeleg,t0
8000009c:	30202373          	csrr	t1,medeleg
800000a0:	f8629ee3          	bne	t0,t1,8000003c <handle_exception>
800000a4:	30005073          	csrwi	mstatus,0
800000a8:	00000297          	auipc	t0,0x0
800000ac:	01428293          	addi	t0,t0,20 # 800000bc <test_2>
800000b0:	34129073          	csrw	mepc,t0
800000b4:	f1402573          	csrr	a0,mhartid
800000b8:	30200073          	mret

800000bc <test_2>:
800000bc:	ff0100b7          	lui	ra,0xff010
800000c0:	f0008093          	addi	ra,ra,-256 # ff00ff00 <begin_signature+0x7f00df00>
800000c4:	0f0f1137          	lui	sp,0xf0f1
800000c8:	f0f10113          	addi	sp,sp,-241 # f0f0f0f <_start-0x70f0f0f1>
800000cc:	0020e1b3          	or	gp,ra,sp
800000d0:	ff100eb7          	lui	t4,0xff100
800000d4:	f0fe8e93          	addi	t4,t4,-241 # ff0fff0f <begin_signature+0x7f0fdf0f>
800000d8:	00200e13          	li	t3,2
800000dc:	4bd19263          	bne	gp,t4,80000580 <fail>

800000e0 <test_3>:
800000e0:	0ff010b7          	lui	ra,0xff01
800000e4:	ff008093          	addi	ra,ra,-16 # ff00ff0 <_start-0x700ff010>
800000e8:	f0f0f137          	lui	sp,0xf0f0f
800000ec:	0f010113          	addi	sp,sp,240 # f0f0f0f0 <begin_signature+0x70f0d0f0>
800000f0:	0020e1b3          	or	gp,ra,sp
800000f4:	fff10eb7          	lui	t4,0xfff10
800000f8:	ff0e8e93          	addi	t4,t4,-16 # fff0fff0 <begin_signature+0x7ff0dff0>
800000fc:	00300e13          	li	t3,3
80000100:	49d19063          	bne	gp,t4,80000580 <fail>

80000104 <test_4>:
80000104:	00ff00b7          	lui	ra,0xff0
80000108:	0ff08093          	addi	ra,ra,255 # ff00ff <_start-0x7f00ff01>
8000010c:	0f0f1137          	lui	sp,0xf0f1
80000110:	f0f10113          	addi	sp,sp,-241 # f0f0f0f <_start-0x70f0f0f1>
80000114:	0020e1b3          	or	gp,ra,sp
80000118:	0fff1eb7          	lui	t4,0xfff1
8000011c:	fffe8e93          	addi	t4,t4,-1 # fff0fff <_start-0x7000f001>
80000120:	00400e13          	li	t3,4
80000124:	45d19e63          	bne	gp,t4,80000580 <fail>

80000128 <test_5>:
80000128:	f00ff0b7          	lui	ra,0xf00ff
8000012c:	00f08093          	addi	ra,ra,15 # f00ff00f <begin_signature+0x700fd00f>
80000130:	f0f0f137          	lui	sp,0xf0f0f
80000134:	0f010113          	addi	sp,sp,240 # f0f0f0f0 <begin_signature+0x70f0d0f0>
80000138:	0020e1b3          	or	gp,ra,sp
8000013c:	f0fffeb7          	lui	t4,0xf0fff
80000140:	0ffe8e93          	addi	t4,t4,255 # f0fff0ff <begin_signature+0x70ffd0ff>
80000144:	00500e13          	li	t3,5
80000148:	43d19c63          	bne	gp,t4,80000580 <fail>

8000014c <test_6>:
8000014c:	ff0100b7          	lui	ra,0xff010
80000150:	f0008093          	addi	ra,ra,-256 # ff00ff00 <begin_signature+0x7f00df00>
80000154:	0f0f1137          	lui	sp,0xf0f1
80000158:	f0f10113          	addi	sp,sp,-241 # f0f0f0f <_start-0x70f0f0f1>
8000015c:	0020e0b3          	or	ra,ra,sp
80000160:	ff100eb7          	lui	t4,0xff100
80000164:	f0fe8e93          	addi	t4,t4,-241 # ff0fff0f <begin_signature+0x7f0fdf0f>
80000168:	00600e13          	li	t3,6
8000016c:	41d09a63          	bne	ra,t4,80000580 <fail>

80000170 <test_7>:
80000170:	ff0100b7          	lui	ra,0xff010
80000174:	f0008093          	addi	ra,ra,-256 # ff00ff00 <begin_signature+0x7f00df00>
80000178:	0f0f1137          	lui	sp,0xf0f1
8000017c:	f0f10113          	addi	sp,sp,-241 # f0f0f0f <_start-0x70f0f0f1>
80000180:	0020e133          	or	sp,ra,sp
80000184:	ff100eb7          	lui	t4,0xff100
80000188:	f0fe8e93          	addi	t4,t4,-241 # ff0fff0f <begin_signature+0x7f0fdf0f>
8000018c:	00700e13          	li	t3,7
80000190:	3fd11863          	bne	sp,t4,80000580 <fail>

80000194 <test_8>:
80000194:	ff0100b7          	lui	ra,0xff010
80000198:	f0008093          	addi	ra,ra,-256 # ff00ff00 <begin_signature+0x7f00df00>
8000019c:	0010e0b3          	or	ra,ra,ra
800001a0:	ff010eb7          	lui	t4,0xff010
800001a4:	f00e8e93          	addi	t4,t4,-256 # ff00ff00 <begin_signature+0x7f00df00>
800001a8:	00800e13          	li	t3,8
800001ac:	3dd09a63          	bne	ra,t4,80000580 <fail>

800001b0 <test_9>:
800001b0:	00000213          	li	tp,0
800001b4:	ff0100b7          	lui	ra,0xff010
800001b8:	f0008093          	addi	ra,ra,-256 # ff00ff00 <begin_signature+0x7f00df00>
800001bc:	0f0f1137          	lui	sp,0xf0f1
800001c0:	f0f10113          	addi	sp,sp,-241 # f0f0f0f <_start-0x70f0f0f1>
800001c4:	0020e1b3          	or	gp,ra,sp
800001c8:	00018313          	mv	t1,gp
800001cc:	00120213          	addi	tp,tp,1 # 1 <_start-0x7fffffff>
800001d0:	00200293          	li	t0,2
800001d4:	fe5210e3          	bne	tp,t0,800001b4 <test_9+0x4>
800001d8:	ff100eb7          	lui	t4,0xff100
800001dc:	f0fe8e93          	addi	t4,t4,-241 # ff0fff0f <begin_signature+0x7f0fdf0f>
800001e0:	00900e13          	li	t3,9
800001e4:	39d31e63          	bne	t1,t4,80000580 <fail>

800001e8 <test_10>:
800001e8:	00000213          	li	tp,0
800001ec:	0ff010b7          	lui	ra,0xff01
800001f0:	ff008093          	addi	ra,ra,-16 # ff00ff0 <_start-0x700ff010>
800001f4:	f0f0f137          	lui	sp,0xf0f0f
800001f8:	0f010113          	addi	sp,sp,240 # f0f0f0f0 <begin_signature+0x70f0d0f0>
800001fc:	0020e1b3          	or	gp,ra,sp
80000200:	00000013          	nop
80000204:	00018313          	mv	t1,gp
80000208:	00120213          	addi	tp,tp,1 # 1 <_start-0x7fffffff>
8000020c:	00200293          	li	t0,2
80000210:	fc521ee3          	bne	tp,t0,800001ec <test_10+0x4>
80000214:	fff10eb7          	lui	t4,0xfff10
80000218:	ff0e8e93          	addi	t4,t4,-16 # fff0fff0 <begin_signature+0x7ff0dff0>
8000021c:	00a00e13          	li	t3,10
80000220:	37d31063          	bne	t1,t4,80000580 <fail>

80000224 <test_11>:
80000224:	00000213          	li	tp,0
80000228:	00ff00b7          	lui	ra,0xff0
8000022c:	0ff08093          	addi	ra,ra,255 # ff00ff <_start-0x7f00ff01>
80000230:	0f0f1137          	lui	sp,0xf0f1
80000234:	f0f10113          	addi	sp,sp,-241 # f0f0f0f <_start-0x70f0f0f1>
80000238:	0020e1b3          	or	gp,ra,sp
8000023c:	00000013          	nop
80000240:	00000013          	nop
80000244:	00018313          	mv	t1,gp
80000248:	00120213          	addi	tp,tp,1 # 1 <_start-0x7fffffff>
8000024c:	00200293          	li	t0,2
80000250:	fc521ce3          	bne	tp,t0,80000228 <test_11+0x4>
80000254:	0fff1eb7          	lui	t4,0xfff1
80000258:	fffe8e93          	addi	t4,t4,-1 # fff0fff <_start-0x7000f001>
8000025c:	00b00e13          	li	t3,11
80000260:	33d31063          	bne	t1,t4,80000580 <fail>

80000264 <test_12>:
80000264:	00000213          	li	tp,0
80000268:	ff0100b7          	lui	ra,0xff010
8000026c:	f0008093          	addi	ra,ra,-256 # ff00ff00 <begin_signature+0x7f00df00>
80000270:	0f0f1137          	lui	sp,0xf0f1
80000274:	f0f10113          	addi	sp,sp,-241 # f0f0f0f <_start-0x70f0f0f1>
80000278:	0020e1b3          	or	gp,ra,sp
8000027c:	00120213          	addi	tp,tp,1 # 1 <_start-0x7fffffff>
80000280:	00200293          	li	t0,2
80000284:	fe5212e3          	bne	tp,t0,80000268 <test_12+0x4>
80000288:	ff100eb7          	lui	t4,0xff100
8000028c:	f0fe8e93          	addi	t4,t4,-241 # ff0fff0f <begin_signature+0x7f0fdf0f>
80000290:	00c00e13          	li	t3,12
80000294:	2fd19663          	bne	gp,t4,80000580 <fail>

80000298 <test_13>:
80000298:	00000213          	li	tp,0
8000029c:	0ff010b7          	lui	ra,0xff01
800002a0:	ff008093          	addi	ra,ra,-16 # ff00ff0 <_start-0x700ff010>
800002a4:	f0f0f137          	lui	sp,0xf0f0f
800002a8:	0f010113          	addi	sp,sp,240 # f0f0f0f0 <begin_signature+0x70f0d0f0>
800002ac:	00000013          	nop
800002b0:	0020e1b3          	or	gp,ra,sp
800002b4:	00120213          	addi	tp,tp,1 # 1 <_start-0x7fffffff>
800002b8:	00200293          	li	t0,2
800002bc:	fe5210e3          	bne	tp,t0,8000029c <test_13+0x4>
800002c0:	fff10eb7          	lui	t4,0xfff10
800002c4:	ff0e8e93          	addi	t4,t4,-16 # fff0fff0 <begin_signature+0x7ff0dff0>
800002c8:	00d00e13          	li	t3,13
800002cc:	2bd19a63          	bne	gp,t4,80000580 <fail>

800002d0 <test_14>:
800002d0:	00000213          	li	tp,0
800002d4:	00ff00b7          	lui	ra,0xff0
800002d8:	0ff08093          	addi	ra,ra,255 # ff00ff <_start-0x7f00ff01>
800002dc:	0f0f1137          	lui	sp,0xf0f1
800002e0:	f0f10113          	addi	sp,sp,-241 # f0f0f0f <_start-0x70f0f0f1>
800002e4:	00000013          	nop
800002e8:	00000013          	nop
800002ec:	0020e1b3          	or	gp,ra,sp
800002f0:	00120213          	addi	tp,tp,1 # 1 <_start-0x7fffffff>
800002f4:	00200293          	li	t0,2
800002f8:	fc521ee3          	bne	tp,t0,800002d4 <test_14+0x4>
800002fc:	0fff1eb7          	lui	t4,0xfff1
80000300:	fffe8e93          	addi	t4,t4,-1 # fff0fff <_start-0x7000f001>
80000304:	00e00e13          	li	t3,14
80000308:	27d19c63          	bne	gp,t4,80000580 <fail>

8000030c <test_15>:
8000030c:	00000213          	li	tp,0
80000310:	ff0100b7          	lui	ra,0xff010
80000314:	f0008093          	addi	ra,ra,-256 # ff00ff00 <begin_signature+0x7f00df00>
80000318:	00000013          	nop
8000031c:	0f0f1137          	lui	sp,0xf0f1
80000320:	f0f10113          	addi	sp,sp,-241 # f0f0f0f <_start-0x70f0f0f1>
80000324:	0020e1b3          	or	gp,ra,sp
80000328:	00120213          	addi	tp,tp,1 # 1 <_start-0x7fffffff>
8000032c:	00200293          	li	t0,2
80000330:	fe5210e3          	bne	tp,t0,80000310 <test_15+0x4>
80000334:	ff100eb7          	lui	t4,0xff100
80000338:	f0fe8e93          	addi	t4,t4,-241 # ff0fff0f <begin_signature+0x7f0fdf0f>
8000033c:	00f00e13          	li	t3,15
80000340:	25d19063          	bne	gp,t4,80000580 <fail>

80000344 <test_16>:
80000344:	00000213          	li	tp,0
80000348:	0ff010b7          	lui	ra,0xff01
8000034c:	ff008093          	addi	ra,ra,-16 # ff00ff0 <_start-0x700ff010>
80000350:	00000013          	nop
80000354:	f0f0f137          	lui	sp,0xf0f0f
80000358:	0f010113          	addi	sp,sp,240 # f0f0f0f0 <begin_signature+0x70f0d0f0>
8000035c:	00000013          	nop
80000360:	0020e1b3          	or	gp,ra,sp
80000364:	00120213          	addi	tp,tp,1 # 1 <_start-0x7fffffff>
80000368:	00200293          	li	t0,2
8000036c:	fc521ee3          	bne	tp,t0,80000348 <test_16+0x4>
80000370:	fff10eb7          	lui	t4,0xfff10
80000374:	ff0e8e93          	addi	t4,t4,-16 # fff0fff0 <begin_signature+0x7ff0dff0>
80000378:	01000e13          	li	t3,16
8000037c:	21d19263          	bne	gp,t4,80000580 <fail>

80000380 <test_17>:
80000380:	00000213          	li	tp,0
80000384:	00ff00b7          	lui	ra,0xff0
80000388:	0ff08093          	addi	ra,ra,255 # ff00ff <_start-0x7f00ff01>
8000038c:	00000013          	nop
80000390:	00000013          	nop
80000394:	0f0f1137          	lui	sp,0xf0f1
80000398:	f0f10113          	addi	sp,sp,-241 # f0f0f0f <_start-0x70f0f0f1>
8000039c:	0020e1b3          	or	gp,ra,sp
800003a0:	00120213          	addi	tp,tp,1 # 1 <_start-0x7fffffff>
800003a4:	00200293          	li	t0,2
800003a8:	fc521ee3          	bne	tp,t0,80000384 <test_17+0x4>
800003ac:	0fff1eb7          	lui	t4,0xfff1
800003b0:	fffe8e93          	addi	t4,t4,-1 # fff0fff <_start-0x7000f001>
800003b4:	01100e13          	li	t3,17
800003b8:	1dd19463          	bne	gp,t4,80000580 <fail>

800003bc <test_18>:
800003bc:	00000213          	li	tp,0
800003c0:	0f0f1137          	lui	sp,0xf0f1
800003c4:	f0f10113          	addi	sp,sp,-241 # f0f0f0f <_start-0x70f0f0f1>
800003c8:	ff0100b7          	lui	ra,0xff010
800003cc:	f0008093          	addi	ra,ra,-256 # ff00ff00 <begin_signature+0x7f00df00>
800003d0:	0020e1b3          	or	gp,ra,sp
800003d4:	00120213          	addi	tp,tp,1 # 1 <_start-0x7fffffff>
800003d8:	00200293          	li	t0,2
800003dc:	fe5212e3          	bne	tp,t0,800003c0 <test_18+0x4>
800003e0:	ff100eb7          	lui	t4,0xff100
800003e4:	f0fe8e93          	addi	t4,t4,-241 # ff0fff0f <begin_signature+0x7f0fdf0f>
800003e8:	01200e13          	li	t3,18
800003ec:	19d19a63          	bne	gp,t4,80000580 <fail>

800003f0 <test_19>:
800003f0:	00000213          	li	tp,0
800003f4:	f0f0f137          	lui	sp,0xf0f0f
800003f8:	0f010113          	addi	sp,sp,240 # f0f0f0f0 <begin_signature+0x70f0d0f0>
800003fc:	0ff010b7          	lui	ra,0xff01
80000400:	ff008093          	addi	ra,ra,-16 # ff00ff0 <_start-0x700ff010>
80000404:	00000013          	nop
80000408:	0020e1b3          	or	gp,ra,sp
8000040c:	00120213          	addi	tp,tp,1 # 1 <_start-0x7fffffff>
80000410:	00200293          	li	t0,2
80000414:	fe5210e3          	bne	tp,t0,800003f4 <test_19+0x4>
80000418:	fff10eb7          	lui	t4,0xfff10
8000041c:	ff0e8e93          	addi	t4,t4,-16 # fff0fff0 <begin_signature+0x7ff0dff0>
80000420:	01300e13          	li	t3,19
80000424:	15d19e63          	bne	gp,t4,80000580 <fail>

80000428 <test_20>:
80000428:	00000213          	li	tp,0
8000042c:	0f0f1137          	lui	sp,0xf0f1
80000430:	f0f10113          	addi	sp,sp,-241 # f0f0f0f <_start-0x70f0f0f1>
80000434:	00ff00b7          	lui	ra,0xff0
80000438:	0ff08093          	addi	ra,ra,255 # ff00ff <_start-0x7f00ff01>
8000043c:	00000013          	nop
80000440:	00000013          	nop
80000444:	0020e1b3          	or	gp,ra,sp
80000448:	00120213          	addi	tp,tp,1 # 1 <_start-0x7fffffff>
8000044c:	00200293          	li	t0,2
80000450:	fc521ee3          	bne	tp,t0,8000042c <test_20+0x4>
80000454:	0fff1eb7          	lui	t4,0xfff1
80000458:	fffe8e93          	addi	t4,t4,-1 # fff0fff <_start-0x7000f001>
8000045c:	01400e13          	li	t3,20
80000460:	13d19063          	bne	gp,t4,80000580 <fail>

80000464 <test_21>:
80000464:	00000213          	li	tp,0
80000468:	0f0f1137          	lui	sp,0xf0f1
8000046c:	f0f10113          	addi	sp,sp,-241 # f0f0f0f <_start-0x70f0f0f1>
80000470:	00000013          	nop
80000474:	ff0100b7          	lui	ra,0xff010
80000478:	f0008093          	addi	ra,ra,-256 # ff00ff00 <begin_signature+0x7f00df00>
8000047c:	0020e1b3          	or	gp,ra,sp
80000480:	00120213          	addi	tp,tp,1 # 1 <_start-0x7fffffff>
80000484:	00200293          	li	t0,2
80000488:	fe5210e3          	bne	tp,t0,80000468 <test_21+0x4>
8000048c:	ff100eb7          	lui	t4,0xff100
80000490:	f0fe8e93          	addi	t4,t4,-241 # ff0fff0f <begin_signature+0x7f0fdf0f>
80000494:	01500e13          	li	t3,21
80000498:	0fd19463          	bne	gp,t4,80000580 <fail>

8000049c <test_22>:
8000049c:	00000213          	li	tp,0
800004a0:	f0f0f137          	lui	sp,0xf0f0f
800004a4:	0f010113          	addi	sp,sp,240 # f0f0f0f0 <begin_signature+0x70f0d0f0>
800004a8:	00000013          	nop
800004ac:	0ff010b7          	lui	ra,0xff01
800004b0:	ff008093          	addi	ra,ra,-16 # ff00ff0 <_start-0x700ff010>
800004b4:	00000013          	nop
800004b8:	0020e1b3          	or	gp,ra,sp
800004bc:	00120213          	addi	tp,tp,1 # 1 <_start-0x7fffffff>
800004c0:	00200293          	li	t0,2
800004c4:	fc521ee3          	bne	tp,t0,800004a0 <test_22+0x4>
800004c8:	fff10eb7          	lui	t4,0xfff10
800004cc:	ff0e8e93          	addi	t4,t4,-16 # fff0fff0 <begin_signature+0x7ff0dff0>
800004d0:	01600e13          	li	t3,22
800004d4:	0bd19663          	bne	gp,t4,80000580 <fail>

800004d8 <test_23>:
800004d8:	00000213          	li	tp,0
800004dc:	0f0f1137          	lui	sp,0xf0f1
800004e0:	f0f10113          	addi	sp,sp,-241 # f0f0f0f <_start-0x70f0f0f1>
800004e4:	00000013          	nop
800004e8:	00000013          	nop
800004ec:	00ff00b7          	lui	ra,0xff0
800004f0:	0ff08093          	addi	ra,ra,255 # ff00ff <_start-0x7f00ff01>
800004f4:	0020e1b3          	or	gp,ra,sp
800004f8:	00120213          	addi	tp,tp,1 # 1 <_start-0x7fffffff>
800004fc:	00200293          	li	t0,2
80000500:	fc521ee3          	bne	tp,t0,800004dc <test_23+0x4>
80000504:	0fff1eb7          	lui	t4,0xfff1
80000508:	fffe8e93          	addi	t4,t4,-1 # fff0fff <_start-0x7000f001>
8000050c:	01700e13          	li	t3,23
80000510:	07d19863          	bne	gp,t4,80000580 <fail>

80000514 <test_24>:
80000514:	ff0100b7          	lui	ra,0xff010
80000518:	f0008093          	addi	ra,ra,-256 # ff00ff00 <begin_signature+0x7f00df00>
8000051c:	00106133          	or	sp,zero,ra
80000520:	ff010eb7          	lui	t4,0xff010
80000524:	f00e8e93          	addi	t4,t4,-256 # ff00ff00 <begin_signature+0x7f00df00>
80000528:	01800e13          	li	t3,24
8000052c:	05d11a63          	bne	sp,t4,80000580 <fail>

80000530 <test_25>:
80000530:	00ff00b7          	lui	ra,0xff0
80000534:	0ff08093          	addi	ra,ra,255 # ff00ff <_start-0x7f00ff01>
80000538:	0000e133          	or	sp,ra,zero
8000053c:	00ff0eb7          	lui	t4,0xff0
80000540:	0ffe8e93          	addi	t4,t4,255 # ff00ff <_start-0x7f00ff01>
80000544:	01900e13          	li	t3,25
80000548:	03d11c63          	bne	sp,t4,80000580 <fail>

8000054c <test_26>:
8000054c:	000060b3          	or	ra,zero,zero
80000550:	00000e93          	li	t4,0
80000554:	01a00e13          	li	t3,26
80000558:	03d09463          	bne	ra,t4,80000580 <fail>

8000055c <test_27>:
8000055c:	111110b7          	lui	ra,0x11111
80000560:	11108093          	addi	ra,ra,273 # 11111111 <_start-0x6eeeeeef>
80000564:	22222137          	lui	sp,0x22222
80000568:	22210113          	addi	sp,sp,546 # 22222222 <_start-0x5dddddde>
8000056c:	0020e033          	or	zero,ra,sp
80000570:	00000e93          	li	t4,0
80000574:	01b00e13          	li	t3,27
80000578:	01d01463          	bne	zero,t4,80000580 <fail>
8000057c:	01c01c63          	bne	zero,t3,80000594 <pass>

80000580 <fail>:
80000580:	0ff0000f          	fence
80000584:	000e0063          	beqz	t3,80000584 <fail+0x4>
80000588:	001e1e13          	slli	t3,t3,0x1
8000058c:	001e6e13          	ori	t3,t3,1
80000590:	00000073          	ecall

80000594 <pass>:
80000594:	0ff0000f          	fence
80000598:	00100e13          	li	t3,1
8000059c:	00000073          	ecall
800005a0:	c0001073          	unimp
800005a4:	0000                	unimp
800005a6:	0000                	unimp
800005a8:	0000                	unimp
800005aa:	0000                	unimp
800005ac:	0000                	unimp
800005ae:	0000                	unimp
800005b0:	0000                	unimp
800005b2:	0000                	unimp
800005b4:	0000                	unimp
800005b6:	0000                	unimp
800005b8:	0000                	unimp
800005ba:	0000                	unimp
800005bc:	0000                	unimp
800005be:	0000                	unimp
800005c0:	0000                	unimp
800005c2:	0000                	unimp
